 spicydog

 Timestamp is 3f2dec5b (Mon Aug 04 14:17:15 2003)

 Preferred load address is 00400000

 Start         Length     Name                   Class
 0001:00000000 0009afb6H .text                   CODE
 0001:0009afb6 000005a6H .text$AFX_CORE3         CODE
 0001:0009b55c 000004b1H .text$AFX_INIT          CODE
 0001:0009ba10 0000bd6fH .text$x                 CODE
 0002:00000000 000016c8H .idata$5                DATA
 0002:000016c8 00014be4H .rdata                  DATA
 0002:000162b0 00009d94H .rdata$r                DATA
 0002:00020048 00011c28H .xdata$x                DATA
 0002:00031c70 0000017cH .idata$2                DATA
 0002:00031dec 00000014H .idata$3                DATA
 0002:00031e00 000016c8H .idata$4                DATA
 0002:000334c8 00003b6eH .idata$6                DATA
 0002:00037036 00000000H .edata                  DATA
 0003:00000000 00000004H .CRT$XCA                DATA
 0003:00000004 00000004H .CRT$XCL                DATA
 0003:00000008 000004f0H .CRT$XCU                DATA
 0003:000004f8 00000004H .CRT$XCZ                DATA
 0003:000004fc 00000004H .CRT$XIA                DATA
 0003:00000500 00000004H .CRT$XIZ                DATA
 0003:00000510 00007a3bH .data                   DATA
 0003:00007f50 00000f1cH .bss                    DATA
 0004:00000000 00004c38H .rsrc$01                DATA
 0004:00004c40 000d5680H .rsrc$02                DATA

  Address         Publics by Value              Rva+Base     Lib:Object

 0001:00000000       ??0MFCUnserializer@@QAE@AAVCFile@@@Z 00401000 f   MFCUnserializer.obj
 0001:0000007b       ??1?$map@HVCString@@U?$less@H@std@@V?$allocator@VCString@@@3@@std@@QAE@XZ 0040107b f i MFCUnserializer.obj
 0001:00000080       ??1?$map@HHU?$less@H@std@@V?$allocator@H@2@@std@@QAE@XZ 00401080 f i MFCUnserializer.obj
 0001:00000085       ?ReadBuffer@MFCUnserializer@@QAEXPAEH@Z 00401085 f   MFCUnserializer.obj
 0001:000000a8       ?getReadStringLength@MFCUnserializer@@AAEHXZ 004010a8 f   MFCUnserializer.obj
 0001:000000fc       ?ReadValue@MFCUnserializer@@QAEXAAVCString@@@Z 004010fc f   MFCUnserializer.obj
 0001:0000014e       ?ReadValue@MFCUnserializer@@QAEXAAVCStringList@@@Z 0040114e f   MFCUnserializer.obj
 0001:000001ae       ?ReadValue@MFCUnserializer@@QAEXAAE@Z 004011ae f   MFCUnserializer.obj
 0001:000001ce       ?ReadValue@MFCUnserializer@@QAEXAAG@Z 004011ce f   MFCUnserializer.obj
 0001:000001ce       ?ReadValue@MFCUnserializer@@QAEXAAF@Z 004011ce f   MFCUnserializer.obj
 0001:000001ee       ?ReadValue@MFCUnserializer@@QAEXAAUtagPOINT@@@Z 004011ee f   MFCUnserializer.obj
 0001:000001ee       ?ReadValue@MFCUnserializer@@QAEXAAUtagSIZE@@@Z 004011ee f   MFCUnserializer.obj
 0001:000001ee       ?ReadValue@MFCUnserializer@@QAEXAAN@Z 004011ee f   MFCUnserializer.obj
 0001:0000020e       ?ReadValue@MFCUnserializer@@QAEXAAH@Z 0040120e f   MFCUnserializer.obj
 0001:0000020e       ?ReadValue@MFCUnserializer@@QAEXAAK@Z 0040120e f   MFCUnserializer.obj
 0001:0000020e       ?ReadValue@MFCUnserializer@@QAEXAAI@Z 0040120e f   MFCUnserializer.obj
 0001:0000022e       ?ReadCount@MFCUnserializer@@QAEHXZ 0040122e f   MFCUnserializer.obj
 0001:0000025e       ?ReadObject@MFCUnserializer@@QAEHAAVCString@@AAH@Z 0040125e f   MFCUnserializer.obj
 0001:00000316       ?getClass@MFCUnserializer@@AAEXHAAVCString@@@Z 00401316 f   MFCUnserializer.obj
 0001:00000344       ?registObject@MFCUnserializer@@AAEXVCString@@AAH@Z 00401344 f   MFCUnserializer.obj
 0001:000003a1       ?alreadyLoadObject@MFCUnserializer@@AAEHH@Z 004013a1 f   MFCUnserializer.obj
 0001:000003e3       ?loadClass@MFCUnserializer@@AAEXAAVCString@@@Z 004013e3 f   MFCUnserializer.obj
 0001:0000043f       ?Skip@MFCUnserializer@@QAEXH@Z 0040143f f   MFCUnserializer.obj
 0001:0000044f       ?GetObjectA@MFCUnserializer@@QBEPAVDOMNode@xercesc_2_2@@H@Z 0040144f f   MFCUnserializer.obj
 0001:0000048b       ?RegistObject@MFCUnserializer@@QAEXHPAVDOMNode@xercesc_2_2@@@Z 0040148b f   MFCUnserializer.obj
 0001:000004ce       ??A?$map@HVCString@@U?$less@H@std@@V?$allocator@VCString@@@3@@std@@QAEAAVCString@@ABH@Z 004014ce f i MFCUnserializer.obj
 0001:0000053b       ??1?$_Tree@HU?$pair@$$CBHVCString@@@std@@U_Kfn@?$map@HVCString@@U?$less@H@std@@V?$allocator@VCString@@@3@@2@U?$less@H@2@V?$allocator@VCString@@@2@@std@@QAE@XZ 0040153b f i MFCUnserializer.obj
 0001:0000059c       ??A?$map@HHU?$less@H@std@@V?$allocator@H@2@@std@@QAEAAHABH@Z 0040159c f i MFCUnserializer.obj
 0001:000005c5       ??1?$_Tree@HU?$pair@$$CBHH@std@@U_Kfn@?$map@HHU?$less@H@std@@V?$allocator@H@2@@2@U?$less@H@2@V?$allocator@H@2@@std@@QAE@XZ 004015c5 f i MFCUnserializer.obj
 0001:00000626       ??A?$map@HPAVDOMNode@xercesc_2_2@@U?$less@H@std@@V?$allocator@PAVDOMNode@xercesc_2_2@@@4@@std@@QAEAAPAVDOMNode@xercesc_2_2@@ABH@Z 00401626 f i MFCUnserializer.obj
 0001:0000064f       ?erase@?$_Tree@HU?$pair@$$CBHVCString@@@std@@U_Kfn@?$map@HVCString@@U?$less@H@std@@V?$allocator@VCString@@@3@@2@U?$less@H@2@V?$allocator@VCString@@@2@@std@@QAE?AViterator@12@V312@0@Z 0040164f f i MFCUnserializer.obj
 0001:000006c6       ?erase@?$_Tree@HU?$pair@$$CBHH@std@@U_Kfn@?$map@HHU?$less@H@std@@V?$allocator@H@2@@2@U?$less@H@2@V?$allocator@H@2@@std@@QAE?AViterator@12@V312@0@Z 004016c6 f i MFCUnserializer.obj
 0001:0000075d       ?find@?$_Tree@HU?$pair@$$CBHH@std@@U_Kfn@?$map@HHU?$less@H@std@@V?$allocator@H@2@@2@U?$less@H@2@V?$allocator@H@2@@std@@QAE?AViterator@12@ABH@Z 0040175d f i MFCUnserializer.obj
 0001:00000797       ?find@?$_Tree@HU?$pair@$$CBHPAVDOMNode@xercesc_2_2@@@std@@U_Kfn@?$map@HPAVDOMNode@xercesc_2_2@@U?$less@H@std@@V?$allocator@PAVDOMNode@xercesc_2_2@@@4@@2@U?$less@H@2@V?$allocator@PAVDOMNode@xercesc_2_2@@@2@@std@@QAE?AViterator@12@ABH@Z 00401797 f i MFCUnserializer.obj
 0001:00000797       ?find@?$_Tree@HU?$pair@$$CBHPAVDOMNode@xercesc_2_2@@@std@@U_Kfn@?$map@HPAVDOMNode@xercesc_2_2@@U?$less@H@std@@V?$allocator@PAVDOMNode@xercesc_2_2@@@4@@2@U?$less@H@2@V?$allocator@PAVDOMNode@xercesc_2_2@@@2@@std@@QBE?AVconst_iterator@12@ABH@Z 00401797 f i MFCUnserializer.obj
 0001:000007d1       ?insert@?$_Tree@HU?$pair@$$CBHVCString@@@std@@U_Kfn@?$map@HVCString@@U?$less@H@std@@V?$allocator@VCString@@@3@@2@U?$less@H@2@V?$allocator@VCString@@@2@@std@@QAE?AU?$pair@Viterator@?$_Tree@HU?$pair@$$CBHVCString@@@std@@U_Kfn@?$map@HVCString@@U?$less@H@std@@V?$allocator@VCString@@@3@@2@U?$less@H@2@V?$allocator@VCString@@@2@@std@@_N@2@ABU?$pair@$$CBHVCString@@@2@@Z 004017d1 f i MFCUnserializer.obj
 0001:0000086f       ?erase@?$_Tree@HU?$pair@$$CBHVCString@@@std@@U_Kfn@?$map@HVCString@@U?$less@H@std@@V?$allocator@VCString@@@3@@2@U?$less@H@2@V?$allocator@VCString@@@2@@std@@QAE?AViterator@12@V312@@Z 0040186f f i MFCUnserializer.obj
 0001:00000b0f       ?_Erase@?$_Tree@HU?$pair@$$CBHVCString@@@std@@U_Kfn@?$map@HVCString@@U?$less@H@std@@V?$allocator@VCString@@@3@@2@U?$less@H@2@V?$allocator@VCString@@@2@@std@@IAEXPAU_Node@12@@Z 00401b0f f i MFCUnserializer.obj
 0001:00000b4d       ?_Init@?$_Tree@HU?$pair@$$CBHVCString@@@std@@U_Kfn@?$map@HVCString@@U?$less@H@std@@V?$allocator@VCString@@@3@@2@U?$less@H@2@V?$allocator@VCString@@@2@@std@@IAEXXZ 00401b4d f i MFCUnserializer.obj
 0001:00000bd8       ?insert@?$_Tree@HU?$pair@$$CBHH@std@@U_Kfn@?$map@HHU?$less@H@std@@V?$allocator@H@2@@2@U?$less@H@2@V?$allocator@H@2@@std@@QAE?AU?$pair@Viterator@?$_Tree@HU?$pair@$$CBHH@std@@U_Kfn@?$map@HHU?$less@H@std@@V?$allocator@H@2@@2@U?$less@H@2@V?$allocator@H@2@@std@@_N@2@ABU?$pair@$$CBHH@2@@Z 00401bd8 f i MFCUnserializer.obj
 0001:00000c76       ?erase@?$_Tree@HU?$pair@$$CBHH@std@@U_Kfn@?$map@HHU?$less@H@std@@V?$allocator@H@2@@2@U?$less@H@2@V?$allocator@H@2@@std@@QAE?AViterator@12@V312@@Z 00401c76 f i MFCUnserializer.obj
 0001:00000f0d       ?_Erase@?$_Tree@HU?$pair@$$CBHH@std@@U_Kfn@?$map@HHU?$less@H@std@@V?$allocator@H@2@@2@U?$less@H@2@V?$allocator@H@2@@std@@IAEXPAU_Node@12@@Z 00401f0d f i MFCUnserializer.obj
 0001:00000f43       ?_Init@?$_Tree@HU?$pair@$$CBHH@std@@U_Kfn@?$map@HHU?$less@H@std@@V?$allocator@H@2@@2@U?$less@H@2@V?$allocator@H@2@@std@@IAEXXZ 00401f43 f i MFCUnserializer.obj
 0001:00000fce       ?insert@?$_Tree@HU?$pair@$$CBHPAVDOMNode@xercesc_2_2@@@std@@U_Kfn@?$map@HPAVDOMNode@xercesc_2_2@@U?$less@H@std@@V?$allocator@PAVDOMNode@xercesc_2_2@@@4@@2@U?$less@H@2@V?$allocator@PAVDOMNode@xercesc_2_2@@@2@@std@@QAE?AU?$pair@Viterator@?$_Tree@HU?$pair@$$CBHPAVDOMNode@xercesc_2_2@@@std@@U_Kfn@?$map@HPAVDOMNode@xercesc_2_2@@U?$less@H@std@@V?$allocator@PAVDOMNode@xercesc_2_2@@@4@@2@U?$less@H@2@V?$allocator@PAVDOMNode@xercesc_2_2@@@2@@std@@_N@2@ABU?$pair@$$CBHPAVDOMNode@xercesc_2_2@@@2@@Z 00401fce f i MFCUnserializer.obj
 0001:0000106c       ?_Init@?$_Tree@HU?$pair@$$CBHPAVDOMNode@xercesc_2_2@@@std@@U_Kfn@?$map@HPAVDOMNode@xercesc_2_2@@U?$less@H@std@@V?$allocator@PAVDOMNode@xercesc_2_2@@@4@@2@U?$less@H@2@V?$allocator@PAVDOMNode@xercesc_2_2@@@2@@std@@IAEXXZ 0040206c f i MFCUnserializer.obj
 0001:000010f7       ?_Insert@?$_Tree@HU?$pair@$$CBHVCString@@@std@@U_Kfn@?$map@HVCString@@U?$less@H@std@@V?$allocator@VCString@@@3@@2@U?$less@H@2@V?$allocator@VCString@@@2@@std@@IAE?AViterator@12@PAU_Node@12@0ABU?$pair@$$CBHVCString@@@2@@Z 004020f7 f i MFCUnserializer.obj
 0001:00001248       ?_Lrotate@?$_Tree@HU?$pair@$$CBHVCString@@@std@@U_Kfn@?$map@HVCString@@U?$less@H@std@@V?$allocator@VCString@@@3@@2@U?$less@H@2@V?$allocator@VCString@@@2@@std@@IAEXPAU_Node@12@@Z 00402248 f i MFCUnserializer.obj
 0001:0000128c       ?_Rrotate@?$_Tree@HU?$pair@$$CBHVCString@@@std@@U_Kfn@?$map@HVCString@@U?$less@H@std@@V?$allocator@VCString@@@3@@2@U?$less@H@2@V?$allocator@VCString@@@2@@std@@IAEXPAU_Node@12@@Z 0040228c f i MFCUnserializer.obj
 0001:000012d2       ?_Insert@?$_Tree@HU?$pair@$$CBHH@std@@U_Kfn@?$map@HHU?$less@H@std@@V?$allocator@H@2@@2@U?$less@H@2@V?$allocator@H@2@@std@@IAE?AViterator@12@PAU_Node@12@0ABU?$pair@$$CBHH@2@@Z 004022d2 f i MFCUnserializer.obj
 0001:00001423       ?_Lbound@?$_Tree@HU?$pair@$$CBHH@std@@U_Kfn@?$map@HHU?$less@H@std@@V?$allocator@H@2@@2@U?$less@H@2@V?$allocator@H@2@@std@@IBEPAU_Node@12@ABH@Z 00402423 f i MFCUnserializer.obj
 0001:00001450       ?_Lrotate@?$_Tree@HU?$pair@$$CBHH@std@@U_Kfn@?$map@HHU?$less@H@std@@V?$allocator@H@2@@2@U?$less@H@2@V?$allocator@H@2@@std@@IAEXPAU_Node@12@@Z 00402450 f i MFCUnserializer.obj
 0001:00001494       ?_Rrotate@?$_Tree@HU?$pair@$$CBHH@std@@U_Kfn@?$map@HHU?$less@H@std@@V?$allocator@H@2@@2@U?$less@H@2@V?$allocator@H@2@@std@@IAEXPAU_Node@12@@Z 00402494 f i MFCUnserializer.obj
 0001:000014da       ?_Insert@?$_Tree@HU?$pair@$$CBHPAVDOMNode@xercesc_2_2@@@std@@U_Kfn@?$map@HPAVDOMNode@xercesc_2_2@@U?$less@H@std@@V?$allocator@PAVDOMNode@xercesc_2_2@@@4@@2@U?$less@H@2@V?$allocator@PAVDOMNode@xercesc_2_2@@@2@@std@@IAE?AViterator@12@PAU_Node@12@0ABU?$pair@$$CBHPAVDOMNode@xercesc_2_2@@@2@@Z 004024da f i MFCUnserializer.obj
 0001:0000162b       ?_Lbound@?$_Tree@HU?$pair@$$CBHPAVDOMNode@xercesc_2_2@@@std@@U_Kfn@?$map@HPAVDOMNode@xercesc_2_2@@U?$less@H@std@@V?$allocator@PAVDOMNode@xercesc_2_2@@@4@@2@U?$less@H@2@V?$allocator@PAVDOMNode@xercesc_2_2@@@2@@std@@IBEPAU_Node@12@ABH@Z 0040262b f i MFCUnserializer.obj
 0001:00001658       ?_Lrotate@?$_Tree@HU?$pair@$$CBHPAVDOMNode@xercesc_2_2@@@std@@U_Kfn@?$map@HPAVDOMNode@xercesc_2_2@@U?$less@H@std@@V?$allocator@PAVDOMNode@xercesc_2_2@@@4@@2@U?$less@H@2@V?$allocator@PAVDOMNode@xercesc_2_2@@@2@@std@@IAEXPAU_Node@12@@Z 00402658 f i MFCUnserializer.obj
 0001:0000169c       ?_Rrotate@?$_Tree@HU?$pair@$$CBHPAVDOMNode@xercesc_2_2@@@std@@U_Kfn@?$map@HPAVDOMNode@xercesc_2_2@@U?$less@H@std@@V?$allocator@PAVDOMNode@xercesc_2_2@@@4@@2@U?$less@H@2@V?$allocator@PAVDOMNode@xercesc_2_2@@@2@@std@@IAEXPAU_Node@12@@Z 0040269c f i MFCUnserializer.obj
 0001:000016e2       ?_Dec@const_iterator@?$_Tree@HU?$pair@$$CBHVCString@@@std@@U_Kfn@?$map@HVCString@@U?$less@H@std@@V?$allocator@VCString@@@3@@2@U?$less@H@2@V?$allocator@VCString@@@2@@std@@QAEXXZ 004026e2 f i MFCUnserializer.obj
 0001:0000171e       ?_Inc@const_iterator@?$_Tree@HU?$pair@$$CBHVCString@@@std@@U_Kfn@?$map@HVCString@@U?$less@H@std@@V?$allocator@VCString@@@3@@2@U?$less@H@2@V?$allocator@VCString@@@2@@std@@QAEXXZ 0040271e f i MFCUnserializer.obj
 0001:00001754       ?_Dec@const_iterator@?$_Tree@HU?$pair@$$CBHH@std@@U_Kfn@?$map@HHU?$less@H@std@@V?$allocator@H@2@@2@U?$less@H@2@V?$allocator@H@2@@std@@QAEXXZ 00402754 f i MFCUnserializer.obj
 0001:00001790       ?_Inc@const_iterator@?$_Tree@HU?$pair@$$CBHH@std@@U_Kfn@?$map@HHU?$less@H@std@@V?$allocator@H@2@@2@U?$less@H@2@V?$allocator@H@2@@std@@QAEXXZ 00402790 f i MFCUnserializer.obj
 0001:000017c6       ?_Dec@const_iterator@?$_Tree@HU?$pair@$$CBHPAVDOMNode@xercesc_2_2@@@std@@U_Kfn@?$map@HPAVDOMNode@xercesc_2_2@@U?$less@H@std@@V?$allocator@PAVDOMNode@xercesc_2_2@@@4@@2@U?$less@H@2@V?$allocator@PAVDOMNode@xercesc_2_2@@@2@@std@@QAEXXZ 004027c6 f i MFCUnserializer.obj
 0001:00001802       ?_Construct@std@@YAXPAU?$pair@$$CBHVCString@@@1@ABU21@@Z 00402802 f i MFCUnserializer.obj
 0001:0000183a       ??0COLMObject@@QAE@XZ      0040283a f   OLM.OBJ
 0001:00001895       ??_GCOLMObject@@UAEPAXI@Z  00402895 f i OLM.OBJ
 0001:00001895       ??_ECOLMObject@@UAEPAXI@Z  00402895 f i OLM.OBJ
 0001:000018b1       ??1COLMObject@@UAE@XZ      004028b1 f   OLM.OBJ
 0001:0000195d       ?AppendReferer@COLMObject@@QBEXPAVCOLMReferer@@@Z 0040295d f   OLM.OBJ
 0001:00001979       ?RemoveReferer@COLMObject@@QBEXPAVCOLMReferer@@@Z 00402979 f   OLM.OBJ
 0001:000019af       ?OnRemovedOLMObject@COLMObject@@QAEXPAV1@@Z 004029af f   OLM.OBJ
 0001:00001a03       ?OnRevivalOLMObject@COLMObject@@QAEXPAV1@@Z 00402a03 f   OLM.OBJ
 0001:00001a28       ??0COLMObjectPtr@@IAE@XZ   00402a28 f   OLM.OBJ
 0001:00001a35       ??_GCOLMObjectPtr@@MAEPAXI@Z 00402a35 f i OLM.OBJ
 0001:00001a35       ??_ECOLMObjectPtr@@MAEPAXI@Z 00402a35 f i OLM.OBJ
 0001:00001a51       ??1COLMObjectPtr@@MAE@XZ   00402a51 f   OLM.OBJ
 0001:00001a72       ?DeleteObject@COLMObjectPtr@@IAEXXZ 00402a72 f   OLM.OBJ
 0001:00001a89       ?IsNullObject@COLMObjectPtr@@QBEHXZ 00402a89 f   OLM.OBJ
 0001:00001a92       ?AssertValid@COLMObjectPtr@@EBEXXZ 00402a92 f   OLM.OBJ
 0001:00001a97       ??0COLMOwner@@QAE@XZ       00402a97 f   OLM.OBJ
 0001:00001aa9       ??_GCOLMOwner@@UAEPAXI@Z   00402aa9 f i OLM.OBJ
 0001:00001aa9       ??_ECOLMOwner@@UAEPAXI@Z   00402aa9 f i OLM.OBJ
 0001:00001ac5       ??1COLMOwner@@UAE@XZ       00402ac5 f   OLM.OBJ
 0001:00001b08       ??0COLMOwner@@IAE@ABV0@@Z  00402b08 f   OLM.OBJ
 0001:00001b1c       ?OwnNew@COLMKeeper@@UAEXPAVCOLMObject@@@Z 00402b1c f   OLM.OBJ
 0001:00001b1c       ?OwnNew@COLMOwner@@UAEXPAVCOLMObject@@@Z 00402b1c f   OLM.OBJ
 0001:00001b28       ?InheritedFrom@COLMOwner@@UAEXPAV1@@Z 00402b28 f   OLM.OBJ
 0001:00001b4f       ??0COLMKeeper@@QAE@XZ      00402b4f f   OLM.OBJ
 0001:00001b61       ??_GCOLMKeeper@@UAEPAXI@Z  00402b61 f i OLM.OBJ
 0001:00001b61       ??_ECOLMKeeper@@UAEPAXI@Z  00402b61 f i OLM.OBJ
 0001:00001b7d       ??0COLMKeeper@@IAE@ABV0@@Z 00402b7d f   OLM.OBJ
 0001:00001b91       ??1COLMKeeper@@UAE@XZ      00402b91 f   OLM.OBJ
 0001:00001bd4       ?InheritedFrom@COLMKeeper@@UAEXPAVCOLMOwner@@@Z 00402bd4 f   OLM.OBJ
 0001:00001c11       ?TransferTo@COLMKeeper@@UAEXPAVCOLMOwner@@@Z 00402c11 f   OLM.OBJ
 0001:00001c4a       ?Backup@COLMKeeper@@AAEXPAVCOLMObject@@@Z 00402c4a f   OLM.OBJ
 0001:00001c6c       ?Restore@COLMKeeper@@AAEXPAVCOLMObject@@@Z 00402c6c f   OLM.OBJ
 0001:00001c8e       ??0COLMReferer@@QAE@XZ     00402c8e f   OLM.OBJ
 0001:00001ca8       ??_ECOLMReferer@@UAEPAXI@Z 00402ca8 f i OLM.OBJ
 0001:00001ca8       ??_GCOLMReferer@@UAEPAXI@Z 00402ca8 f i OLM.OBJ
 0001:00001cc4       ?GetKeptOLMObject@COLMReferer@@QBEPBVCOLMObject@@XZ 00402cc4 f   OLM.OBJ
 0001:00001cde       ??1COLMReferer@@UAE@XZ     00402cde f   OLM.OBJ
 0001:00001d43       ?ReferTo@COLMReferer@@QAEXPBVCOLMObject@@@Z 00402d43 f   OLM.OBJ
 0001:00001d81       ?ClearRefererer@COLMReferer@@QAEXXZ 00402d81 f   OLM.OBJ
 0001:00001db8       ?RemoveListener@COLMReferer@@QAEXPAVCOLMRefererListener@@@Z 00402db8 f   OLM.OBJ
 0001:00001dbf       ?OnRemovedOLMObject@COLMReferer@@UAEXPAVCOLMObject@@@Z 00402dbf f   OLM.OBJ
 0001:00001de6       ?OnRevivalOLMObject@COLMReferer@@UAEXPAVCOLMObject@@@Z 00402de6 f   OLM.OBJ
 0001:00001df9       ??0COLMOwners@@QAE@XZ      00402df9 f   OLM.OBJ
 0001:00001e54       ??_GCOLMOwners@@UAEPAXI@Z  00402e54 f i OLM.OBJ
 0001:00001e54       ??_ECOLMOwners@@UAEPAXI@Z  00402e54 f i OLM.OBJ
 0001:00001e70       ??1COLMOwners@@UAE@XZ      00402e70 f   OLM.OBJ
 0001:00001ead       ?Begin@KeyFrameOwners@@QBE?AVconst_iterator@?$list@V?$TOLMOwner@VKeyFrame@@@@V?$TOLMAllocator@V?$TOLMOwner@VKeyFrame@@@@@@@std@@XZ 00402ead f   OLM.OBJ
 0001:00001ead       ?Begin@COLMOwners@@QBE?AVconst_iterator@?$list@VCOLMOwner@@V?$TOLMAllocator@VCOLMOwner@@@@@std@@XZ 00402ead f   OLM.OBJ
 0001:00001ebb       ?End@COLMOwners@@QBE?AVconst_iterator@?$list@VCOLMOwner@@V?$TOLMAllocator@VCOLMOwner@@@@@std@@XZ 00402ebb f   OLM.OBJ
 0001:00001ebb       ?End@KeyFrameOwners@@QBE?AVconst_iterator@?$list@V?$TOLMOwner@VKeyFrame@@@@V?$TOLMAllocator@V?$TOLMOwner@VKeyFrame@@@@@@@std@@XZ 00402ebb f   OLM.OBJ
 0001:00001ec7       ?Move@COLMOwners@@QAEXHH@Z 00402ec7 f   OLM.OBJ
 0001:00001f62       ?GetObjectA@COLMOwners@@QAEPAVCOLMObject@@H@Z 00402f62 f   OLM.OBJ
 0001:00001f62       ?GetObjectA@COLMOwners@@QBEPBVCOLMObject@@H@Z 00402f62 f   OLM.OBJ
 0001:00001f7f       ?GetItr@COLMOwners@@AAE?AViterator@?$list@VCOLMOwner@@V?$TOLMAllocator@VCOLMOwner@@@@@std@@H@Z 00402f7f f   OLM.OBJ
 0001:00001fbc       ?AssertValid@COLMOwners@@UBEXXZ 00402fbc f   OLM.OBJ
 0001:00001fdb       ?Serialize@COLMOwners@@IAEXPAVSDOMArchive@@HP6APAVSDOMSerializable@@PBG@ZP6APBGPAV3@@Z@Z 00402fdb f   OLM.OBJ
 0001:0000200c       ?Save@COLMOwners@@IAEXPAVSDOMArchive@@HP6APAVSDOMSerializable@@PBG@ZP6APBGPAV3@@Z@Z 0040300c f   OLM.OBJ
 0001:0000203e       ?Load@COLMOwners@@IAEXPAVSDOMArchive@@HP6APAVSDOMSerializable@@PBG@ZP6APBGPAV3@@Z@Z 0040303e f   OLM.OBJ
 0001:000020c2       ??1COLMKeepers@@UAE@XZ     004030c2 f   OLM.OBJ
 0001:000020d0       ??_ECOLMKeepers@@UAEPAXI@Z 004030d0 f i OLM.OBJ
 0001:000020d0       ??_GCOLMKeepers@@UAEPAXI@Z 004030d0 f i OLM.OBJ
 0001:000020ec       ?InheritedFrom@COLMKeepers@@UAEXAAVCOLMOwners@@HH@Z 004030ec f   OLM.OBJ
 0001:0000218e       ?TransferTo@COLMKeepers@@UAEXAAVCOLMOwners@@H@Z 0040318e f   OLM.OBJ
 0001:0000221e       ?OwnNew@COLMKeepers@@UAEXPAVCOLMObject@@@Z 0040321e f   OLM.OBJ
 0001:00002275       ??1?$list@PAVCOLMReferer@@V?$allocator@PAVCOLMReferer@@@std@@@std@@QAE@XZ 00403275 f i OLM.OBJ
 0001:00002275       ??1?$list@PAVViewSwitchListener@@V?$allocator@PAVViewSwitchListener@@@std@@@std@@QAE@XZ 00403275 f i OLM.OBJ
 0001:00002275       ??1?$list@PAVDialogSizingBar@@V?$allocator@PAVDialogSizingBar@@@std@@@std@@QAE@XZ 00403275 f i OLM.OBJ
 0001:00002275       ??1?$list@PAVChar@@V?$allocator@PAVChar@@@std@@@std@@QAE@XZ 00403275 f i OLM.OBJ
 0001:00002275       ??1?$list@PBVLabel@@V?$allocator@PBVLabel@@@std@@@std@@QAE@XZ 00403275 f i OLM.OBJ
 0001:00002275       ??1?$list@UDRAWDOT@DotPictViewCnt@@V?$allocator@UDRAWDOT@DotPictViewCnt@@@std@@@std@@QAE@XZ 00403275 f i OLM.OBJ
 0001:00002275       ??1?$list@PAVDocumentListener@@V?$allocator@PAVDocumentListener@@@std@@@std@@QAE@XZ 00403275 f i OLM.OBJ
 0001:00002275       ??1?$list@UCOLORUSE@@V?$allocator@UCOLORUSE@@@std@@@std@@QAE@XZ 00403275 f i OLM.OBJ
 0001:000022a0       ??_ECObject@@UAEPAXI@Z     004032a0 f i OLM.OBJ
 0001:000022a0       ??_GCObject@@UAEPAXI@Z     004032a0 f i OLM.OBJ
 0001:000022bd       ??1?$list@V?$TOLMKeeper@VKeyFrame@@@@V?$TOLMAllocator@V?$TOLMKeeper@VKeyFrame@@@@@@@std@@QAE@XZ 004032bd f i OLM.OBJ
 0001:000022bd       ??1?$list@V?$TOLMOwner@VKeyFrame@@@@V?$TOLMAllocator@V?$TOLMOwner@VKeyFrame@@@@@@@std@@QAE@XZ 004032bd f i OLM.OBJ
 0001:000022bd       ??1?$list@VCOLMKeeper@@V?$TOLMAllocator@VCOLMKeeper@@@@@std@@QAE@XZ 004032bd f i OLM.OBJ
 0001:000022bd       ??1?$list@VRandomJumpCase@@V?$allocator@VRandomJumpCase@@@std@@@std@@QAE@XZ 004032bd f i OLM.OBJ
 0001:000022bd       ??1?$list@VCOLMOwner@@V?$TOLMAllocator@VCOLMOwner@@@@@std@@QAE@XZ 004032bd f i OLM.OBJ
 0001:000022f5       ?insert@?$list@VCOLMOwner@@V?$TOLMAllocator@VCOLMOwner@@@@@std@@QAE?AViterator@12@V312@ABVCOLMOwner@@@Z 004032f5 f i OLM.OBJ
 0001:0000234e       ?insert@?$list@VCOLMKeeper@@V?$TOLMAllocator@VCOLMKeeper@@@@@std@@QAE?AViterator@12@V312@ABVCOLMKeeper@@@Z 0040334e f i OLM.OBJ
 0001:000023a7       ?erase@?$list@PAVViewSwitchListener@@V?$allocator@PAVViewSwitchListener@@@std@@@std@@QAE?AViterator@12@V312@0@Z 004033a7 f i OLM.OBJ
 0001:000023a7       ?erase@?$list@UDRAWDOT@DotPictViewCnt@@V?$allocator@UDRAWDOT@DotPictViewCnt@@@std@@@std@@QAE?AViterator@12@V312@0@Z 004033a7 f i OLM.OBJ
 0001:000023a7       ?erase@?$list@PAVCOLMReferer@@V?$allocator@PAVCOLMReferer@@@std@@@std@@QAE?AViterator@12@V312@0@Z 004033a7 f i OLM.OBJ
 0001:000023a7       ?erase@?$list@PAVChar@@V?$allocator@PAVChar@@@std@@@std@@QAE?AViterator@12@V312@0@Z 004033a7 f i OLM.OBJ
 0001:000023a7       ?erase@?$list@PAVDocumentListener@@V?$allocator@PAVDocumentListener@@@std@@@std@@QAE?AViterator@12@V312@0@Z 004033a7 f i OLM.OBJ
 0001:000023a7       ?erase@?$list@PBVLabel@@V?$allocator@PBVLabel@@@std@@@std@@QAE?AViterator@12@V312@0@Z 004033a7 f i OLM.OBJ
 0001:000023a7       ?erase@?$list@UCOLORUSE@@V?$allocator@UCOLORUSE@@@std@@@std@@QAE?AViterator@12@V312@0@Z 004033a7 f i OLM.OBJ
 0001:000023a7       ?erase@?$list@PAVDialogSizingBar@@V?$allocator@PAVDialogSizingBar@@@std@@@std@@QAE?AViterator@12@V312@0@Z 004033a7 f i OLM.OBJ
 0001:000023df       ?_Buynode@?$list@U?$pair@PBVLabel@@VCString@@@std@@V?$allocator@U?$pair@PBVLabel@@VCString@@@std@@@2@@std@@IAEPAU_Node@12@PAU312@0@Z 004033df f i OLM.OBJ
 0001:000023df       ?_Buynode@?$list@VCOLMOwner@@V?$TOLMAllocator@VCOLMOwner@@@@@std@@IAEPAU_Node@12@PAU312@0@Z 004033df f i OLM.OBJ
 0001:000023df       ?_Buynode@?$list@UCOLORUSE@@V?$allocator@UCOLORUSE@@@std@@@std@@IAEPAU_Node@12@PAU312@0@Z 004033df f i OLM.OBJ
 0001:000023df       ?_Buynode@?$list@VCOLMKeeper@@V?$TOLMAllocator@VCOLMKeeper@@@@@std@@IAEPAU_Node@12@PAU312@0@Z 004033df f i OLM.OBJ
 0001:000023df       ?_Buynode@?$list@V?$auto_ptr@VCPropertyPageEx@@@std@@V?$allocator@V?$auto_ptr@VCPropertyPageEx@@@std@@@2@@std@@IAEPAU_Node@12@PAU312@0@Z 004033df f i OLM.OBJ
 0001:000023df       ?_Buynode@?$list@V?$auto_ptr@UCHARVIEW@AppliFrameWnd@@@std@@V?$allocator@V?$auto_ptr@UCHARVIEW@AppliFrameWnd@@@std@@@2@@std@@IAEPAU_Node@12@PAU312@0@Z 004033df f i OLM.OBJ
 0001:000023df       ?_Buynode@?$list@V?$TOLMOwner@VKeyFrame@@@@V?$TOLMAllocator@V?$TOLMOwner@VKeyFrame@@@@@@@std@@IAEPAU_Node@12@PAU312@0@Z 004033df f i OLM.OBJ
 0001:000023df       ?_Buynode@?$list@V?$TOLMKeeper@VKeyFrame@@@@V?$TOLMAllocator@V?$TOLMKeeper@VKeyFrame@@@@@@@std@@IAEPAU_Node@12@PAU312@0@Z 004033df f i OLM.OBJ
 0001:000023df       ?_Buynode@?$list@V?$auto_ptr@VCmd@@@std@@V?$allocator@V?$auto_ptr@VCmd@@@std@@@2@@std@@IAEPAU_Node@12@PAU312@0@Z 004033df f i OLM.OBJ
 0001:00002403       ?_OLMConstruct@@YAXPAVCOLMOwner@@ABV1@@Z 00403403 f i OLM.OBJ
 0001:00002415       ?_OLMConstruct@@YAXPAVCOLMKeeper@@ABV1@@Z 00403415 f i OLM.OBJ
 0001:00002427       ?_OLMAllocate@@YAPADHPAD@Z 00403427 f i OLM.OBJ
 0001:00002439       ??0SDOMArchive@@QAE@XZ     00403439 f   SDOMArchive.obj
 0001:00002499       ??1?$map@HPAVCOLMObject@@U?$less@H@std@@V?$allocator@PAVCOLMObject@@@3@@std@@QAE@XZ 00403499 f i SDOMArchive.obj
 0001:0000249e       ?encodeID@SDOMArchive@@SA?AVCString@@H@Z 0040349e f   SDOMArchive.obj
 0001:000024fc       ?decodeID@SDOMArchive@@SAHPBG@Z 004034fc f   SDOMArchive.obj
 0001:00002529       ?SerializeStore@SDOMArchive@@QAEPAVDOMDocument@xercesc_2_2@@PBGPAVSDOMSerializable@@@Z 00403529 f   SDOMArchive.obj
 0001:000025c1       ?SerializeLoad@SDOMArchive@@QAEXPAVDOMDocument@xercesc_2_2@@PBGPAVSDOMSerializable@@@Z 004035c1 f   SDOMArchive.obj
 0001:000025ea       ?SerializeString@SDOMArchive@@QAEXPBGAAVCString@@@Z 004035ea f   SDOMArchive.obj
 0001:0000283c       ?cast_to_string@@YA?AVCString@@N@Z 0040383c f   SDOMArchive.obj
 0001:0000289f       ?SerializeINT@SDOMArchive@@QAEXPBGAAH@Z 0040389f f   SDOMArchive.obj
 0001:000028b3       ?SerializeUINT@SDOMArchive@@QAEXPBGAAI@Z 004038b3 f   SDOMArchive.obj
 0001:000028c7       ?SerializeLONG@SDOMArchive@@QAEXPBGAAJ@Z 004038c7 f   SDOMArchive.obj
 0001:000028db       ?SerializeBOOL@SDOMArchive@@QAEXPBGAAH@Z 004038db f   SDOMArchive.obj
 0001:00002998       ?SerializeCOLORREF@SDOMArchive@@QAEXPBGAAK@Z 00403998 f   SDOMArchive.obj
 0001:00002a5d       ?SerializeDOUBLE@SDOMArchive@@QAEXPBGAAN@Z 00403a5d f   SDOMArchive.obj
 0001:00002a71       ?SerializeSIZE@SDOMArchive@@QAEXPBGAAUtagSIZE@@@Z 00403a71 f   SDOMArchive.obj
 0001:00002aad       ?SerializePOINT@SDOMArchive@@QAEXPBGAAUtagPOINT@@@Z 00403aad f   SDOMArchive.obj
 0001:00002ae9       ?SerializeBuffer@SDOMArchive@@QAEXPBGAAVSDOMBuffer@@@Z 00403ae9 f   SDOMArchive.obj
 0001:00002b77       ?SerializeStatic@SDOMArchive@@QAEXPBGPAVSDOMSerializable@@@Z 00403b77 f   SDOMArchive.obj
 0001:00002b97       ?SerializeType@SDOMArchive@@QAEXPBGAAHABVSDOMEnumType@@@Z 00403b97 f   SDOMArchive.obj
 0001:00002c15       ?EnterType@SDOMArchive@@QAEXAAHABVSDOMEnumType@@@Z 00403c15 f   SDOMArchive.obj
 0001:00002d44       ?ExitType@SDOMArchive@@QAEXXZ 00403d44 f   SDOMArchive.obj
 0001:00002d49       ?EnterElement@SDOMArchive@@QAEXPBG@Z 00403d49 f   SDOMArchive.obj
 0001:00002e49       ?ExitElement@SDOMArchive@@QAEXXZ 00403e49 f   SDOMArchive.obj
 0001:00002e82       ?SerializeDynamic@SDOMArchive@@QAEXAAPAVSDOMSerializable@@P6APAV2@PBG@ZP6APBGPAV2@@Z@Z 00403e82 f   SDOMArchive.obj
 0001:00002ed1       ?SerializeReferer@SDOMArchive@@QAEXPBGPAVCOLMReferer@@@Z 00403ed1 f   SDOMArchive.obj
 0001:00003066       ?SerializeOwner@SDOMArchive@@QAEXPAVCOLMOwner@@HP6APAVSDOMSerializable@@PBG@ZP6APBGPAV3@@Z@Z 00404066 f   SDOMArchive.obj
 0001:00003230       ?HasNextElement@SDOMArchive@@QBEHXZ 00404230 f   SDOMArchive.obj
 0001:00003239       ?alreadyCreated@SDOMArchive@@ABEHH@Z 00404239 f   SDOMArchive.obj
 0001:00003261       ?registObject@SDOMArchive@@AAEXHPAVCOLMObject@@@Z 00404261 f   SDOMArchive.obj
 0001:00003287       ?queueRequest@SDOMArchive@@AAEXHPAVCOLMReferer@@@Z 00404287 f   SDOMArchive.obj
 0001:000032ad       ?getObject@SDOMArchive@@ABEPAVCOLMObject@@H@Z 004042ad f   SDOMArchive.obj
 0001:000032cb       ?resolveRequests@SDOMArchive@@AAEXHPAVCOLMObject@@@Z 004042cb f   SDOMArchive.obj
 0001:0000332b       ?IsLoading@SDOMArchive@@QBEHXZ 0040432b f   SDOMArchive.obj
 0001:00003334       ?bin2hex@SDOMArchive@@SA?AVCString@@PBXI@Z 00404334 f   SDOMArchive.obj
 0001:000033d1       ?hexLength@SDOMArchive@@SAIPBD@Z 004043d1 f   SDOMArchive.obj
 0001:000033f8       ?hex2bin@SDOMArchive@@SAHD@Z 004043f8 f   SDOMArchive.obj
 0001:00003425       ?bin2hex@SDOMArchive@@SADH@Z 00404425 f   SDOMArchive.obj
 0001:00003434       ?hex2bin@SDOMArchive@@SAXPBDPAX@Z 00404434 f   SDOMArchive.obj
 0001:00003476       ?SaveBitmap@SDOMArchive@@SAXABVLBitmapBase@@AAVLBuffer@@@Z 00404476 f   SDOMArchive.obj
 0001:000034d9       ?LoadBitmapA@SDOMArchive@@SAXABVLBuffer@@AAVLBitmapBase@@@Z 004044d9 f   SDOMArchive.obj
 0001:0000358f       ?SerializeBitmap@SDOMArchive@@QAEXPBGAAVLBitmapBase@@@Z 0040458f f   SDOMArchive.obj
 0001:00003609       ?SerializeBuffer@SDOMArchive@@QAEXPBGAAVLBuffer@@@Z 00404609 f   SDOMArchive.obj
 0001:00003717       ?stripSlashes@SDOMArchive@@SA?AVCString@@PBD@Z 00404717 f   SDOMArchive.obj
 0001:000037e1       ?addSlashes@SDOMArchive@@SA?AVCString@@PBD@Z 004047e1 f   SDOMArchive.obj
 0001:000038d1       ??1?$_Tree@HU?$pair@$$CBHPAVCOLMObject@@@std@@U_Kfn@?$map@HPAVCOLMObject@@U?$less@H@std@@V?$allocator@PAVCOLMObject@@@3@@2@U?$less@H@2@V?$allocator@PAVCOLMObject@@@2@@std@@QAE@XZ 004048d1 f i SDOMArchive.obj
 0001:00003932       ??4?$DOMNodeP@VDOMNode@xercesc_2_2@@@@QAEAAV0@ABV0@@Z 00404932 f i SDOMArchive.obj
 0001:00003932       ??4?$DOMNodeP@VDOMElement@xercesc_2_2@@@@QAEAAV0@ABV0@@Z 00404932 f i SDOMArchive.obj
 0001:00003932       ??4?$DOMNodeP@VDOMText@xercesc_2_2@@@@QAEAAV0@ABV0@@Z 00404932 f i SDOMArchive.obj
 0001:0000396d       ?insert@?$_Tree@HU?$pair@$$CBHPAVCOLMObject@@@std@@U_Kfn@?$map@HPAVCOLMObject@@U?$less@H@std@@V?$allocator@PAVCOLMObject@@@3@@2@U?$less@H@2@V?$allocator@PAVCOLMObject@@@2@@std@@QAE?AU?$pair@Viterator@?$_Tree@HU?$pair@$$CBHPAVCOLMObject@@@std@@U_Kfn@?$map@HPAVCOLMObject@@U?$less@H@std@@V?$allocator@PAVCOLMObject@@@3@@2@U?$less@H@2@V?$allocator@PAVCOLMObject@@@2@@std@@_N@2@ABU?$pair@$$CBHPAVCOLMObject@@@2@@Z 0040496d f i SDOMArchive.obj
 0001:00003a0b       ?erase@?$_Tree@HU?$pair@$$CBHPAVCOLMObject@@@std@@U_Kfn@?$map@HPAVCOLMObject@@U?$less@H@std@@V?$allocator@PAVCOLMObject@@@3@@2@U?$less@H@2@V?$allocator@PAVCOLMObject@@@2@@std@@QAE?AViterator@12@V312@0@Z 00404a0b f i SDOMArchive.obj
 0001:00003aa2       ?find@?$_Tree@HU?$pair@$$CBHPAVCOLMObject@@@std@@U_Kfn@?$map@HPAVCOLMObject@@U?$less@H@std@@V?$allocator@PAVCOLMObject@@@3@@2@U?$less@H@2@V?$allocator@PAVCOLMObject@@@2@@std@@QBE?AVconst_iterator@12@ABH@Z 00404aa2 f i SDOMArchive.obj
 0001:00003adc       ?insert@?$_Tree@HU?$pair@$$CBHPAVCOLMReferer@@@std@@U_Kfn@?$multimap@HPAVCOLMReferer@@U?$less@H@std@@V?$allocator@PAVCOLMReferer@@@3@@2@U?$less@H@2@V?$allocator@PAVCOLMReferer@@@2@@std@@QAE?AU?$pair@Viterator@?$_Tree@HU?$pair@$$CBHPAVCOLMReferer@@@std@@U_Kfn@?$multimap@HPAVCOLMReferer@@U?$less@H@std@@V?$allocator@PAVCOLMReferer@@@3@@2@U?$less@H@2@V?$allocator@PAVCOLMReferer@@@2@@std@@_N@2@ABU?$pair@$$CBHPAVCOLMReferer@@@2@@Z 00404adc f i SDOMArchive.obj
 0001:00003b7a       ?erase@?$_Tree@HU?$pair@$$CBHPAVCOLMReferer@@@std@@U_Kfn@?$multimap@HPAVCOLMReferer@@U?$less@H@std@@V?$allocator@PAVCOLMReferer@@@3@@2@U?$less@H@2@V?$allocator@PAVCOLMReferer@@@2@@std@@QAE?AViterator@12@V312@@Z 00404b7a f i SDOMArchive.obj
 0001:00003e11       ?erase@?$_Tree@HU?$pair@$$CBHPAVCOLMObject@@@std@@U_Kfn@?$map@HPAVCOLMObject@@U?$less@H@std@@V?$allocator@PAVCOLMObject@@@3@@2@U?$less@H@2@V?$allocator@PAVCOLMObject@@@2@@std@@QAE?AViterator@12@V312@@Z 00404e11 f i SDOMArchive.obj
 0001:000040a8       ?_Erase@?$_Tree@HU?$pair@$$CBHPAVCOLMObject@@@std@@U_Kfn@?$map@HPAVCOLMObject@@U?$less@H@std@@V?$allocator@PAVCOLMObject@@@3@@2@U?$less@H@2@V?$allocator@PAVCOLMObject@@@2@@std@@IAEXPAU_Node@12@@Z 004050a8 f i SDOMArchive.obj
 0001:000040de       ?_Init@?$_Tree@HU?$pair@$$CBHPAVCOLMObject@@@std@@U_Kfn@?$map@HPAVCOLMObject@@U?$less@H@std@@V?$allocator@PAVCOLMObject@@@3@@2@U?$less@H@2@V?$allocator@PAVCOLMObject@@@2@@std@@IAEXXZ 004050de f i SDOMArchive.obj
 0001:00004169       ?_Insert@?$_Tree@HU?$pair@$$CBHPAVCOLMObject@@@std@@U_Kfn@?$map@HPAVCOLMObject@@U?$less@H@std@@V?$allocator@PAVCOLMObject@@@3@@2@U?$less@H@2@V?$allocator@PAVCOLMObject@@@2@@std@@IAE?AViterator@12@PAU_Node@12@0ABU?$pair@$$CBHPAVCOLMObject@@@2@@Z 00405169 f i SDOMArchive.obj
 0001:000042ba       ?_Init@?$_Tree@HU?$pair@$$CBHPAVCOLMReferer@@@std@@U_Kfn@?$multimap@HPAVCOLMReferer@@U?$less@H@std@@V?$allocator@PAVCOLMReferer@@@3@@2@U?$less@H@2@V?$allocator@PAVCOLMReferer@@@2@@std@@IAEXXZ 004052ba f i SDOMArchive.obj
 0001:00004345       ?_Insert@?$_Tree@HU?$pair@$$CBHPAVCOLMReferer@@@std@@U_Kfn@?$multimap@HPAVCOLMReferer@@U?$less@H@std@@V?$allocator@PAVCOLMReferer@@@3@@2@U?$less@H@2@V?$allocator@PAVCOLMReferer@@@2@@std@@IAE?AViterator@12@PAU_Node@12@0ABU?$pair@$$CBHPAVCOLMReferer@@@2@@Z 00405345 f i SDOMArchive.obj
 0001:00004496       ?_Lbound@?$_Tree@HU?$pair@$$CBHPAVCOLMReferer@@@std@@U_Kfn@?$multimap@HPAVCOLMReferer@@U?$less@H@std@@V?$allocator@PAVCOLMReferer@@@3@@2@U?$less@H@2@V?$allocator@PAVCOLMReferer@@@2@@std@@IBEPAU_Node@12@ABH@Z 00405496 f i SDOMArchive.obj
 0001:000044c3       ?_Lrotate@?$_Tree@HU?$pair@$$CBHPAVCOLMReferer@@@std@@U_Kfn@?$multimap@HPAVCOLMReferer@@U?$less@H@std@@V?$allocator@PAVCOLMReferer@@@3@@2@U?$less@H@2@V?$allocator@PAVCOLMReferer@@@2@@std@@IAEXPAU_Node@12@@Z 004054c3 f i SDOMArchive.obj
 0001:00004507       ?_Rrotate@?$_Tree@HU?$pair@$$CBHPAVCOLMReferer@@@std@@U_Kfn@?$multimap@HPAVCOLMReferer@@U?$less@H@std@@V?$allocator@PAVCOLMReferer@@@3@@2@U?$less@H@2@V?$allocator@PAVCOLMReferer@@@2@@std@@IAEXPAU_Node@12@@Z 00405507 f i SDOMArchive.obj
 0001:0000454d       ?_Ubound@?$_Tree@HU?$pair@$$CBHPAVCOLMReferer@@@std@@U_Kfn@?$multimap@HPAVCOLMReferer@@U?$less@H@std@@V?$allocator@PAVCOLMReferer@@@3@@2@U?$less@H@2@V?$allocator@PAVCOLMReferer@@@2@@std@@IBEPAU_Node@12@ABH@Z 0040554d f i SDOMArchive.obj
 0001:0000457a       ?_Inc@const_iterator@?$_Tree@HU?$pair@$$CBHPAVCOLMReferer@@@std@@U_Kfn@?$multimap@HPAVCOLMReferer@@U?$less@H@std@@V?$allocator@PAVCOLMReferer@@@3@@2@U?$less@H@2@V?$allocator@PAVCOLMReferer@@@2@@std@@QAEXXZ 0040557a f i SDOMArchive.obj
 0001:000045b0       ?_Lbound@?$_Tree@HU?$pair@$$CBHPAVCOLMObject@@@std@@U_Kfn@?$map@HPAVCOLMObject@@U?$less@H@std@@V?$allocator@PAVCOLMObject@@@3@@2@U?$less@H@2@V?$allocator@PAVCOLMObject@@@2@@std@@IBEPAU_Node@12@ABH@Z 004055b0 f i SDOMArchive.obj
 0001:000045dd       ?_Lrotate@?$_Tree@HU?$pair@$$CBHPAVCOLMObject@@@std@@U_Kfn@?$map@HPAVCOLMObject@@U?$less@H@std@@V?$allocator@PAVCOLMObject@@@3@@2@U?$less@H@2@V?$allocator@PAVCOLMObject@@@2@@std@@IAEXPAU_Node@12@@Z 004055dd f i SDOMArchive.obj
 0001:00004621       ?_Rrotate@?$_Tree@HU?$pair@$$CBHPAVCOLMObject@@@std@@U_Kfn@?$map@HPAVCOLMObject@@U?$less@H@std@@V?$allocator@PAVCOLMObject@@@3@@2@U?$less@H@2@V?$allocator@PAVCOLMObject@@@2@@std@@IAEXPAU_Node@12@@Z 00405621 f i SDOMArchive.obj
 0001:00004667       ?_Dec@const_iterator@?$_Tree@HU?$pair@$$CBHPAVCOLMObject@@@std@@U_Kfn@?$map@HPAVCOLMObject@@U?$less@H@std@@V?$allocator@PAVCOLMObject@@@3@@2@U?$less@H@2@V?$allocator@PAVCOLMObject@@@2@@std@@QAEXXZ 00405667 f i SDOMArchive.obj
 0001:000046a3       ?_Dec@const_iterator@?$_Tree@HU?$pair@$$CBHPAVCOLMReferer@@@std@@U_Kfn@?$multimap@HPAVCOLMReferer@@U?$less@H@std@@V?$allocator@PAVCOLMReferer@@@3@@2@U?$less@H@2@V?$allocator@PAVCOLMReferer@@@2@@std@@QAEXXZ 004056a3 f i SDOMArchive.obj
 0001:000046df       ?_Inc@const_iterator@?$_Tree@HU?$pair@$$CBHPAVCOLMObject@@@std@@U_Kfn@?$map@HPAVCOLMObject@@U?$less@H@std@@V?$allocator@PAVCOLMObject@@@3@@2@U?$less@H@2@V?$allocator@PAVCOLMObject@@@2@@std@@QAEXXZ 004056df f i SDOMArchive.obj
 0001:00004715       ?SerializeNumber@@YAXPAVSDOMArchive@@PBGAAH@Z 00405715 f i SDOMArchive.obj
 0001:000047d7       ?SerializeNumber@@YAXPAVSDOMArchive@@PBGAAI@Z 004057d7 f i SDOMArchive.obj
 0001:00004864       ?SerializeNumber@@YAXPAVSDOMArchive@@PBGAAJ@Z 00405864 f i SDOMArchive.obj
 0001:00004926       ?SerializeNumber@@YAXPAVSDOMArchive@@PBGAAN@Z 00405926 f i SDOMArchive.obj
 0001:00004a09       ?_Construct@std@@YAXPAU?$pair@$$CBHPAVDOMNode@xercesc_2_2@@@1@ABU21@@Z 00405a09 f i SDOMArchive.obj
 0001:00004a09       ?_Construct@std@@YAXPAU?$pair@$$CBHPAVCOLMObject@@@1@ABU21@@Z 00405a09 f i SDOMArchive.obj
 0001:00004a09       ?_Construct@std@@YAXPAU?$pair@$$CBHH@1@ABU21@@Z 00405a09 f i SDOMArchive.obj
 0001:00004a09       ?_Construct@std@@YAXPAU?$pair@$$CBKH@1@ABU21@@Z 00405a09 f i SDOMArchive.obj
 0001:00004a09       ?_Construct@std@@YAXPAU?$pair@QBVBuildable@@H@1@ABU21@@Z 00405a09 f i SDOMArchive.obj
 0001:00004a09       ?_Construct@std@@YAXPAU?$pair@$$CBHPAVCOLMReferer@@@1@ABU21@@Z 00405a09 f i SDOMArchive.obj
 0001:00004a20       ?cast_to_string@@YA?AVCString@@H@Z 00405a20 f i SDOMArchive.obj
 0001:00004a7e       ?cast_to_string@@YA?AVCString@@I@Z 00405a7e f i SDOMArchive.obj
 0001:00004adc       ?cast_to_string@@YA?AVCString@@J@Z 00405adc f i SDOMArchive.obj
 0001:00004b3a       ??0SDOMBuffer@@QAE@XZ      00405b3a f   SDOMBuffer.obj
 0001:00004b50       ??_GSDOMBuffer@@UAEPAXI@Z  00405b50 f i SDOMBuffer.obj
 0001:00004b50       ??_ESDOMBuffer@@UAEPAXI@Z  00405b50 f i SDOMBuffer.obj
 0001:00004b6c       ??4SDOMBuffer@@QAEAAV0@ABV0@@Z 00405b6c f   SDOMBuffer.obj
 0001:00004b7e       ?CopyFrom@SDOMBuffer@@AAEXABV1@@Z 00405b7e f   SDOMBuffer.obj
 0001:00004b8a       ??1SDOMBuffer@@UAE@XZ      00405b8a f   SDOMBuffer.obj
 0001:00004b95       ?bin2hex@SDOMBuffer@@QBE?AVCString@@XZ 00405b95 f   SDOMBuffer.obj
 0001:00004c18       ?hex2bin@SDOMBuffer@@QAEXPBD@Z 00405c18 f   SDOMBuffer.obj
 0001:00004c7d       ?Exists@SDOMEnumType@@QBEHPBD@Z 00405c7d f   SDOMEnum.obj
 0001:00004cd5       ?Value2Name@SDOMEnumType@@QBEPBDH@Z 00405cd5 f   SDOMEnum.obj
 0001:00004ce4       ?Name2Value@SDOMEnumType@@QBEHPBD@Z 00405ce4 f   SDOMEnum.obj
 0001:00004d2b       ?Define@SDOMEnumType@@AAEXHPBD@Z 00405d2b f   SDOMEnum.obj
 0001:00004d86       ??0SDOMEnumTypeItem@@QAE@ABVSDOMEnumType@@HPBD@Z 00405d86 f   SDOMEnum.obj
 0001:00004da0       ??A?$map@VCString@@HU?$less@VCString@@@std@@V?$allocator@H@3@@std@@QAEAAHABVCString@@@Z 00405da0 f i SDOMEnum.obj
 0001:00004df3       ??1TextCharState@@QAE@XZ   00405df3 f i SDOMEnum.obj
 0001:00004df3       ??1?$pair@$$CBVCString@@H@std@@QAE@XZ 00405df3 f i SDOMEnum.obj
 0001:00004df8       ?find@?$_Tree@VCString@@U?$pair@$$CBVCString@@H@std@@U_Kfn@?$map@VCString@@HU?$less@VCString@@@std@@V?$allocator@H@3@@3@U?$less@VCString@@@3@V?$allocator@H@3@@std@@QBE?AVconst_iterator@12@ABVCString@@@Z 00405df8 f i SDOMEnum.obj
 0001:00004e3f       ?insert@?$_Tree@VCString@@U?$pair@$$CBVCString@@H@std@@U_Kfn@?$map@VCString@@HU?$less@VCString@@@std@@V?$allocator@H@3@@3@U?$less@VCString@@@3@V?$allocator@H@3@@std@@QAE?AU?$pair@Viterator@?$_Tree@VCString@@U?$pair@$$CBVCString@@H@std@@U_Kfn@?$map@VCString@@HU?$less@VCString@@@std@@V?$allocator@H@3@@3@U?$less@VCString@@@3@V?$allocator@H@3@@std@@_N@2@ABU?$pair@$$CBVCString@@H@2@@Z 00405e3f f i SDOMEnum.obj
 0001:00004efd       ?_Insert@?$_Tree@VCString@@U?$pair@$$CBVCString@@H@std@@U_Kfn@?$map@VCString@@HU?$less@VCString@@@std@@V?$allocator@H@3@@3@U?$less@VCString@@@3@V?$allocator@H@3@@std@@IAE?AViterator@12@PAU_Node@12@0ABU?$pair@$$CBVCString@@H@2@@Z 00405efd f i SDOMEnum.obj
 0001:0000505a       ?_Lbound@?$_Tree@VCString@@U?$pair@$$CBVCString@@H@std@@U_Kfn@?$map@VCString@@HU?$less@VCString@@@std@@V?$allocator@H@3@@3@U?$less@VCString@@@3@V?$allocator@H@3@@std@@IBEPAU_Node@12@ABVCString@@@Z 0040605a f i SDOMEnum.obj
 0001:00005095       ?_Lrotate@?$_Tree@VCString@@U?$pair@$$CBVCString@@H@std@@U_Kfn@?$map@VCString@@HU?$less@VCString@@@std@@V?$allocator@H@3@@3@U?$less@VCString@@@3@V?$allocator@H@3@@std@@IAEXPAU_Node@12@@Z 00406095 f i SDOMEnum.obj
 0001:000050d9       ?_Rrotate@?$_Tree@VCString@@U?$pair@$$CBVCString@@H@std@@U_Kfn@?$map@VCString@@HU?$less@VCString@@@std@@V?$allocator@H@3@@3@U?$less@VCString@@@3@V?$allocator@H@3@@std@@IAEXPAU_Node@12@@Z 004060d9 f i SDOMEnum.obj
 0001:0000511f       ?_Dec@const_iterator@?$_Tree@VCString@@U?$pair@$$CBVCString@@H@std@@U_Kfn@?$map@VCString@@HU?$less@VCString@@@std@@V?$allocator@H@3@@3@U?$less@VCString@@@3@V?$allocator@H@3@@std@@QAEXXZ 0040611f f i SDOMEnum.obj
 0001:0000515b       ?_Construct@std@@YAXPAU?$pair@$$CBVCString@@H@1@ABU21@@Z 0040615b f i SDOMEnum.obj
 0001:00005195       ?throwException@SDOMException@@SAXH@Z 00406195 f   SDOMException.obj
 0001:000051b5       ??0SDOMException@@AAE@XZ   004061b5 f   SDOMException.obj
 0001:00005204       ?Write@SDOMWriter@@QAEXPAVCFile@@PAVDOMDocument@xercesc_2_2@@@Z 00406204 f   SDOMWriter.obj
 0001:00005369       ??_GMemBufFormatTarget@xercesc_2_2@@UAEPAXI@Z 00406369 f i SDOMWriter.obj
 0001:00005369       ??_EMemBufFormatTarget@xercesc_2_2@@UAEPAXI@Z 00406369 f i SDOMWriter.obj
 0001:00005386       ?Read@Ver3SDOMReader@@UAEPAVDOMDocument@xercesc_2_2@@PAVCFile@@@Z 00406386 f   Ver3SDOMReader.obj
 0001:000054b1       ??1MFCUnserializer@@QAE@XZ 004064b1 f i Ver3SDOMReader.obj
 0001:000054f6       ?CanRead@Ver3SDOMReader@@UAEHPAVCFile@@@Z 004064f6 f   Ver3SDOMReader.obj
 0001:00005541       ?readHeader@Ver3SDOMReader@@AAEXXZ 00406541 f   Ver3SDOMReader.obj
 0001:0000558d       ?readAppliConf@Ver3SDOMReader@@AAEPAVDOMElement@xercesc_2_2@@XZ 0040658d f   Ver3SDOMReader.obj
 0001:000057dd       ?readTypeSafeObject@Ver3SDOMReader@@AAEXPBD@Z 004067dd f   Ver3SDOMReader.obj
 0001:00005840       ?skipOrgFonts@Ver3SDOMReader@@AAEXXZ 00406840 f   Ver3SDOMReader.obj
 0001:000058c8       ?readCharList@Ver3SDOMReader@@AAEPAVDOMElement@xercesc_2_2@@XZ 004068c8 f   Ver3SDOMReader.obj
 0001:00005953       ?readChar@Ver3SDOMReader@@AAEPAVDOMElement@xercesc_2_2@@XZ 00406953 f   Ver3SDOMReader.obj
 0001:00005ba7       ?testBit@@YAHKH@Z          00406ba7 f   Ver3SDOMReader.obj
 0001:00005bbb       ?readBtnChar@Ver3SDOMReader@@AAEPAVDOMElement@xercesc_2_2@@H@Z 00406bbb f   Ver3SDOMReader.obj
 0001:00006145       ?readTextChar@Ver3SDOMReader@@AAEPAVDOMElement@xercesc_2_2@@H@Z 00407145 f   Ver3SDOMReader.obj
 0001:00006367       ?readShapeChar@Ver3SDOMReader@@AAEPAVDOMElement@xercesc_2_2@@H@Z 00407367 f   Ver3SDOMReader.obj
 0001:000064a7       ?readSndChar@Ver3SDOMReader@@AAEPAVDOMElement@xercesc_2_2@@H@Z 004074a7 f   Ver3SDOMReader.obj
 0001:0000650a       ?readBuffer@Ver3SDOMReader@@AAEPAVDOMElement@xercesc_2_2@@PBGPAVSDOMBuffer@@@Z 0040750a f   Ver3SDOMReader.obj
 0001:00006668       ?name_act_type@@YAPBGH@Z   00407668 f   Ver3SDOMReader.obj
 0001:000066d3       ?readPictPaththrough@Ver3SDOMReader@@AAEXPAVDOMElement@xercesc_2_2@@@Z 004076d3 f   Ver3SDOMReader.obj
 0001:00006d47       ?readPictJpeg@Ver3SDOMReader@@AAEXPAVDOMElement@xercesc_2_2@@@Z 00407d47 f   Ver3SDOMReader.obj
 0001:00006e86       ?readPictGif2Png@Ver3SDOMReader@@AAEXPAVDOMElement@xercesc_2_2@@@Z 00407e86 f   Ver3SDOMReader.obj
 0001:000070b7       ?readPictChar@Ver3SDOMReader@@AAEPAVDOMElement@xercesc_2_2@@H@Z 004080b7 f   Ver3SDOMReader.obj
 0001:000071a5       ?readPalette@Ver3SDOMReader@@AAEPAVDOMElement@xercesc_2_2@@XZ 004081a5 f   Ver3SDOMReader.obj
 0001:00007282       ?readActions@Ver3SDOMReader@@AAEPAVDOMElement@xercesc_2_2@@H@Z 00408282 f   Ver3SDOMReader.obj
 0001:0000790a       ?readLabel@Ver3SDOMReader@@AAEPAVDOMElement@xercesc_2_2@@XZ 0040890a f   Ver3SDOMReader.obj
 0001:00007a88       ?readKeyFrameLabel@Ver3SDOMReader@@AAEPAVDOMElement@xercesc_2_2@@H@Z 00408a88 f   Ver3SDOMReader.obj
 0001:00007bc0       ?readMainStage@Ver3SDOMReader@@AAEPAVDOMElement@xercesc_2_2@@H@Z 00408bc0 f   Ver3SDOMReader.obj
 0001:00007c8a       ?readSubStages@Ver3SDOMReader@@AAEPAVDOMElement@xercesc_2_2@@XZ 00408c8a f   Ver3SDOMReader.obj
 0001:00007d33       ?readSubStage@Ver3SDOMReader@@AAEPAVDOMElement@xercesc_2_2@@H@Z 00408d33 f   Ver3SDOMReader.obj
 0001:00007e3d       ?readStage@Ver3SDOMReader@@AAEXPAVDOMElement@xercesc_2_2@@H@Z 00408e3d f   Ver3SDOMReader.obj
 0001:00007f05       ?readLayer@Ver3SDOMReader@@AAEPAVDOMElement@xercesc_2_2@@XZ 00408f05 f   Ver3SDOMReader.obj
 0001:00008371       ?readPlacing@Ver3SDOMReader@@AAEPAVDOMElement@xercesc_2_2@@XZ 00409371 f   Ver3SDOMReader.obj
 0001:00008476       ?readColoring@Ver3SDOMReader@@AAEPAVDOMElement@xercesc_2_2@@XZ 00409476 f   Ver3SDOMReader.obj
 0001:00008591       ?readAnimating@Ver3SDOMReader@@AAEPAVDOMElement@xercesc_2_2@@XZ 00409591 f   Ver3SDOMReader.obj
 0001:00008649       ?appendString@Ver3SDOMReader@@AAEXPAVDOMNode@xercesc_2_2@@PBG1@Z 00409649 f   Ver3SDOMReader.obj
 0001:000086d5       ?appendString@Ver3SDOMReader@@AAEXPAVDOMNode@xercesc_2_2@@PBGPBD@Z 004096d5 f   Ver3SDOMReader.obj
 0001:0000871f       ?appendColor@Ver3SDOMReader@@AAEXPAVDOMNode@xercesc_2_2@@PBGK@Z 0040971f f   Ver3SDOMReader.obj
 0001:00008778       ?appendSize@Ver3SDOMReader@@AAEXPAVDOMNode@xercesc_2_2@@PBGUtagSIZE@@@Z 00409778 f   Ver3SDOMReader.obj
 0001:000087bd       ?appendPoint@Ver3SDOMReader@@AAEXPAVDOMNode@xercesc_2_2@@PBGUtagPOINT@@@Z 004097bd f   Ver3SDOMReader.obj
 0001:00008802       ?appendInt@Ver3SDOMReader@@AAEXPAVDOMNode@xercesc_2_2@@PBGH@Z 00409802 f   Ver3SDOMReader.obj
 0001:0000885b       ?appendDouble@Ver3SDOMReader@@AAEXPAVDOMNode@xercesc_2_2@@PBGN@Z 0040985b f   Ver3SDOMReader.obj
 0001:000088b9       ?appendBoolean@Ver3SDOMReader@@AAEXPAVDOMNode@xercesc_2_2@@PBGH@Z 004098b9 f   Ver3SDOMReader.obj
 0001:000088db       ?appendNullData@Ver3SDOMReader@@AAEXPAVDOMNode@xercesc_2_2@@PBG@Z 004098db f   Ver3SDOMReader.obj
 0001:000088f0       ?skipBuffer@Ver3SDOMReader@@AAEXXZ 004098f0 f   Ver3SDOMReader.obj
 0001:00008911       ?appendIDREF@Ver3SDOMReader@@AAEXPAVDOMNode@xercesc_2_2@@PBG0@Z 00409911 f   Ver3SDOMReader.obj
 0001:000089e6       ?setAttID@Ver3SDOMReader@@AAEXPAVDOMElement@xercesc_2_2@@H@Z 004099e6 f   Ver3SDOMReader.obj
 0001:00008a60       ?skipRGB@Ver3SDOMReader@@AAEXXZ 00409a60 f   Ver3SDOMReader.obj
 0001:00008a8e       ?skipFPOINT@Ver3SDOMReader@@AAEXXZ 00409a8e f   Ver3SDOMReader.obj
 0001:00008ab1       ?insertString@Ver3SDOMReader@@AAEXPAVDOMNode@xercesc_2_2@@PBGPBD@Z 00409ab1 f   Ver3SDOMReader.obj
 0001:00008b76       ?cast_bool@Ver3SDOMReaderImpl@@YAHH@Z 00409b76 f   Ver3SDOMReader.obj
 0001:00008b80       ?IsVer3@Ver3SDOMReaderImpl@@YAHAAUSERIALIZE_CONTEXT@1@@Z 00409b80 f   Ver3SDOMReader.obj
 0001:00008b9b       ?IsLeadJpeg@Ver3SDOMReaderImpl@@YAHH@Z 00409b9b f   Ver3SDOMReader.obj
 0001:00008b9b       ?IsLeadJpeg@PictCharImpl@@YAHH@Z 00409b9b f   Ver3SDOMReader.obj
 0001:00008bb5       ??1?$_Tree@HU?$pair@$$CBHPAVDOMNode@xercesc_2_2@@@std@@U_Kfn@?$map@HPAVDOMNode@xercesc_2_2@@U?$less@H@std@@V?$allocator@PAVDOMNode@xercesc_2_2@@@4@@2@U?$less@H@2@V?$allocator@PAVDOMNode@xercesc_2_2@@@2@@std@@QAE@XZ 00409bb5 f i Ver3SDOMReader.obj
 0001:00008c16       ??4?$DOMNodeP@VDOMDocument@xercesc_2_2@@@@QAEAAV0@ABV0@@Z 00409c16 f i Ver3SDOMReader.obj
 0001:00008c55       ??1?$DOMNodeP@VDOMDocument@xercesc_2_2@@@@QAE@XZ 00409c55 f i Ver3SDOMReader.obj
 0001:00008c6a       ??4?$auto_ptr@VDOMDocument@xercesc_2_2@@@std@@QAEAAV01@ABV01@@Z 00409c6a f i Ver3SDOMReader.obj
 0001:00008c6a       ??4?$auto_ptr@VMemBufInputSource@xercesc_2_2@@@std@@QAEAAV01@ABV01@@Z 00409c6a f i Ver3SDOMReader.obj
 0001:00008c6a       ??4?$auto_ptr@VXercesDOMParser@xercesc_2_2@@@std@@QAEAAV01@ABV01@@Z 00409c6a f i Ver3SDOMReader.obj
 0001:00008c6a       ??4?$auto_ptr@VErrorReporter@@@std@@QAEAAV01@ABV01@@Z 00409c6a f i Ver3SDOMReader.obj
 0001:00008c6a       ??4?$auto_ptr@VCCharDrawer@@@std@@QAEAAV01@ABV01@@Z 00409c6a f i Ver3SDOMReader.obj
 0001:00008c6a       ??4?$auto_ptr@VMemBufFormatTarget@xercesc_2_2@@@std@@QAEAAV01@ABV01@@Z 00409c6a f i Ver3SDOMReader.obj
 0001:00008c6a       ??4?$auto_ptr@VDOMWriter@xercesc_2_2@@@std@@QAEAAV01@ABV01@@Z 00409c6a f i Ver3SDOMReader.obj
 0001:00008c6a       ??4?$auto_ptr@VSDOMBuffer@@@std@@QAEAAV01@ABV01@@Z 00409c6a f i Ver3SDOMReader.obj
 0001:00008cab       ??1?$DOMNodeP@VDOMNode@xercesc_2_2@@@@QAE@XZ 00409cab f i Ver3SDOMReader.obj
 0001:00008cab       ??1?$DOMNodeP@VDOMElement@xercesc_2_2@@@@QAE@XZ 00409cab f i Ver3SDOMReader.obj
 0001:00008cab       ??1?$DOMNodeP@VDOMText@xercesc_2_2@@@@QAE@XZ 00409cab f i Ver3SDOMReader.obj
 0001:00008cbc       ?erase@?$_Tree@HU?$pair@$$CBHPAVDOMNode@xercesc_2_2@@@std@@U_Kfn@?$map@HPAVDOMNode@xercesc_2_2@@U?$less@H@std@@V?$allocator@PAVDOMNode@xercesc_2_2@@@4@@2@U?$less@H@2@V?$allocator@PAVDOMNode@xercesc_2_2@@@2@@std@@QAE?AViterator@12@V312@0@Z 00409cbc f i Ver3SDOMReader.obj
 0001:00008d53       ?erase@?$_Tree@HU?$pair@$$CBHPAVDOMNode@xercesc_2_2@@@std@@U_Kfn@?$map@HPAVDOMNode@xercesc_2_2@@U?$less@H@std@@V?$allocator@PAVDOMNode@xercesc_2_2@@@4@@2@U?$less@H@2@V?$allocator@PAVDOMNode@xercesc_2_2@@@2@@std@@QAE?AViterator@12@V312@@Z 00409d53 f i Ver3SDOMReader.obj
 0001:00008fea       ?_Erase@?$_Tree@HU?$pair@$$CBHPAVDOMNode@xercesc_2_2@@@std@@U_Kfn@?$map@HPAVDOMNode@xercesc_2_2@@U?$less@H@std@@V?$allocator@PAVDOMNode@xercesc_2_2@@@4@@2@U?$less@H@2@V?$allocator@PAVDOMNode@xercesc_2_2@@@2@@std@@IAEXPAU_Node@12@@Z 00409fea f i Ver3SDOMReader.obj
 0001:00009020       ?_Inc@const_iterator@?$_Tree@HU?$pair@$$CBHPAVDOMNode@xercesc_2_2@@@std@@U_Kfn@?$map@HPAVDOMNode@xercesc_2_2@@U?$less@H@std@@V?$allocator@PAVDOMNode@xercesc_2_2@@@4@@2@U?$less@H@2@V?$allocator@PAVDOMNode@xercesc_2_2@@@2@@std@@QAEXXZ 0040a020 f i Ver3SDOMReader.obj
 0001:00009056       ?SetSize@?$CArray@KAAK@@QAEXHH@Z 0040a056 f i Ver3SDOMReader.obj
 0001:00009056       ?SetSize@?$CArray@IAAI@@QAEXHH@Z 0040a056 f i Ver3SDOMReader.obj
 0001:00009163       ??1?$CArray@KAAK@@UAE@XZ   0040a163 f i Ver3SDOMReader.obj
 0001:00009182       ??_G?$CArray@KAAK@@UAEPAXI@Z 0040a182 f i Ver3SDOMReader.obj
 0001:00009182       ??_E?$CArray@KAAK@@UAEPAXI@Z 0040a182 f i Ver3SDOMReader.obj
 0001:0000919e       ?Read@VerJ3SDOMReader@@UAEPAVDOMDocument@xercesc_2_2@@PAVCFile@@@Z 0040a19e f   VerJ3SDOMReader.obj
 0001:00009387       ??_EXercesDOMParser@xercesc_2_2@@UAEPAXI@Z 0040a387 f i VerJ3SDOMReader.obj
 0001:00009387       ??_GXercesDOMParser@xercesc_2_2@@UAEPAXI@Z 0040a387 f i VerJ3SDOMReader.obj
 0001:000093a4       ?newMemBufInputSource@@YAPAVMemBufInputSource@xercesc_2_2@@PAVCFile@@@Z 0040a3a4 f   VerJ3SDOMReader.obj
 0001:0000944f       ??_GMemBufInputSource@xercesc_2_2@@UAEPAXI@Z 0040a44f f i VerJ3SDOMReader.obj
 0001:0000944f       ??_EMemBufInputSource@xercesc_2_2@@UAEPAXI@Z 0040a44f f i VerJ3SDOMReader.obj
 0001:0000946c       ??0ErrorReporter@@QAE@XZ   0040a46c f   VerJ3SDOMReader.obj
 0001:00009479       ??_EErrorReporter@@UAEPAXI@Z 0040a479 f i VerJ3SDOMReader.obj
 0001:00009479       ??_GErrorReporter@@UAEPAXI@Z 0040a479 f i VerJ3SDOMReader.obj
 0001:00009495       ??1ErrorReporter@@UAE@XZ   0040a495 f   VerJ3SDOMReader.obj
 0001:000094a3       ?error@ErrorReporter@@UAEXABVSAXParseException@xercesc_2_2@@@Z 0040a4a3 f   VerJ3SDOMReader.obj
 0001:000094a3       ?fatalError@ErrorReporter@@UAEXABVSAXParseException@xercesc_2_2@@@Z 0040a4a3 f   VerJ3SDOMReader.obj
 0001:000094ad       ??_EXercesDOMParser@xercesc_2_2@@W3AEPAXI@Z 0040a4ad f i VerJ3SDOMReader.obj
 0001:000094b5       ??_EXercesDOMParser@xercesc_2_2@@W7AEPAXI@Z 0040a4b5 f i VerJ3SDOMReader.obj
 0001:000094bd       ??_EXercesDOMParser@xercesc_2_2@@WM@AEPAXI@Z 0040a4bd f i VerJ3SDOMReader.obj
 0001:00009522       ?IsValidCriteria@JphoneScheduleEvent@@SAHPBD@Z 0040a522 f   BtnChar.obj
 0001:00009522       ?IsValidCriteria@JphoneTelEvent@@SAHPBD@Z 0040a522 f   BtnChar.obj
 0001:00009537       ?Serialize@KeyEvent@@UAEXPAVSDOMArchive@@@Z 0040a537 f   BtnChar.obj
 0001:00009687       ?Serialize@JphoneMailEvent@@UAEXPAVSDOMArchive@@@Z 0040a687 f   BtnChar.obj
 0001:0000971c       ?Serialize@JphoneScheduleEvent@@UAEXPAVSDOMArchive@@@Z 0040a71c f   BtnChar.obj
 0001:0000975c       ?Serialize@JphoneTelEvent@@UAEXPAVSDOMArchive@@@Z 0040a75c f   BtnChar.obj
 0001:0000979c       ??0BtnCharState@@QAE@XZ    0040a79c f   BtnChar.obj
 0001:00009869       ??1?$TOLMReferer@VLabel@@@@UAE@XZ 0040a869 f i BtnChar.obj
 0001:00009869       ??1CHARVIEW@AppliFrameWnd@@QAE@XZ 0040a869 f i BtnChar.obj
 0001:00009869       ??1?$TOLMReferer@VChar@@@@UAE@XZ 0040a869 f i BtnChar.obj
 0001:00009869       ??1?$TOLMReferer@VSndChar@@@@UAE@XZ 0040a869 f i BtnChar.obj
 0001:0000986e       ??4BtnCharState@@QAEAAV0@ABV0@@Z 0040a86e f   BtnChar.obj
 0001:00009880       ?CopyFrom@BtnCharState@@AAEXPBV1@@Z 0040a880 f   BtnChar.obj
 0001:00009913       ??4KeyEvent@@QAEAAV0@ABV0@@Z 0040a913 f i BtnChar.obj
 0001:0000998e       ??4JphoneMailEvent@@QAEAAV0@ABV0@@Z 0040a98e f i BtnChar.obj
 0001:000099c7       ??0BtnChar@@QAE@XZ         0040a9c7 f   BtnChar.obj
 0001:00009a1b       ??_GBtnChar@@UAEPAXI@Z     0040aa1b f i BtnChar.obj
 0001:00009a1b       ??_EBtnChar@@UAEPAXI@Z     0040aa1b f i BtnChar.obj
 0001:00009a37       ??1BtnCharState@@QAE@XZ    0040aa37 f i BtnChar.obj
 0001:00009a8d       ??1BtnChar@@UAE@XZ         0040aa8d f i BtnChar.obj
 0001:00009ad4       ??0BtnChar@@AAE@ABV0@@Z    0040aad4 f   BtnChar.obj
 0001:00009b55       ?GetCharType@BtnChar@@EBEABVCharType@@XZ 0040ab55 f   BtnChar.obj
 0001:00009b5b       ?Clone@BtnChar@@EBEPAVChar@@XZ 0040ab5b f   BtnChar.obj
 0001:00009b95       ?GetState@BtnChar@@QBEXPAVBtnCharState@@@Z 0040ab95 f   BtnChar.obj
 0001:00009ba5       ?SetState@BtnChar@@QAEXPBVBtnCharState@@@Z 0040aba5 f   BtnChar.obj
 0001:00009bb4       ?Serialize@BtnChar@@EAEXPAVSDOMArchive@@@Z 0040abb4 f   BtnChar.obj
 0001:00009c56       ?AssertValid@BtnChar@@EBEXXZ 0040ac56 f   BtnChar.obj
 0001:00009c73       ?Build@BtnChar@@EBEXPAVBuilder@@@Z 0040ac73 f   BtnChar.obj
 0001:00009dee       ?SetBit@BtnChar@@CAXAAHHH@Z 0040adee f   BtnChar.obj
 0001:00009e05       ?GetKeyEventBitmap@BtnChar@@ABEHXZ 0040ae05 f   BtnChar.obj
 0001:00009f3e       ?GetJPhoneMailEventBitmap@BtnChar@@ABEHXZ 0040af3e f   BtnChar.obj
 0001:00009fcc       ?DrawPreview@BtnChar@@EBEXPBVCharPreview@@@Z 0040afcc f   BtnChar.obj
 0001:0000a0d4       ?GetBezier@BtnChar@@EBEXAAV?$CArray@V?$CArray@UtagPOINT@@AAU1@@@AAV1@@@@Z 0040b0d4 f   BtnChar.obj
 0001:0000a0f9       ?Draw@BtnChar@@EBEXPAVCDC@@PBVAffineMatrix@@PBVColoring@@@Z 0040b0f9 f   BtnChar.obj
 0001:0000a126       ?GetRect@BtnChar@@EBEXAAVCRect@@@Z 0040b126 f   BtnChar.obj
 0001:0000a157       ??C?$_TOLM@VChar@@VCOLMReferer@@@@QBEPBVChar@@XZ 0040b157 f i BtnChar.obj
 0001:0000a157       ??B?$_TOLM@VChar@@VCOLMReferer@@@@QAEPAVChar@@XZ 0040b157 f i BtnChar.obj
 0001:0000a157       ??B?$_TOLM@VChar@@VCOLMReferer@@@@QBEPBVChar@@XZ 0040b157 f i BtnChar.obj
 0001:0000a174       ??_E?$TOLMReferer@VLabel@@@@UAEPAXI@Z 0040b174 f i BtnChar.obj
 0001:0000a174       ??_G?$TOLMReferer@VSndChar@@@@UAEPAXI@Z 0040b174 f i BtnChar.obj
 0001:0000a174       ??_E?$TOLMReferer@VSndChar@@@@UAEPAXI@Z 0040b174 f i BtnChar.obj
 0001:0000a174       ??_E?$TOLMReferer@VChar@@@@UAEPAXI@Z 0040b174 f i BtnChar.obj
 0001:0000a174       ??_G?$TOLMReferer@VLabel@@@@UAEPAXI@Z 0040b174 f i BtnChar.obj
 0001:0000a174       ??_G?$TOLMReferer@VChar@@@@UAEPAXI@Z 0040b174 f i BtnChar.obj
 0001:0000a190       ??_EBtnChar@@WBE@AEPAXI@Z  0040b190 f i BtnChar.obj
 0001:0000a198       ??3CObject@@SGXPAX@Z       0040b198 f i BtnChar.obj
 0001:0000a1cf       ??1SDOMEnumType@@QAE@XZ    0040b1cf f i Char.obj
 0001:0000a204       ??0SDOMEnumType@@QAE@XZ    0040b204 f i Char.obj
 0001:0000a3bd       ??0CharType@@QAE@PAUCRuntimeClass@@PBDIPBGHHHHHHH@Z 0040b3bd f   Char.obj
 0001:0000a434       ??0Char@@IAE@XZ            0040b434 f   Char.obj
 0001:0000a488       ??_GChar@@UAEPAXI@Z        0040b488 f i Char.obj
 0001:0000a488       ??_EChar@@UAEPAXI@Z        0040b488 f i Char.obj
 0001:0000a4a4       ??0Char@@IAE@ABV0@@Z       0040b4a4 f   Char.obj
 0001:0000a510       ??1Char@@UAE@XZ            0040b510 f   Char.obj
 0001:0000a571       ?Serialize@Char@@UAEXPAVSDOMArchive@@@Z 0040b571 f   Char.obj
 0001:0000a587       ?GetName@Char@@QBE?AVCString@@XZ 0040b587 f   Char.obj
 0001:0000a5a2       ?SetName@Char@@QAEXPBD@Z   0040b5a2 f   Char.obj
 0001:0000a5b1       ?factory@Char@@SAPAVSDOMSerializable@@PBG@Z 0040b5b1 f   Char.obj
 0001:0000a6ac       ?namer@Char@@SAPBGPAVSDOMSerializable@@@Z 0040b6ac f   Char.obj
 0001:0000a6d1       ?GetBezier@Char@@UBEXAAV?$CArray@V?$CArray@UtagPOINT@@AAU1@@@AAV1@@@@Z 0040b6d1 f   Char.obj
 0001:0000a7aa       ?GetInfo@Char@@UBE?AVCString@@XZ 0040b7aa f   Char.obj
 0001:0000a7c6       ?GetLongInfo@Char@@UBE?AVCString@@XZ 0040b7c6 f   Char.obj
 0001:0000a7e2       ??1?$_Tree@VCString@@U?$pair@$$CBVCString@@H@std@@U_Kfn@?$map@VCString@@HU?$less@VCString@@@std@@V?$allocator@H@3@@3@U?$less@VCString@@@3@V?$allocator@H@3@@std@@QAE@XZ 0040b7e2 f i Char.obj
 0001:0000a843       ?erase@?$_Tree@VCString@@U?$pair@$$CBVCString@@H@std@@U_Kfn@?$map@VCString@@HU?$less@VCString@@@std@@V?$allocator@H@3@@3@U?$less@VCString@@@3@V?$allocator@H@3@@std@@QAE?AViterator@12@V312@0@Z 0040b843 f i Char.obj
 0001:0000a8ba       ?erase@?$_Tree@VCString@@U?$pair@$$CBVCString@@H@std@@U_Kfn@?$map@VCString@@HU?$less@VCString@@@std@@V?$allocator@H@3@@3@U?$less@VCString@@@3@V?$allocator@H@3@@std@@QAE?AViterator@12@V312@@Z 0040b8ba f i Char.obj
 0001:0000ab5a       ?_Erase@?$_Tree@VCString@@U?$pair@$$CBVCString@@H@std@@U_Kfn@?$map@VCString@@HU?$less@VCString@@@std@@V?$allocator@H@3@@3@U?$less@VCString@@@3@V?$allocator@H@3@@std@@IAEXPAU_Node@12@@Z 0040bb5a f i Char.obj
 0001:0000ab98       ?_Init@?$_Tree@VCString@@U?$pair@$$CBVCString@@H@std@@U_Kfn@?$map@VCString@@HU?$less@VCString@@@std@@V?$allocator@H@3@@3@U?$less@VCString@@@3@V?$allocator@H@3@@std@@IAEXXZ 0040bb98 f i Char.obj
 0001:0000ac23       ?_Inc@const_iterator@?$_Tree@VCString@@U?$pair@$$CBVCString@@H@std@@U_Kfn@?$map@VCString@@HU?$less@VCString@@@std@@V?$allocator@H@3@@3@U?$less@VCString@@@3@V?$allocator@H@3@@std@@QAEXXZ 0040bc23 f i Char.obj
 0001:0000ac59       ?SetSize@?$CArray@UtagPOINT@@AAU1@@@QAEXHH@Z 0040bc59 f i Char.obj
 0001:0000ad66       ?SetSize@?$CArray@V?$CArray@UtagPOINT@@AAU1@@@AAV1@@@QAEXHH@Z 0040bd66 f i Char.obj
 0001:0000aeb6       ?ConstructElements@@YGXPAV?$CArray@UtagPOINT@@AAU1@@@H@Z 0040beb6 f i Char.obj
 0001:0000af00       ?Serialize@?$CArray@UtagPOINT@@AAU1@@@UAEXAAVCArchive@@@Z 0040bf00 f i Char.obj
 0001:0000af3f       ??_G?$CArray@UtagPOINT@@AAU1@@@UAEPAXI@Z 0040bf3f f i Char.obj
 0001:0000af3f       ??_E?$CArray@UtagPOINT@@AAU1@@@UAEPAXI@Z 0040bf3f f i Char.obj
 0001:0000af5b       ??1?$CArray@UtagPOINT@@AAU1@@@UAE@XZ 0040bf5b f i Char.obj
 0001:0000af7a       ??_EChar@@WBE@AEPAXI@Z     0040bf7a f i Char.obj
 0001:0000b115       ??0CharList@@QAE@XZ        0040c115 f   CharList.obj
 0001:0000b182       ??_ECharList@@UAEPAXI@Z    0040c182 f i CharList.obj
 0001:0000b182       ??_GCharList@@UAEPAXI@Z    0040c182 f i CharList.obj
 0001:0000b19e       ??1CharList@@UAE@XZ        0040c19e f i CharList.obj
 0001:0000b1e5       ?GetCharCount@CharList@@QBEHXZ 0040c1e5 f   CharList.obj
 0001:0000b1e5       ?GetActionCount@ActionList@@QBEHXZ 0040c1e5 f   CharList.obj
 0001:0000b1e5       ?GetSubStageCount@SubStages@@QBEHXZ 0040c1e5 f   CharList.obj
 0001:0000b1ed       ?GetAction@ActionList@@QAEPAVAction@@H@Z 0040c1ed f   CharList.obj
 0001:0000b1ed       ?GetAction@ActionList@@QBEPBVAction@@H@Z 0040c1ed f   CharList.obj
 0001:0000b1ed       ?GetChar@CharList@@QAEPAVChar@@H@Z 0040c1ed f   CharList.obj
 0001:0000b1ed       ?GetChar@CharList@@QBEPBVChar@@H@Z 0040c1ed f   CharList.obj
 0001:0000b1fc       ?Build@CharList@@UBEXPAVBuilder@@@Z 0040c1fc f   CharList.obj
 0001:0000b2d5       ?Data2Ole_CF_CHARS@CharList@@QBEPAXPAVSpicydogDoc@@ABV?$list@PAVChar@@V?$allocator@PAVChar@@@std@@@std@@@Z 0040c2d5 f   CharList.obj
 0001:0000b3a2       ?OleIsSupported@CharList@@QBEHPAVCOleDataObject@@@Z 0040c3a2 f   CharList.obj
 0001:0000b3ec       ?AcceptOle@CharList@@QAEHPAVSpicydogDoc@@PAVCOleDataObject@@HKVCPoint@@@Z 0040c3ec f   CharList.obj
 0001:0000b538       ?Ole2Data_CF_TEXT@CharList@@QBEPAVChar@@PAXPAVCOleDataObject@@@Z 0040c538 f   CharList.obj
 0001:0000b5ad       ?GetColorCountFromBitmapInfoHeader@@YAKABUtagBITMAPINFOHEADER@@@Z 0040c5ad f   CharList.obj
 0001:0000b5ec       ?GetPaletteSizeFromBitmapInfoHeader@@YAKABUtagBITMAPINFOHEADER@@@Z 0040c5ec f   CharList.obj
 0001:0000b606       ?CreateDIBSectionFromDIB@@YAPAUHBITMAP__@@PAX@Z 0040c606 f   CharList.obj
 0001:0000b6dc       ??1AFX_EXCEPTION_LINK@@QAE@XZ 0040c6dc f i CharList.obj
 0001:0000b6e1       ?Ole2Data_CF_DIB@CharList@@QBEPAVChar@@PAXPAVCOleDataObject@@@Z 0040c6e1 f   CharList.obj
 0001:0000b6fc       ?Ole2Data_CF_BITMAP@CharList@@QBEPAVChar@@PAXPAVCOleDataObject@@@Z 0040c6fc f   CharList.obj
 0001:0000b72d       ?Serialize@?$TOLMOwners@VChar@@$00@@UAEXPAVSDOMArchive@@@Z 0040c72d f i CharList.obj
 0001:0000b748       ??_ECharList@@W3AEPAXI@Z   0040c748 f i CharList.obj
 0001:0000b8e3       ??0PictData@@QAE@XZ        0040c8e3 f   PictChar.obj
 0001:0000b919       ??0PictData@@QAE@ABV0@@Z   0040c919 f   PictChar.obj
 0001:0000b95f       ??4PictData@@QAEAAV0@ABV0@@Z 0040c95f f   PictChar.obj
 0001:0000b971       ?CopyFrom@PictData@@AAEXABV1@@Z 0040c971 f   PictChar.obj
 0001:0000b9c8       ?Init@PictQuantizeParam@@AAEXXZ 0040c9c8 f   PictChar.obj
 0001:0000ba0f       ??0PictQuantizeParam@@QAE@XZ 0040ca0f f   PictChar.obj
 0001:0000ba42       ??0PictQuantizeParam@@QAE@ABV0@@Z 0040ca42 f   PictChar.obj
 0001:0000ba81       ??4PictQuantizeParam@@QAEAAV0@ABV0@@Z 0040ca81 f   PictChar.obj
 0001:0000ba9a       ?CopyFrom@PictQuantizeParam@@AAEXABV1@@Z 0040ca9a f   PictChar.obj
 0001:0000bafd       ??0PictOptCache@@QAE@XZ    0040cafd f   PictChar.obj
 0001:0000bb41       ?Init@PictOptCache@@AAEXXZ 0040cb41 f   PictChar.obj
 0001:0000bc07       ??0PictChar@@QAE@XZ        0040cc07 f   PictChar.obj
 0001:0000bc74       ??_GPictChar@@UAEPAXI@Z    0040cc74 f i PictChar.obj
 0001:0000bc74       ??_EPictChar@@UAEPAXI@Z    0040cc74 f i PictChar.obj
 0001:0000bc90       ??1PictData@@QAE@XZ        0040cc90 f i PictChar.obj
 0001:0000bcca       ??1PictQuantizeParam@@QAE@XZ 0040ccca f i PictChar.obj
 0001:0000bcd2       ??1PictChar@@UAE@XZ        0040ccd2 f i PictChar.obj
 0001:0000bd53       ??0PictChar@@AAE@ABV0@@Z   0040cd53 f   PictChar.obj
 0001:0000bdf5       ??1PictOptCache@@QAE@XZ    0040cdf5 f i PictChar.obj
 0001:0000be30       ?GetCharType@PictChar@@EBEABVCharType@@XZ 0040ce30 f   PictChar.obj
 0001:0000be36       ?Clone@PictChar@@UBEPAVChar@@XZ 0040ce36 f   PictChar.obj
 0001:0000be70       ?newPictChar@PictChar@@CAPAV1@ABVPictData@@ABVPictQuantizeParam@@@Z 0040ce70 f   PictChar.obj
 0001:0000bf0b       ?newPaste@PictChar@@SAPAV1@PAUHBITMAP__@@PAUHPALETTE__@@@Z 0040cf0b f   PictChar.obj
 0001:0000c0f7       ?newEmpty@PictChar@@SAPAV1@VCSize@@K@Z 0040d0f7 f   PictChar.obj
 0001:0000c1eb       ?newImportPathThrough@PictChar@@SAPAV1@PBD@Z 0040d1eb f   PictChar.obj
 0001:0000c333       ?newImport@PictChar@@SAPAV1@PBD@Z 0040d333 f   PictChar.obj
 0001:0000c3db       ?IsEditable@PictChar@@QBEHXZ 0040d3db f   PictChar.obj
 0001:0000c3e7       ?GetColorBits@PictChar@@ABEHXZ 0040d3e7 f   PictChar.obj
 0001:0000c3f4       ?SetCenter@PictChar@@AAEXVCPoint@@@Z 0040d3f4 f   PictChar.obj
 0001:0000c405       ?SetPictData@PictChar@@AAEXABVPictData@@@Z 0040d405 f   PictChar.obj
 0001:0000c45f       ?SetPictOptParam@PictChar@@AAEXABVPictQuantizeParam@@@Z 0040d45f f   PictChar.obj
 0001:0000c47c       ?ExportCache@PictChar@@QBEHPBD@Z 0040d47c f   PictChar.obj
 0001:0000c5a7       ?LoadBmp@PictChar@@SAHPBDAAVPictData@@@Z 0040d5a7 f   PictChar.obj
 0001:0000c63a       ?OptimizePAT@@YAHAAVPictOptCache@@ABVPictData@@@Z 0040d63a f   PictChar.obj
 0001:0000c799       ?OptimizeGIF@@YAHAAVPictOptCache@@ABVPictData@@ABVPictQuantizeParam@@@Z 0040d799 f   PictChar.obj
 0001:0000c921       ?OptimizeJPG@@YAHAAVPictOptCache@@ABVPictData@@ABVPictQuantizeParam@@@Z 0040d921 f   PictChar.obj
 0001:0000c9d2       ?Optimize@PictChar@@SAHAAVPictOptCache@@ABVPictData@@ABVPictQuantizeParam@@@Z 0040d9d2 f   PictChar.obj
 0001:0000ca9d       ?Optimize@PictChar@@ABEHXZ 0040da9d f   PictChar.obj
 0001:0000cab8       ?GetCenter@PictChar@@QBE?AVCPoint@@XZ 0040dab8 f   PictChar.obj
 0001:0000caca       ?GetPictOptParam@PictChar@@QBEABVPictQuantizeParam@@XZ 0040daca f   PictChar.obj
 0001:0000cad1       ?GetPictData@PictChar@@QBEABVPictData@@XZ 0040dad1 f   PictChar.obj
 0001:0000cad5       ?CreateAct@PictChar@@SAXAAVAct@@ABVLBitmapBase@@ABVPictQuantizeParam@@@Z 0040dad5 f   PictChar.obj
 0001:0000cb1c       ?GetBitmapSize@PictChar@@ABE?AVCSize@@XZ 0040db1c f   PictChar.obj
 0001:0000cb43       ?Serialize@PictChar@@UAEXPAVSDOMArchive@@@Z 0040db43 f   PictChar.obj
 0001:0000cca3       ?Build@PictChar@@UBEXPAVBuilder@@@Z 0040dca3 f   PictChar.obj
 0001:0000ce42       ?Data2Bmp@PictChar@@CAHABVLBuffer@@AAVLBitmapBase@@@Z 0040de42 f   PictChar.obj
 0001:0000ceeb       ?DrawPreview@PictChar@@EBEXPBVCharPreview@@@Z 0040deeb f   PictChar.obj
 0001:0000cfc8       ?Draw@PictChar@@EBEXPAVCDC@@PBVAffineMatrix@@PBVColoring@@@Z 0040dfc8 f   PictChar.obj
 0001:0000d0b9       ?DrawEditview@PictChar@@QBEXPAVCDC@@@Z 0040e0b9 f   PictChar.obj
 0001:0000d168       ?GetInfo@PictChar@@EBE?AVCString@@XZ 0040e168 f   PictChar.obj
 0001:0000d267       ?FindExecutableA@@YAHPBDAAVCString@@@Z 0040e267 f   PictChar.obj
 0001:0000d2d3       ?EditByExe@PictChar@@CAHAAVPictData@@@Z 0040e2d3 f   PictChar.obj
 0001:0000d4b6       ?GetColorBits@PictCharImpl@@YAHH@Z 0040e4b6 f   PictChar.obj
 0001:0000d51a       ?is_between@PictCharImpl@@YAHHHH@Z 0040e51a f   PictChar.obj
 0001:0000d531       ?ExistPath@PictCharImpl@@YAHPBD@Z 0040e531 f   PictChar.obj
 0001:0000d54e       ?NormalizeColorBitsPNG@PictCharImpl@@YAHH@Z 0040e54e f   PictChar.obj
 0001:0000d56a       ?GetRect@PictChar@@EBEXAAVCRect@@@Z 0040e56a f   PictChar.obj
 0001:0000d5b8       ??_EPictChar@@WBE@AEPAXI@Z 0040e5b8 f i PictChar.obj
 0001:0000d5c0       ??0SndChar@@QAE@XZ         0040e5c0 f   SndChar.obj
 0001:0000d605       ??_ESndChar@@UAEPAXI@Z     0040e605 f i SndChar.obj
 0001:0000d605       ??_GSndChar@@UAEPAXI@Z     0040e605 f i SndChar.obj
 0001:0000d67e       ??0SndChar@@QAE@ABV0@@Z    0040e67e f   SndChar.obj
 0001:0000d6de       ??0SndChar@@QAE@PAX@Z      0040e6de f   SndChar.obj
 0001:0000d737       ?GetCharType@SndChar@@EBEABVCharType@@XZ 0040e737 f   SndChar.obj
 0001:0000d73d       ?Clone@SndChar@@EBEPAVChar@@XZ 0040e73d f   SndChar.obj
 0001:0000d774       ?Build@SndChar@@EBEXPAVBuilder@@@Z 0040e774 f   SndChar.obj
 0001:0000d7f6       ??1SndChar@@UAE@XZ         0040e7f6 f   SndChar.obj
 0001:0000d83f       ?Serialize@SndChar@@EAEXPAVSDOMArchive@@@Z 0040e83f f   SndChar.obj
 0001:0000d862       ?GetHandle@SndChar@@QBEPAXXZ 0040e862 f   SndChar.obj
 0001:0000d86a       ?ReplaceHandle@SndChar@@QAEPAXPAX@Z 0040e86a f   SndChar.obj
 0001:0000d88a       ?NotifyBeginRDrag@SECListBaseC@@MAEXHUtagPOINT@@@Z 0040e88a f   SndChar.obj
 0001:0000d88a       ?NotifyBeginDrag@SECListBaseC@@MAEXHUtagPOINT@@@Z 0040e88a f   SndChar.obj
 0001:0000d88a       ?NotifyBeginRDrag@SECListBaseV@@MAEXHUtagPOINT@@@Z 0040e88a f   SndChar.obj
 0001:0000d88a       ?Draw@SndChar@@EBEXPAVCDC@@PBVAffineMatrix@@PBVColoring@@@Z 0040e88a f   SndChar.obj
 0001:0000d88a       ?NotifySelChanged@SECListBaseV@@MBEXHHW4SECListSelectAction@@@Z 0040e88a f   SndChar.obj
 0001:0000d88a       ?NotifyBeginDrag@SECListBaseV@@MAEXHUtagPOINT@@@Z 0040e88a f   SndChar.obj
 0001:0000d88a       ?NotifySelChanged@SECListBaseC@@MBEXHHW4SECListSelectAction@@@Z 0040e88a f   SndChar.obj
 0001:0000d88a       ?OnUpdateFrameMenu@SECFrameWnd@@UAEXHPAVCWnd@@PAUHMENU__@@@Z 0040e88a f   SndChar.obj
 0001:0000d88d       ??_ESndChar@@WBE@AEPAXI@Z  0040e88d f i SndChar.obj
 0001:0000d997       ??0TextCharState@@QAE@XZ   0040e997 f   TextChar.obj
 0001:0000d9f0       ??4TextCharState@@QAEAAV0@ABV0@@Z 0040e9f0 f   TextChar.obj
 0001:0000da99       ??0TextChar@@QAE@XZ        0040ea99 f   TextChar.obj
 0001:0000dade       ??_ETextChar@@EAEPAXI@Z    0040eade f i TextChar.obj
 0001:0000dade       ??_GTextChar@@EAEPAXI@Z    0040eade f i TextChar.obj
 0001:0000dafa       ??0TextChar@@QAE@ABV0@@Z   0040eafa f   TextChar.obj
 0001:0000db57       ??0TextChar@@QAE@PBD@Z     0040eb57 f   TextChar.obj
 0001:0000dbde       ?GetCharType@TextChar@@EBEABVCharType@@XZ 0040ebde f   TextChar.obj
 0001:0000dbe4       ??1TextChar@@EAE@XZ        0040ebe4 f   TextChar.obj
 0001:0000dc2d       ?Clone@TextChar@@EBEPAVChar@@XZ 0040ec2d f   TextChar.obj
 0001:0000dc64       ?SetState@TextChar@@QAEXABVTextCharState@@@Z 0040ec64 f   TextChar.obj
 0001:0000dc73       ?GetState@TextChar@@QAEXAAVTextCharState@@@Z 0040ec73 f   TextChar.obj
 0001:0000dc83       ?Serialize@TextChar@@EAEXPAVSDOMArchive@@@Z 0040ec83 f   TextChar.obj
 0001:0000dd4a       ?CreateNameByBody@TextChar@@SA?AVCString@@PBD@Z 0040ed4a f   TextChar.obj
 0001:0000de18       ?GetFontStyle@TextChar@@ABEHXZ 0040ee18 f   TextChar.obj
 0001:0000de33       ?ConvertMIDPFontFace@@YAHH@Z 0040ee33 f   TextChar.obj
 0001:0000de4d       ?ConvertMIDPFontSize@@YAHH@Z 0040ee4d f   TextChar.obj
 0001:0000de67       ?Build@TextChar@@EBEXPAVBuilder@@@Z 0040ee67 f   TextChar.obj
 0001:0000df70       ?UpdateAutoSize@TextChar@@CAXPAVTextCharState@@@Z 0040ef70 f   TextChar.obj
 0001:0000e022       ?DrawPreview@TextChar@@CAXPBVTextCharState@@PAVCDC@@VCRect@@K@Z 0040f022 f   TextChar.obj
 0001:0000e13c       ?GetRect@TextChar@@EBEXAAVCRect@@@Z 0040f13c f   TextChar.obj
 0001:0000e156       ?DrawPreview@TextChar@@EBEXPBVCharPreview@@@Z 0040f156 f   TextChar.obj
 0001:0000e17e       ?Draw@TextChar@@EBEXPAVCDC@@PBVAffineMatrix@@PBVColoring@@@Z 0040f17e f   TextChar.obj
 0001:0000e1ba       ?DrawHelper@@YAXPAVCDC@@ABVTextCharState@@HHK@Z 0040f1ba f   TextChar.obj
 0001:0000e2bf       ?CreateFontA@@YAHAAVCFont@@HHHHH@Z 0040f2bf f   TextChar.obj
 0001:0000e384       ?CalcSize@CCharDrawer@@QAE?AVCSize@@VCString@@@Z 0040f384 f   TextChar.obj
 0001:0000e436       ?Draw@CCharDrawer@@QAEXPAVCDC@@PBUtagRECT@@VCString@@@Z 0040f436 f   TextChar.obj
 0001:0000e515       ??0CNativeCharDrawer@@QAE@PAVCDC@@HHHHH@Z 0040f515 f   TextChar.obj
 0001:0000e589       ??1CCharDrawer@@UAE@XZ     0040f589 f i TextChar.obj
 0001:0000e590       ??_ECCharDrawer@@UAEPAXI@Z 0040f590 f i TextChar.obj
 0001:0000e590       ??_GCCharDrawer@@UAEPAXI@Z 0040f590 f i TextChar.obj
 0001:0000e5ad       ??_GCNativeCharDrawer@@UAEPAXI@Z 0040f5ad f i TextChar.obj
 0001:0000e5ad       ??_ECNativeCharDrawer@@UAEPAXI@Z 0040f5ad f i TextChar.obj
 0001:0000e5c9       ?GetFontWidth@CNativeCharDrawer@@UBEHXZ 0040f5c9 f   TextChar.obj
 0001:0000e5d2       ??1CNativeCharDrawer@@UAE@XZ 0040f5d2 f   TextChar.obj
 0001:0000e632       ?DrawChar@CNativeCharDrawer@@UAEHPAVCDC@@HHVCString@@H@Z 0040f632 f   TextChar.obj
 0001:0000e682       ??1?$auto_ptr@VErrorReporter@@@std@@QAE@XZ 0040f682 f i TextChar.obj
 0001:0000e682       ??1?$auto_ptr@VMemBufInputSource@xercesc_2_2@@@std@@QAE@XZ 0040f682 f i TextChar.obj
 0001:0000e682       ??1?$auto_ptr@VDOMDocument@xercesc_2_2@@@std@@QAE@XZ 0040f682 f i TextChar.obj
 0001:0000e682       ??1?$auto_ptr@VDOMWriter@xercesc_2_2@@@std@@QAE@XZ 0040f682 f i TextChar.obj
 0001:0000e682       ??1?$auto_ptr@VCCharDrawer@@@std@@QAE@XZ 0040f682 f i TextChar.obj
 0001:0000e682       ??1?$auto_ptr@VXercesDOMParser@xercesc_2_2@@@std@@QAE@XZ 0040f682 f i TextChar.obj
 0001:0000e682       ??1?$auto_ptr@VTestSuite@CppUnit@@@std@@QAE@XZ 0040f682 f i TextChar.obj
 0001:0000e682       ??1?$auto_ptr@VMemBufFormatTarget@xercesc_2_2@@@std@@QAE@XZ 0040f682 f i TextChar.obj
 0001:0000e682       ??1?$auto_ptr@VSDOMBuffer@@@std@@QAE@XZ 0040f682 f i TextChar.obj
 0001:0000e695       ??C?$auto_ptr@VCCharDrawer@@@std@@QBEPAVCCharDrawer@@XZ 0040f695 f i TextChar.obj
 0001:0000e695       ?GetParent@SECTreeNode@@UBEPAV1@XZ 0040f695 f i TextChar.obj
 0001:0000e699       ??_ETextChar@@GBE@AEPAXI@Z 0040f699 f i TextChar.obj
 0001:0000e6a1       ??BCRect@@QAEPAUtagRECT@@XZ 0040f6a1 f i TextChar.obj
 0001:0000e6a4       ??_ECGdiObject@@UAEPAXI@Z  0040f6a4 f i TextChar.obj
 0001:0000e6a4       ??_GCGdiObject@@UAEPAXI@Z  0040f6a4 f i TextChar.obj
 0001:0000e6c0       ??1CGdiObject@@UAE@XZ      0040f6c0 f i TextChar.obj
 0001:0000e6f3       ??1CPen@@UAE@XZ            0040f6f3 f i TextChar.obj
 0001:0000e726       ??1CBrush@@UAE@XZ          0040f726 f i TextChar.obj
 0001:0000e759       ??_GCFont@@UAEPAXI@Z       0040f759 f i TextChar.obj
 0001:0000e759       ??_ECFont@@UAEPAXI@Z       0040f759 f i TextChar.obj
 0001:0000e775       ??1CFont@@UAE@XZ           0040f775 f i TextChar.obj
 0001:0000e7a8       ??0Animating@@QAE@XZ       0040f7a8 f   Animating.obj
 0001:0000e7b9       ?Serialize@Animating@@UAEXPAVSDOMArchive@@@Z 0040f7b9 f   Animating.obj
 0001:0000e7e6       ??0Coloring@@QAE@XZ        0040f7e6 f   Coloring.obj
 0001:0000e81e       ??4Coloring@@QAEAAV0@ABV0@@Z 0040f81e f   Coloring.obj
 0001:0000e830       ?CopyFrom@Coloring@@AAEXABV1@@Z 0040f830 f   Coloring.obj
 0001:0000e85b       ?Interpolate@Coloring@@QAEXPBV1@0HHH@Z 0040f85b f   Coloring.obj
 0001:0000e94d       ?Serialize@Coloring@@EAEXPAVSDOMArchive@@@Z 0040f94d f   Coloring.obj
 0001:0000e9c0       ?saturate_color@@YAHH@Z    0040f9c0 f   Coloring.obj
 0001:0000e9d7       ??D@YAKABVColoring@@ABK@Z  0040f9d7 f   Coloring.obj
 0001:0000ea57       ??0KeyFrameState@@QAE@XZ   0040fa57 f   KeyFrame.obj
 0001:0000ea90       ??4KeyFrameState@@QAEAAV0@ABV0@@Z 0040fa90 f   KeyFrame.obj
 0001:0000eabd       ?Interpolate@KeyFrameState@@QAEXPBV1@0HH@Z 0040fabd f   KeyFrame.obj
 0001:0000eb12       ??0KeyFrameLabel@@QAE@XZ   0040fb12 f   KeyFrame.obj
 0001:0000eb49       ??4KeyFrameLabel@@QAEAAV0@ABV0@@Z 0040fb49 f   KeyFrame.obj
 0001:0000eb74       ??0KeyFrame@@QAE@XZ        0040fb74 f   KeyFrame.obj
 0001:0000ebd8       ??1Label@@UAE@XZ           0040fbd8 f i KeyFrame.obj
 0001:0000ebea       ??_GLabel@@UAEPAXI@Z       0040fbea f i KeyFrame.obj
 0001:0000ebea       ??_ELabel@@UAEPAXI@Z       0040fbea f i KeyFrame.obj
 0001:0000ec06       ??_GKeyFrame@@UAEPAXI@Z    0040fc06 f i KeyFrame.obj
 0001:0000ec06       ??_EKeyFrame@@UAEPAXI@Z    0040fc06 f i KeyFrame.obj
 0001:0000ec22       ??1KeyFrameState@@QAE@XZ   0040fc22 f i KeyFrame.obj
 0001:0000ec2a       ??1KeyFrameLabel@@QAE@XZ   0040fc2a f i KeyFrame.obj
 0001:0000ec60       ??0KeyFrame@@QAE@HH@Z      0040fc60 f   KeyFrame.obj
 0001:0000ecca       ?Clone@KeyFrame@@QBEPAV1@XZ 0040fcca f   KeyFrame.obj
 0001:0000ed37       ??1KeyFrame@@UAE@XZ        0040fd37 f   KeyFrame.obj
 0001:0000edb7       ?Serialize@KeyFrame@@UAEXPAVSDOMArchive@@@Z 0040fdb7 f   KeyFrame.obj
 0001:0000ee7e       ?BuildKeyFrameLabel@KeyFrame@@QBEXPAVBuilder@@@Z 0040fe7e f   KeyFrame.obj
 0001:0000ee8d       ?GetActionList@KeyFrame@@QAEPAVActionList@@XZ 0040fe8d f   KeyFrame.obj
 0001:0000ee94       ?MoveFramePos@KeyFrame@@QAEXH@Z 0040fe94 f   KeyFrame.obj
 0001:0000ee9e       ?SetState@KeyFrame@@QAEXPBVKeyFrameState@@@Z 0040fe9e f   KeyFrame.obj
 0001:0000eead       ?GetState@KeyFrame@@QBEXPAVKeyFrameState@@@Z 0040fead f   KeyFrame.obj
 0001:0000eebd       ?SetLabel@KeyFrame@@QAEXPBVKeyFrameLabel@@@Z 0040febd f   KeyFrame.obj
 0001:0000eecf       ?GetLabel@KeyFrame@@QBEXPAVKeyFrameLabel@@@Z 0040fecf f   KeyFrame.obj
 0001:0000eee2       ?HasAction@KeyFrame@@QBEHXZ 0040fee2 f   KeyFrame.obj
 0001:0000eef7       ?HasLabel@KeyFrame@@QBEHXZ 0040fef7 f   KeyFrame.obj
 0001:0000eefe       ?GetLabelName@KeyFrame@@UBE?AVCString@@XZ 0040fefe f   KeyFrame.obj
 0001:0000ef1c       ?IsValidLabelName@@YAHPBD@Z 0040ff1c f   KeyFrame.obj
 0001:0000ef65       ?DDV_Label@KeyFrameLabel@@SAXPAVCDataExchange@@PBVAppli@@PAV1@PBD@Z 0040ff65 f   KeyFrame.obj
 0001:0000efed       ?InheritedFrom@KeyFrameKeepers@@UAEXAAVKeyFrameOwners@@HH@Z 0040ffed f   KeyFrameKeepers.obj
 0001:0000f0a7       ??1?$TOLMKeeper@VKeyFrame@@@@UAE@XZ 004100a7 f i KeyFrameKeepers.obj
 0001:0000f0ac       ?TransferTo@KeyFrameKeepers@@UAEXAAVKeyFrameOwners@@HH@Z 004100ac f   KeyFrameKeepers.obj
 0001:0000f148       ?OwnNew@KeyFrameKeepers@@UAEXPAVKeyFrame@@@Z 00410148 f   KeyFrameKeepers.obj
 0001:0000f1a9       ?insert@?$list@V?$TOLMOwner@VKeyFrame@@@@V?$TOLMAllocator@V?$TOLMOwner@VKeyFrame@@@@@@@std@@QAE?AViterator@12@V312@ABV?$TOLMOwner@VKeyFrame@@@@@Z 004101a9 f i KeyFrameKeepers.obj
 0001:0000f202       ?insert@?$list@V?$TOLMKeeper@VKeyFrame@@@@V?$TOLMAllocator@V?$TOLMKeeper@VKeyFrame@@@@@@@std@@QAE?AViterator@12@V312@ABV?$TOLMKeeper@VKeyFrame@@@@@Z 00410202 f i KeyFrameKeepers.obj
 0001:0000f25b       ??_G?$TOLMOwner@VKeyFrame@@@@UAEPAXI@Z 0041025b f i KeyFrameKeepers.obj
 0001:0000f25b       ??_E?$TOLMOwner@VMainStage@@@@UAEPAXI@Z 0041025b f i KeyFrameKeepers.obj
 0001:0000f25b       ??_G?$TOLMOwner@VMainStage@@@@UAEPAXI@Z 0041025b f i KeyFrameKeepers.obj
 0001:0000f25b       ??_E?$TOLMOwner@VKeyFrame@@@@UAEPAXI@Z 0041025b f i KeyFrameKeepers.obj
 0001:0000f277       ??_E?$TOLMKeeper@VKeyFrame@@@@UAEPAXI@Z 00410277 f i KeyFrameKeepers.obj
 0001:0000f277       ??_G?$TOLMKeeper@VKeyFrame@@@@UAEPAXI@Z 00410277 f i KeyFrameKeepers.obj
 0001:0000f293       ?_OLMConstruct@@YAXPAV?$TOLMOwner@VKeyFrame@@@@ABV1@@Z 00410293 f i KeyFrameKeepers.obj
 0001:0000f2ca       ?_OLMConstruct@@YAXPAV?$TOLMKeeper@VKeyFrame@@@@ABV1@@Z 004102ca f i KeyFrameKeepers.obj
 0001:0000f301       ??3CObject@@SGXPAX0@Z      00410301 f i KeyFrameKeepers.obj
 0001:0000f30e       ??0KeyFrameOwners@@QAE@XZ  0041030e f   KeyFrameOwners.obj
 0001:0000f344       ?Find@KeyFrameOwners@@QBEPBVKeyFrame@@HW4FIND_KEYRAME_TYPE@1@@Z 00410344 f   KeyFrameOwners.obj
 0001:0000f372       ?FindItr@KeyFrameOwners@@AAE?AViterator@?$list@V?$TOLMOwner@VKeyFrame@@@@V?$TOLMAllocator@V?$TOLMOwner@VKeyFrame@@@@@@@std@@HW4FIND_KEYRAME_TYPE@1@@Z 00410372 f   KeyFrameOwners.obj
 0001:0000f3e3       ?ValidateLen@KeyFrameOwners@@ABEHHH@Z 004103e3 f   KeyFrameOwners.obj
 0001:0000f3f8       ?Expand@KeyFrameOwners@@QAEXH@Z 004103f8 f   KeyFrameOwners.obj
 0001:0000f402       ?Shrink@KeyFrameOwners@@QAEXH@Z 00410402 f   KeyFrameOwners.obj
 0001:0000f40c       ?MoveFramesForward@KeyFrameOwners@@QAEXHHH@Z 0041040c f   KeyFrameOwners.obj
 0001:0000f440       ?MoveFramesBackward@KeyFrameOwners@@QAEXHHH@Z 00410440 f   KeyFrameOwners.obj
 0001:0000f477       ?MoveFrames@KeyFrameOwners@@AAEXHHH@Z 00410477 f   KeyFrameOwners.obj
 0001:0000f4cb       ?factory@KeyFrameOwners@@CAPAVSDOMSerializable@@PBG@Z 004104cb f   KeyFrameOwners.obj
 0001:0000f509       ?namer@KeyFrameOwners@@CAPBGPAVSDOMSerializable@@@Z 00410509 f   KeyFrameOwners.obj
 0001:0000f50f       ?Serialize@KeyFrameOwners@@UAEXPAVSDOMArchive@@@Z 0041050f f   KeyFrameOwners.obj
 0001:0000f5d2       ?AssertValid@KeyFrameOwners@@UBEXXZ 004105d2 f   KeyFrameOwners.obj
 0001:0000f5f8       ??B?$_TOLM@VKeyFrame@@VCOLMOwner@@@@QBEPBVKeyFrame@@XZ 004105f8 f i KeyFrameOwners.obj
 0001:0000f5f8       ??B?$_TOLM@VKeyFrame@@VCOLMOwner@@@@QAEPAVKeyFrame@@XZ 004105f8 f i KeyFrameOwners.obj
 0001:0000f615       ??0Label@@QAE@XZ           00410615 f   Label.obj
 0001:0000f632       ?BuildLabel@Label@@MBEXPAVBuilder@@H@Z 00410632 f   Label.obj
 0001:0000f656       ?SetupLabelComboBox@Label@@SAXAAVCComboBox@@ABV?$list@U?$pair@PBVLabel@@VCString@@@std@@V?$allocator@U?$pair@PBVLabel@@VCString@@@std@@@2@@std@@PBV1@@Z 00410656 f   Label.obj
 0001:0000f6d0       ??0LayerStatus@@QAE@XZ     004106d0 f   Layer.obj
 0001:0000f6e7       ??0Layer@@QAE@XZ           004106e7 f   Layer.obj
 0001:0000f75d       ??_ELayer@@UAEPAXI@Z       0041075d f i Layer.obj
 0001:0000f75d       ??_GLayer@@UAEPAXI@Z       0041075d f i Layer.obj
 0001:0000f779       ??1KeyFrameOwners@@QAE@XZ  00410779 f i Layer.obj
 0001:0000f781       ?factory@Layer@@SAPAVSDOMSerializable@@PBG@Z 00410781 f   Layer.obj
 0001:0000f7db       ?namer@Layer@@SAPBGPAVSDOMSerializable@@@Z 004107db f   Layer.obj
 0001:0000f81f       ?getTypeName@SDOMSerializable@@QBE?AVCString@@XZ 0041081f f i Layer.obj
 0001:0000f87c       ?Clone@Layer@@UBEPAV1@XZ   0041087c f   Layer.obj
 0001:0000f982       ??0KeyFrameKeepers@@QAE@XZ 00410982 f i Layer.obj
 0001:0000f9ae       ??1KeyFrameKeepers@@QAE@XZ 004109ae f i Layer.obj
 0001:0000f9b6       ??1Layer@@UAE@XZ           004109b6 f   Layer.obj
 0001:0000fa2f       ?Serialize@Layer@@UAEXPAVSDOMArchive@@@Z 00410a2f f   Layer.obj
 0001:0000fa91       ?AssertValid@Layer@@UBEXXZ 00410a91 f   Layer.obj
 0001:0000fa99       ?GetName@Layer@@QBE?AVCString@@XZ 00410a99 f   Layer.obj
 0001:0000fab4       ?SetName@Layer@@QAEXABVCString@@@Z 00410ab4 f   Layer.obj
 0001:0000fac3       ?GetVisible@Layer@@QBEHXZ  00410ac3 f   Layer.obj
 0001:0000fac7       ?AttachChar@Layer@@QAEXPAVChar@@@Z 00410ac7 f   Layer.obj
 0001:0000fae7       ?GetAttachedChar@Layer@@QAEPAVChar@@XZ 00410ae7 f   Layer.obj
 0001:0000fae7       ?GetAttachedChar@Layer@@QBEPBVChar@@XZ 00410ae7 f   Layer.obj
 0001:0000faef       ?GetFrameCount@Layer@@QBEHXZ 00410aef f   Layer.obj
 0001:0000faf7       ?GetKeyFrameOwners@Layer@@QAEAAVKeyFrameOwners@@XZ 00410af7 f   Layer.obj
 0001:0000fafb       ?GetKeyFrame@Layer@@QAEPAVKeyFrame@@H@Z 00410afb f   Layer.obj
 0001:0000fafb       ?GetKeyFrame@Layer@@QBEPBVKeyFrame@@H@Z 00410afb f   Layer.obj
 0001:0000fb0c       ?GetBeginKeyFrame@Layer@@QBEPBVKeyFrame@@H@Z 00410b0c f   Layer.obj
 0001:0000fb1d       ?GetEndKeyFrame@Layer@@QBEPBVKeyFrame@@H@Z 00410b1d f   Layer.obj
 0001:0000fb2e       ?GetLabelList@Layer@@QBEXPBVStage@@AAV?$list@U?$pair@PBVLabel@@VCString@@@std@@V?$allocator@U?$pair@PBVLabel@@VCString@@@std@@@2@@std@@@Z 00410b2e f   Layer.obj
 0001:0000fc73       ??1?$pair@PBVLabel@@VCString@@@std@@QAE@XZ 00410c73 f i Layer.obj
 0001:0000fc73       ??1?$pair@$$CBW4ACTTYPE@@VCString@@@std@@QAE@XZ 00410c73 f i Layer.obj
 0001:0000fc73       ??1?$pair@$$CBHVCString@@@std@@QAE@XZ 00410c73 f i Layer.obj
 0001:0000fc73       ??1CharType@@QAE@XZ        00410c73 f i Layer.obj
 0001:0000fc7b       ?GenerateKeyFrame@Layer@@QBEPAVKeyFrame@@HH@Z 00410c7b f   Layer.obj
 0001:0000fd9a       ?GetFrameType@Layer@@QBEHH@Z 00410d9a f   Layer.obj
 0001:0000fe52       ?Draw@Layer@@QBEXHPAVCDC@@@Z 00410e52 f   Layer.obj
 0001:0000feb7       ?GetBezier@Layer@@QBEXHAAV?$CArray@V?$CArray@UtagPOINT@@AAU1@@@AAV1@@@@Z 00410eb7 f   Layer.obj
 0001:0000ff86       ?GetFrameInfo@Layer@@QBEHHPAVAffineMatrix@@PAVColoring@@H@Z 00410f86 f   Layer.obj
 0001:000100ea       ?insert@?$list@U?$pair@PBVLabel@@VCString@@@std@@V?$allocator@U?$pair@PBVLabel@@VCString@@@std@@@2@@std@@QAE?AViterator@12@V312@ABU?$pair@PBVLabel@@VCString@@@2@@Z 004110ea f i Layer.obj
 0001:00010124       ?_Construct@std@@YAXPAU?$pair@PBVLabel@@VCString@@@1@ABU21@@Z 00411124 f i Layer.obj
 0001:0001015c       ??_ELayer@@WBE@AEPAXI@Z    0041115c f i Layer.obj
 0001:00010164       ?GetStageName@MainStage@@UBE?AVCString@@XZ 00411164 f   MainStage.obj
 0001:000101bd       ?GetLabelName@MainStage@@UBE?AVCString@@XZ 004111bd f   MainStage.obj
 0001:000101d8       ??0Placing@@QAE@XZ         004111d8 f   Placing.obj
 0001:000101f8       ??4Placing@@QAEAAV0@ABV0@@Z 004111f8 f   Placing.obj
 0001:0001021f       ?Serialize@Placing@@UAEXPAVSDOMArchive@@@Z 0041121f f   Placing.obj
 0001:00010281       ?Interpolate@Placing@@QAEXPBV1@0HHH@Z 00411281 f   Placing.obj
 0001:0001034c       ?Translate@Placing@@QAEXPAVAffineMatrix@@@Z 0041134c f   Placing.obj
 0001:00010405       ??0Stage@@QAE@XZ           00411405 f   Stage.obj
 0001:00010472       ??_EStage@@UAEPAXI@Z       00411472 f i Stage.obj
 0001:00010472       ??_GStage@@UAEPAXI@Z       00411472 f i Stage.obj
 0001:0001048e       ??_E?$TOLMOwners@VLayer@@$0A@@@UAEPAXI@Z 0041148e f i Stage.obj
 0001:0001048e       ??_E?$TOLMOwners@VAction@@$0A@@@UAEPAXI@Z 0041148e f i Stage.obj
 0001:0001048e       ??_E?$TOLMOwners@VSubStage@@$00@@UAEPAXI@Z 0041148e f i Stage.obj
 0001:0001048e       ??_G?$TOLMOwners@VSubStage@@$00@@UAEPAXI@Z 0041148e f i Stage.obj
 0001:0001048e       ??_G?$TOLMOwners@VLayer@@$0A@@@UAEPAXI@Z 0041148e f i Stage.obj
 0001:0001048e       ??_E?$TOLMOwners@VChar@@$00@@UAEPAXI@Z 0041148e f i Stage.obj
 0001:0001048e       ??_G?$TOLMOwners@VAction@@$0A@@@UAEPAXI@Z 0041148e f i Stage.obj
 0001:0001048e       ??_G?$TOLMOwners@VChar@@$00@@UAEPAXI@Z 0041148e f i Stage.obj
 0001:000104aa       ??1Stage@@UAE@XZ           004114aa f   Stage.obj
 0001:00010518       ?AssertValid@Stage@@UBEXXZ 00411518 f   Stage.obj
 0001:00010521       ?Serialize@Stage@@UAEXPAVSDOMArchive@@@Z 00411521 f   Stage.obj
 0001:00010540       ?GetSel@Stage@@QBEXAAH0@Z  00411540 f   Stage.obj
 0001:00010555       ?SetSel@Stage@@QAEXHH@Z    00411555 f   Stage.obj
 0001:00010566       ?AddSel@Stage@@QAEXH@Z     00411566 f   Stage.obj
 0001:000105ae       ?GetSelFrame@Stage@@QBEHXZ 004115ae f   Stage.obj
 0001:000105b2       ?SelectFrame@Stage@@QAEXH@Z 004115b2 f   Stage.obj
 0001:000105bf       ?UnselectFrame@Stage@@QAEXXZ 004115bf f   Stage.obj
 0001:000105c8       ?IsFrameSel@Stage@@QBEHXZ  004115c8 f   Stage.obj
 0001:000105e3       ?GetFrameCount@Stage@@QBEHXZ 004115e3 f   Stage.obj
 0001:0001061f       ?GetLayerCount@Stage@@QBEHXZ 0041161f f   Stage.obj
 0001:00010627       ?GetLayer@Stage@@QAEPAVLayer@@H@Z 00411627 f   Stage.obj
 0001:00010627       ?GetLayer@Stage@@QBEPBVLayer@@H@Z 00411627 f   Stage.obj
 0001:00010636       ?ShowAll@Stage@@QAEXXZ     00411636 f   Stage.obj
 0001:00010668       ?LockOtherLayers@Stage@@QAEXH@Z 00411668 f   Stage.obj
 0001:000106a4       ?HideOtherLayers@Stage@@QAEXH@Z 004116a4 f   Stage.obj
 0001:000106e0       ?GetSelLayer@Stage@@QBEHXZ 004116e0 f   Stage.obj
 0001:0001071c       ?SelectLayer@Stage@@QAEXH@Z 0041171c f   Stage.obj
 0001:0001073c       ?UnselectLayer@Stage@@QAEXXZ 0041173c f   Stage.obj
 0001:0001076e       ?getLabelDisplayName@@YA?AVCString@@PBVStage@@@Z 0041176e f   Stage.obj
 0001:000107e6       ?GetLabelList@Stage@@QBEXAAV?$list@U?$pair@PBVLabel@@VCString@@@std@@V?$allocator@U?$pair@PBVLabel@@VCString@@@std@@@2@@std@@@Z 004117e6 f   Stage.obj
 0001:00010896       ?Build@Stage@@UBEXPAVBuilder@@@Z 00411896 f   Stage.obj
 0001:0001099c       ?BuildFrameFirst@Stage@@ABEXPAVBuilder@@PBVLayer@@H@Z 0041199c f   Stage.obj
 0001:00010a0e       ?BuildFrameLast@Stage@@ABEXPAVBuilder@@PBVLayer@@HH@Z 00411a0e f   Stage.obj
 0001:00010c4f       ?GetOwners@Stage@@AAEAAV?$TOLMOwners@VLayer@@$0A@@@XZ 00411c4f f   Stage.obj
 0001:00010c53       ?HitFrameCharLayer@Stage@@QBEHHVCPoint@@@Z 00411c53 f   Stage.obj
 0001:00010d06       ?HitFrameCharLayer@Stage@@QBEHHVCRect@@@Z 00411d06 f   Stage.obj
 0001:00010dab       ?Draw@Stage@@QBEXHPAVCDC@@@Z 00411dab f   Stage.obj
 0001:00010de2       ?SubmitOle@Stage@@QAEHPAVCOleDataSource@@HPAVSpicydogDoc@@H@Z 00411de2 f   Stage.obj
 0001:00010e14       ?AcceptOle@Stage@@AAEHPAVCOleDataObject@@KPAVSpicydogDoc@@AAUOLE_ACCEPT_PARAM@1@@Z 00411e14 f   Stage.obj
 0001:00010e8b       ?AcceptOleChar@Stage@@AAEHPAVCOleDataObject@@PAVSpicydogDoc@@AAUOLE_ACCEPT_PARAM@1@@Z 00411e8b f   Stage.obj
 0001:00010f9a       ?AcceptOleChar_Ins@Stage@@AAEHPAVSpicydogDoc@@PAUCFS_CHARS@@AAUOLE_ACCEPT_PARAM@1@@Z 00411f9a f   Stage.obj
 0001:00011206       ?AcceptOleChar_Ovr@Stage@@AAEHPAVSpicydogDoc@@PAUCFS_CHARS@@AAUOLE_ACCEPT_PARAM@1@@Z 00412206 f   Stage.obj
 0001:000113ba       ?AcceptOleMove@Stage@@AAEHPAVCOleDataObject@@PAVSpicydogDoc@@AAUOLE_ACCEPT_PARAM@1@@Z 004123ba f   Stage.obj
 0001:000114ea       ??1?$TGlobalAllocatorTypedPtr@UCFS_LAYERS@@@@UAE@XZ 004124ea f i Stage.obj
 0001:000114ea       ??1?$TGlobalAllocatorTypedPtr@UCFS_CHARS@@@@UAE@XZ 004124ea f i Stage.obj
 0001:000114ef       ?Data2Ole_CF_LAYER@Stage@@ABEPAXPAVSpicydogDoc@@H@Z 004124ef f   Stage.obj
 0001:00011588       ?Serialize@?$TOLMOwners@VLayer@@$0A@@@UAEXPAVSDOMArchive@@@Z 00412588 f i Stage.obj
 0001:000115a3       ??_E?$TGlobalAllocatorTypedPtr@UCFS_CHARS@@@@UAEPAXI@Z 004125a3 f i Stage.obj
 0001:000115a3       ??_E?$TGlobalAllocatorTypedPtr@UCFS_LAYERS@@@@UAEPAXI@Z 004125a3 f i Stage.obj
 0001:000115a3       ??_G?$TGlobalAllocatorTypedPtr@UCFS_CHARS@@@@UAEPAXI@Z 004125a3 f i Stage.obj
 0001:000115a3       ??_G?$TGlobalAllocatorTypedPtr@UCFS_LAYERS@@@@UAEPAXI@Z 004125a3 f i Stage.obj
 0001:000115bf       ??1?$CArray@V?$CArray@UtagPOINT@@AAU1@@@AAV1@@@UAE@XZ 004125bf f i Stage.obj
 0001:0001161d       ?Serialize@?$CArray@V?$CArray@UtagPOINT@@AAU1@@@AAV1@@@UAEXAAVCArchive@@@Z 0041261d f i Stage.obj
 0001:0001165c       ??_G?$CArray@V?$CArray@UtagPOINT@@AAU1@@@AAV1@@@UAEPAXI@Z 0041265c f i Stage.obj
 0001:0001165c       ??_E?$CArray@V?$CArray@UtagPOINT@@AAU1@@@AAV1@@@UAEPAXI@Z 0041265c f i Stage.obj
 0001:00011678       ?SerializeElements@@YGXAAVCArchive@@PAV?$CArray@UtagPOINT@@AAU1@@@H@Z 00412678 f i Stage.obj
 0001:000116ab       ??_EStage@@WBA@AEPAXI@Z    004126ab f i Stage.obj
 0001:000116b3       ??0SubStage@@QAE@XZ        004126b3 f   SubStage.obj
 0001:000116f8       ??_GSubStage@@UAEPAXI@Z    004126f8 f i SubStage.obj
 0001:000116f8       ??_ESubStage@@UAEPAXI@Z    004126f8 f i SubStage.obj
 0001:00011714       ??1SubStage@@UAE@XZ        00412714 f i SubStage.obj
 0001:00011749       ?GetStageName@SubStage@@UBE?AVCString@@XZ 00412749 f   SubStage.obj
 0001:00011764       ?GetLabelName@SubStage@@UBE?AVCString@@XZ 00412764 f   SubStage.obj
 0001:0001177f       ?SetStageName@SubStage@@QAEXPBD@Z 0041277f f   SubStage.obj
 0001:0001178e       ?Serialize@SubStage@@EAEXPAVSDOMArchive@@@Z 0041278e f   SubStage.obj
 0001:000117b3       ?factory@SubStage@@SAPAVSDOMSerializable@@PBG@Z 004127b3 f   SubStage.obj
 0001:0001180d       ?namer@SubStage@@SAPBGPAVSDOMSerializable@@@Z 0041280d f   SubStage.obj
 0001:00011851       ??_ESubStage@@WBA@AEPAXI@Z 00412851 f i SubStage.obj
 0001:00011859       ??0SubStages@@QAE@XZ       00412859 f   SubStages.obj
 0001:000118c6       ??_GSubStages@@UAEPAXI@Z   004128c6 f i SubStages.obj
 0001:000118c6       ??_ESubStages@@UAEPAXI@Z   004128c6 f i SubStages.obj
 0001:000118e2       ??1?$TOLMOwners@VAction@@$0A@@@UAE@XZ 004128e2 f i SubStages.obj
 0001:000118e2       ??1?$TOLMOwners@VSubStage@@$00@@UAE@XZ 004128e2 f i SubStages.obj
 0001:000118e2       ??1?$TOLMOwners@VLayer@@$0A@@@UAE@XZ 004128e2 f i SubStages.obj
 0001:000118e2       ??1?$TOLMOwners@VChar@@$00@@UAE@XZ 004128e2 f i SubStages.obj
 0001:000118e7       ??1SubStages@@UAE@XZ       004128e7 f   SubStages.obj
 0001:00011943       ?GetSubStage@SubStages@@QBEPBVSubStage@@H@Z 00412943 f   SubStages.obj
 0001:00011943       ?GetSubStage@SubStages@@QAEPAVSubStage@@H@Z 00412943 f   SubStages.obj
 0001:0001195b       ?Serialize@SubStages@@UAEXPAVSDOMArchive@@@Z 0041295b f   SubStages.obj
 0001:0001196a       ?Build@SubStages@@UBEXPAVBuilder@@@Z 0041296a f   SubStages.obj
 0001:000119aa       ?GetSubStageIndex@SubStages@@QBEHPBVStage@@@Z 004129aa f   SubStages.obj
 0001:000119ed       ?GetLabelList@SubStages@@QBEXAAV?$list@U?$pair@PBVLabel@@VCString@@@std@@V?$allocator@U?$pair@PBVLabel@@VCString@@@std@@@2@@std@@@Z 004129ed f   SubStages.obj
 0001:00011a2c       ?Serialize@?$TOLMOwners@VSubStage@@$00@@UAEXPAVSDOMArchive@@@Z 00412a2c f i SubStages.obj
 0001:00011a47       ??_ESubStages@@W7AEPAXI@Z  00412a47 f i SubStages.obj
 0001:00011a4f       ??0Buildable@@QAE@XZ       00412a4f f   Buildable.obj
 0001:00011a60       ??_GBuildable@@UAEPAXI@Z   00412a60 f i Buildable.obj
 0001:00011a60       ??_EBuildable@@UAEPAXI@Z   00412a60 f i Buildable.obj
 0001:00011a7c       ??1Buildable@@UAE@XZ       00412a7c f   Buildable.obj
 0001:00011a83       ?PreBuild@Buildable@@MBEXPAVBuilder@@@Z 00412a83 f   Buildable.obj
 0001:00011ab0       ?PostBuild@Buildable@@MBEXPAVBuilder@@@Z 00412ab0 f   Buildable.obj
 0001:00011adf       ??0Builder@@QAE@PAVAppli@@PAVBuildOutput@@@Z 00412adf f   Builder.obj
 0001:00011b75       ??1?$map@PBVBuildable@@HU?$less@PBVBuildable@@@std@@V?$allocator@H@3@@std@@QAE@XZ 00412b75 f i Builder.obj
 0001:00011b7a       ?Build@Builder@@QAEXPBVBuildable@@@Z 00412b7a f   Builder.obj
 0001:00011b9f       ?Build@Builder@@QAEXXZ     00412b9f f   Builder.obj
 0001:00011bca       ?Prepare@Builder@@AAEXXZ   00412bca f   Builder.obj
 0001:00011c53       ?Post@Builder@@AAEXXZ      00412c53 f   Builder.obj
 0001:00011d86       ?BuildFirst@Builder@@AAEXXZ 00412d86 f   Builder.obj
 0001:00011dab       ?BuildLast@Builder@@AAEXXZ 00412dab f   Builder.obj
 0001:00011df1       ?BeginInstruction@Builder@@QAEXXZ 00412df1 f   Builder.obj
 0001:00011e0f       ?EndInstruction@Builder@@QAEXXZ 00412e0f f   Builder.obj
 0001:00011e23       ?WriteInstruction@Builder@@QAEXH@Z 00412e23 f   Builder.obj
 0001:00011e47       ?MarkFrame@Builder@@AAEXH@Z 00412e47 f   Builder.obj
 0001:00011ea7       ?BuildLabelsPre@Builder@@AAEXXZ 00412ea7 f   Builder.obj
 0001:00011ede       ?BuildLabelsPost@Builder@@AAEXXZ 00412ede f   Builder.obj
 0001:00011f38       ?GenerateADF@Builder@@QBE?AVCString@@PBDI@Z 00412f38 f   Builder.obj
 0001:0001205a       ??1?$map@VCString@@V1@U?$less@VCString@@@std@@V?$allocator@VCString@@@3@@std@@QAE@XZ 0041305a f i Builder.obj
 0001:0001205f       ?GenerateADFFile@Builder@@QBEXPBD0@Z 0041305f f   Builder.obj
 0001:00012112       ?GenerateHTMFile@Builder@@QBEXPBD0@Z 00413112 f   Builder.obj
 0001:000121c8       ?GetValues@Builder@@ABEXAAV?$map@VCString@@V1@U?$less@VCString@@@std@@V?$allocator@VCString@@@3@@std@@@Z 004131c8 f   Builder.obj
 0001:000122ff       ?GetSourcePath@Builder@@ABE?AVCString@@PBD@Z 004132ff f   Builder.obj
 0001:0001242e       ?ReplaceValues@Builder@@ABE?AVCString@@PBDABV?$map@VCString@@V1@U?$less@VCString@@@std@@V?$allocator@VCString@@@3@@std@@@Z 0041342e f   Builder.obj
 0001:0001255f       ?GenerateJARFile@Builder@@QBEXPBD@Z 0041355f f   Builder.obj
 0001:000128b3       ?GenerateSDCFile@Builder@@QBEXPBD@Z 004138b3 f   Builder.obj
 0001:0001291d       ?SetWritingPos@Builder@@QAEHH@Z 0041391d f   Builder.obj
 0001:00012933       ?WriteUI8@Builder@@QAEXH@Z 00413933 f   Builder.obj
 0001:0001296a       ?WriteUI16@Builder@@QAEXH@Z 0041396a f   Builder.obj
 0001:0001298f       ?WriteUI32@Builder@@QAEXH@Z 0041398f f   Builder.obj
 0001:000129d0       ?WriteSI16@Builder@@QAEXH@Z 004139d0 f   Builder.obj
 0001:000129dc       ?CastDoubleToFI25@Builder@@CAXNAAH0@Z 004139dc f   Builder.obj
 0001:00012a17       ?WriteFI24@Builder@@QAEXN@Z 00413a17 f   Builder.obj
 0001:00012a4f       ?SubBits@Builder@@CAHHHH@Z 00413a4f f   Builder.obj
 0001:00012a66       ?WriteXY@Builder@@QAEXHH@Z 00413a66 f   Builder.obj
 0001:00012ace       ?WriteColor@Builder@@QAEXK@Z 00413ace f   Builder.obj
 0001:00012b01       ?WriteBuffer@Builder@@QAEXPBXH@Z 00413b01 f   Builder.obj
 0001:00012b32       ?WriteSJIS@Builder@@QAEXPBD@Z 00413b32 f   Builder.obj
 0001:00012b4f       ?WriteChar@Builder@@QAEXPBVChar@@H@Z 00413b4f f   Builder.obj
 0001:00012b80       ?WriteCharRef@Builder@@QAEXPBVChar@@@Z 00413b80 f   Builder.obj
 0001:00012ba2       ?WriteAction@Builder@@QAEXH@Z 00413ba2 f   Builder.obj
 0001:00012ba2       ?WriteDepth@Builder@@QAEXH@Z 00413ba2 f   Builder.obj
 0001:00012bae       ?WriteLabelRef@Builder@@QAEXPBVLabel@@@Z 00413bae f   Builder.obj
 0001:00012bc6       ?IsValidLabel@Builder@@QBEHPBVLabel@@@Z 00413bc6 f   Builder.obj
 0001:00012bef       ?WriteMatrix@Builder@@QAEXPBVAffineMatrix@@@Z 00413bef f   Builder.obj
 0001:00012c14       ?WriteColoring@Builder@@QAEXPBVColoring@@@Z 00413c14 f   Builder.obj
 0001:00012c6a       ?EnterStage@Builder@@QAEXH@Z 00413c6a f   Builder.obj
 0001:00012c9f       ?NotifyErr@Builder@@QAAXIZZ 00413c9f f   Builder.obj
 0001:00012d2f       ?GetAbsoluteFramePos@Builder@@QBEHH@Z 00413d2f f   Builder.obj
 0001:00012d3c       ?UseChar@Builder@@QAEXPBVBuildable@@@Z 00413d3c f   Builder.obj
 0001:00012d8d       ?GetCharID@Builder@@QBEHPBVBuildable@@@Z 00413d8d f   Builder.obj
 0001:00012dce       ?GetCharUseCount@Builder@@QBEHPBVBuildable@@@Z 00413dce f   Builder.obj
 0001:00012df9       ??0BuildContext@@QAA@PAVBuilder@@IZZ 00413df9 f   Builder.obj
 0001:00012e6f       ??0BuildContext@@QAE@PAVBuilder@@PBD@Z 00413e6f f   Builder.obj
 0001:00012e87       ??1BuildContext@@QAE@XZ    00413e87 f   Builder.obj
 0001:00012e8e       ?EnterContext@Builder@@AAEXPBD@Z 00413e8e f   Builder.obj
 0001:00012f39       ?ExitContext@Builder@@AAEXXZ 00413f39 f   Builder.obj
 0001:00012f41       ?GetCurrentContext@Builder@@ABE?AVCString@@XZ 00413f41 f   Builder.obj
 0001:00012f61       ??1?$_Tree@PBVBuildable@@U?$pair@QBVBuildable@@H@std@@U_Kfn@?$map@PBVBuildable@@HU?$less@PBVBuildable@@@std@@V?$allocator@H@3@@3@U?$less@PBVBuildable@@@3@V?$allocator@H@3@@std@@QAE@XZ 00413f61 f i Builder.obj
 0001:00012fc2       ?resize@?$vector@HV?$allocator@H@std@@@std@@QAEXIABH@Z 00413fc2 f i Builder.obj
 0001:00013021       ??1?$list@U?$pair@PBVLabel@@VCString@@@std@@V?$allocator@U?$pair@PBVLabel@@VCString@@@std@@@2@@std@@QAE@XZ 00414021 f i Builder.obj
 0001:00013059       ??A?$map@VCString@@V1@U?$less@VCString@@@std@@V?$allocator@VCString@@@3@@std@@QAEAAVCString@@ABV2@@Z 00414059 f i Builder.obj
 0001:000130dd       ??1?$_Tree@VCString@@U?$pair@$$CBVCString@@V1@@std@@U_Kfn@?$map@VCString@@V1@U?$less@VCString@@@std@@V?$allocator@VCString@@@3@@3@U?$less@VCString@@@3@V?$allocator@VCString@@@3@@std@@QAE@XZ 004140dd f i Builder.obj
 0001:0001313e       ??1?$pair@$$CBVCString@@V1@@std@@QAE@XZ 0041413e f i Builder.obj
 0001:00013173       ?insert@?$_Tree@PBVBuildable@@U?$pair@QBVBuildable@@H@std@@U_Kfn@?$map@PBVBuildable@@HU?$less@PBVBuildable@@@std@@V?$allocator@H@3@@3@U?$less@PBVBuildable@@@3@V?$allocator@H@3@@std@@QAE?AU?$pair@Viterator@?$_Tree@PBVBuildable@@U?$pair@QBVBuildable@@H@std@@U_Kfn@?$map@PBVBuildable@@HU?$less@PBVBuildable@@@std@@V?$allocator@H@3@@3@U?$less@PBVBuildable@@@3@V?$allocator@H@3@@std@@_N@2@ABU?$pair@QBVBuildable@@H@2@@Z 00414173 f i Builder.obj
 0001:00013211       ?erase@?$_Tree@PBVBuildable@@U?$pair@QBVBuildable@@H@std@@U_Kfn@?$map@PBVBuildable@@HU?$less@PBVBuildable@@@std@@V?$allocator@H@3@@3@U?$less@PBVBuildable@@@3@V?$allocator@H@3@@std@@QAE?AViterator@12@V312@0@Z 00414211 f i Builder.obj
 0001:000132a8       ?find@?$_Tree@PBVBuildable@@U?$pair@QBVBuildable@@H@std@@U_Kfn@?$map@PBVBuildable@@HU?$less@PBVBuildable@@@std@@V?$allocator@H@3@@3@U?$less@PBVBuildable@@@3@V?$allocator@H@3@@std@@QBE?AVconst_iterator@12@ABQBVBuildable@@@Z 004142a8 f i Builder.obj
 0001:000132a8       ?find@?$_Tree@PBVBuildable@@U?$pair@QBVBuildable@@H@std@@U_Kfn@?$map@PBVBuildable@@HU?$less@PBVBuildable@@@std@@V?$allocator@H@3@@3@U?$less@PBVBuildable@@@3@V?$allocator@H@3@@std@@QAE?AViterator@12@ABQBVBuildable@@@Z 004142a8 f i Builder.obj
 0001:000132e2       ??0?$deque@VCString@@V?$allocator@VCString@@@std@@@std@@QAE@ABV?$allocator@VCString@@@1@@Z 004142e2 f i Builder.obj
 0001:00013312       ?back@?$deque@VCString@@V?$allocator@VCString@@@std@@@std@@QBEABVCString@@XZ 00414312 f i Builder.obj
 0001:0001334d       ?push_back@?$deque@VCString@@V?$allocator@VCString@@@std@@@std@@QAEXABVCString@@@Z 0041434d f i Builder.obj
 0001:000133a2       ?pop_back@?$deque@VCString@@V?$allocator@VCString@@@std@@@std@@QAEXXZ 004143a2 f i Builder.obj
 0001:000133d2       ?insert@?$vector@HV?$allocator@H@std@@@std@@QAEXPAHIABH@Z 004143d2 f i Builder.obj
 0001:000133d2       ?insert@?$vector@PBVSndChar@@V?$allocator@PBVSndChar@@@std@@@std@@QAEXPAPBVSndChar@@IABQBV3@@Z 004143d2 f i Builder.obj
 0001:000133d2       ?insert@?$vector@PBVChar@@V?$allocator@PBVChar@@@std@@@std@@QAEXPAPBVChar@@IABQBV3@@Z 004143d2 f i Builder.obj
 0001:000135a2       ?erase@?$_Tree@VCString@@U?$pair@$$CBVCString@@V1@@std@@U_Kfn@?$map@VCString@@V1@U?$less@VCString@@@std@@V?$allocator@VCString@@@3@@3@U?$less@VCString@@@3@V?$allocator@VCString@@@3@@std@@QAE?AViterator@12@V312@0@Z 004145a2 f i Builder.obj
 0001:00013619       ?erase@?$_Tree@PBVBuildable@@U?$pair@QBVBuildable@@H@std@@U_Kfn@?$map@PBVBuildable@@HU?$less@PBVBuildable@@@std@@V?$allocator@H@3@@3@U?$less@PBVBuildable@@@3@V?$allocator@H@3@@std@@QAE?AViterator@12@V312@@Z 00414619 f i Builder.obj
 0001:000138b0       ?_Erase@?$_Tree@PBVBuildable@@U?$pair@QBVBuildable@@H@std@@U_Kfn@?$map@PBVBuildable@@HU?$less@PBVBuildable@@@std@@V?$allocator@H@3@@3@U?$less@PBVBuildable@@@3@V?$allocator@H@3@@std@@IAEXPAU_Node@12@@Z 004148b0 f i Builder.obj
 0001:000138e6       ?_Init@?$_Tree@PBVBuildable@@U?$pair@QBVBuildable@@H@std@@U_Kfn@?$map@PBVBuildable@@HU?$less@PBVBuildable@@@std@@V?$allocator@H@3@@3@U?$less@PBVBuildable@@@3@V?$allocator@H@3@@std@@IAEXXZ 004148e6 f i Builder.obj
 0001:00013971       ?_Insert@?$_Tree@PBVBuildable@@U?$pair@QBVBuildable@@H@std@@U_Kfn@?$map@PBVBuildable@@HU?$less@PBVBuildable@@@std@@V?$allocator@H@3@@3@U?$less@PBVBuildable@@@3@V?$allocator@H@3@@std@@IAE?AViterator@12@PAU_Node@12@0ABU?$pair@QBVBuildable@@H@2@@Z 00414971 f i Builder.obj
 0001:00013ac2       ?_Buyback@?$deque@VCString@@V?$allocator@VCString@@@std@@@std@@IAEXXZ 00414ac2 f i Builder.obj
 0001:00013bc3       ?_Freeback@?$deque@VCString@@V?$allocator@VCString@@@std@@@std@@IAEXXZ 00414bc3 f i Builder.obj
 0001:00013c4f       ?erase@?$list@U?$pair@PBVLabel@@VCString@@@std@@V?$allocator@U?$pair@PBVLabel@@VCString@@@std@@@2@@std@@QAE?AViterator@12@V312@@Z 00414c4f f i Builder.obj
 0001:00013c87       ?insert@?$_Tree@VCString@@U?$pair@$$CBVCString@@V1@@std@@U_Kfn@?$map@VCString@@V1@U?$less@VCString@@@std@@V?$allocator@VCString@@@3@@3@U?$less@VCString@@@3@V?$allocator@VCString@@@3@@std@@QAE?AU?$pair@Viterator@?$_Tree@VCString@@U?$pair@$$CBVCString@@V1@@std@@U_Kfn@?$map@VCString@@V1@U?$less@VCString@@@std@@V?$allocator@VCString@@@3@@3@U?$less@VCString@@@3@V?$allocator@VCString@@@3@@std@@_N@2@ABU?$pair@$$CBVCString@@V1@@2@@Z 00414c87 f i Builder.obj
 0001:00013d45       ?erase@?$_Tree@VCString@@U?$pair@$$CBVCString@@V1@@std@@U_Kfn@?$map@VCString@@V1@U?$less@VCString@@@std@@V?$allocator@VCString@@@3@@3@U?$less@VCString@@@3@V?$allocator@VCString@@@3@@std@@QAE?AViterator@12@V312@@Z 00414d45 f i Builder.obj
 0001:00013fe7       ?_Erase@?$_Tree@VCString@@U?$pair@$$CBVCString@@V1@@std@@U_Kfn@?$map@VCString@@V1@U?$less@VCString@@@std@@V?$allocator@VCString@@@3@@3@U?$less@VCString@@@3@V?$allocator@VCString@@@3@@std@@IAEXPAU_Node@12@@Z 00414fe7 f i Builder.obj
 0001:00014025       ?_Init@?$_Tree@VCString@@U?$pair@$$CBVCString@@V1@@std@@U_Kfn@?$map@VCString@@V1@U?$less@VCString@@@std@@V?$allocator@VCString@@@3@@3@U?$less@VCString@@@3@V?$allocator@VCString@@@3@@std@@IAEXXZ 00415025 f i Builder.obj
 0001:000140b0       ?_Inc@const_iterator@?$_Tree@VCString@@U?$pair@$$CBVCString@@V1@@std@@U_Kfn@?$map@VCString@@V1@U?$less@VCString@@@std@@V?$allocator@VCString@@@3@@3@U?$less@VCString@@@3@V?$allocator@VCString@@@3@@std@@QAEXXZ 004150b0 f i Builder.obj
 0001:000140e6       ?_Lbound@?$_Tree@PBVBuildable@@U?$pair@QBVBuildable@@H@std@@U_Kfn@?$map@PBVBuildable@@HU?$less@PBVBuildable@@@std@@V?$allocator@H@3@@3@U?$less@PBVBuildable@@@3@V?$allocator@H@3@@std@@IBEPAU_Node@12@ABQBVBuildable@@@Z 004150e6 f i Builder.obj
 0001:00014113       ?_Lrotate@?$_Tree@PBVBuildable@@U?$pair@QBVBuildable@@H@std@@U_Kfn@?$map@PBVBuildable@@HU?$less@PBVBuildable@@@std@@V?$allocator@H@3@@3@U?$less@PBVBuildable@@@3@V?$allocator@H@3@@std@@IAEXPAU_Node@12@@Z 00415113 f i Builder.obj
 0001:00014157       ?_Rrotate@?$_Tree@PBVBuildable@@U?$pair@QBVBuildable@@H@std@@U_Kfn@?$map@PBVBuildable@@HU?$less@PBVBuildable@@@std@@V?$allocator@H@3@@3@U?$less@PBVBuildable@@@3@V?$allocator@H@3@@std@@IAEXPAU_Node@12@@Z 00415157 f i Builder.obj
 0001:0001419d       ?_Dec@const_iterator@?$_Tree@PBVBuildable@@U?$pair@QBVBuildable@@H@std@@U_Kfn@?$map@PBVBuildable@@HU?$less@PBVBuildable@@@std@@V?$allocator@H@3@@3@U?$less@PBVBuildable@@@3@V?$allocator@H@3@@std@@QAEXXZ 0041519d f i Builder.obj
 0001:000141d9       ?_Getmap@?$deque@VCString@@V?$allocator@VCString@@@std@@@std@@IAEXXZ 004151d9 f i Builder.obj
 0001:000141f2       ?_Growmap@?$deque@VCString@@V?$allocator@VCString@@@std@@@std@@IAEPAPAVCString@@I@Z 004151f2 f i Builder.obj
 0001:00014256       ?_Insert@?$_Tree@VCString@@U?$pair@$$CBVCString@@V1@@std@@U_Kfn@?$map@VCString@@V1@U?$less@VCString@@@std@@V?$allocator@VCString@@@3@@3@U?$less@VCString@@@3@V?$allocator@VCString@@@3@@std@@IAE?AViterator@12@PAU_Node@12@0ABU?$pair@$$CBVCString@@V1@@2@@Z 00415256 f i Builder.obj
 0001:000143b3       ?_Lrotate@?$_Tree@VCString@@U?$pair@$$CBVCString@@V1@@std@@U_Kfn@?$map@VCString@@V1@U?$less@VCString@@@std@@V?$allocator@VCString@@@3@@3@U?$less@VCString@@@3@V?$allocator@VCString@@@3@@std@@IAEXPAU_Node@12@@Z 004153b3 f i Builder.obj
 0001:000143f7       ?_Rrotate@?$_Tree@VCString@@U?$pair@$$CBVCString@@V1@@std@@U_Kfn@?$map@VCString@@V1@U?$less@VCString@@@std@@V?$allocator@VCString@@@3@@3@U?$less@VCString@@@3@V?$allocator@VCString@@@3@@std@@IAEXPAU_Node@12@@Z 004153f7 f i Builder.obj
 0001:0001443d       ?_Inc@const_iterator@?$_Tree@PBVBuildable@@U?$pair@QBVBuildable@@H@std@@U_Kfn@?$map@PBVBuildable@@HU?$less@PBVBuildable@@@std@@V?$allocator@H@3@@3@U?$less@PBVBuildable@@@3@V?$allocator@H@3@@std@@QAEXXZ 0041543d f i Builder.obj
 0001:00014473       ?_Dec@const_iterator@?$_Tree@VCString@@U?$pair@$$CBVCString@@V1@@std@@U_Kfn@?$map@VCString@@V1@U?$less@VCString@@@std@@V?$allocator@VCString@@@3@@3@U?$less@VCString@@@3@V?$allocator@VCString@@@3@@std@@QAEXXZ 00415473 f i Builder.obj
 0001:000144af       ?_Add@const_iterator@?$deque@VCString@@V?$allocator@VCString@@@std@@@std@@IAEXH@Z 004154af f i Builder.obj
 0001:00014508       ?SetSize@?$CArray@EAAE@@QAEXHH@Z 00415508 f i Builder.obj
 0001:00014508       ?SetSize@?$CArray@EE@@QAEXHH@Z 00415508 f i Builder.obj
 0001:000145ff       ??1?$CArray@EAAE@@UAE@XZ   004155ff f i Builder.obj
 0001:0001461e       ?_Construct@std@@YAXPAVCString@@ABV2@@Z 0041561e f i Builder.obj
 0001:0001464b       ?_Destroy@std@@YAXPAU?$pair@$$CBVCString@@V1@@1@@Z 0041564b f i Builder.obj
 0001:00014654       ?_Construct@std@@YAXPAU?$pair@$$CBVCString@@V1@@1@ABU21@@Z 00415654 f i Builder.obj
 0001:00014698       ??_E?$CArray@EAAE@@UAEPAXI@Z 00415698 f i Builder.obj
 0001:00014698       ??_G?$CArray@EAAE@@UAEPAXI@Z 00415698 f i Builder.obj
 0001:000146b4       ??0BuildOutput@@QAE@XZ     004156b4 f   BuildOutput.obj
 0001:000146dc       ?GetCount@COLMOwners@@QBEHXZ 004156dc f   BuildOutput.obj
 0001:000146dc       ?IsStoring@SDOMArchive@@QBEHXZ 004156dc f   BuildOutput.obj
 0001:000146dc       ?GetItemCount@BuildOutput@@QBEHXZ 004156dc f   BuildOutput.obj
 0001:000146e0       ?GetItem@BuildOutput@@QBEABUBUILD_OUTPUT_ITEM@@H@Z 004156e0 f   BuildOutput.obj
 0001:00014703       ?BeginBuildOutput@BuildOutput@@AAEXXZ 00415703 f   BuildOutput.obj
 0001:00014761       ?EndBuildOutput@BuildOutput@@AAEXHH@Z 00415761 f   BuildOutput.obj
 0001:0001480f       ?IsContinueMsgRouting@Cnt@@ABEHXZ 0041580f f   BuildOutput.obj
 0001:0001480f       ?GetJarSize@BuildOutput@@QBEHXZ 0041580f f   BuildOutput.obj
 0001:00014813       ?GetCaseCount@RandomJumpAction@@QBEHXZ 00415813 f   BuildOutput.obj
 0001:00014813       ?GetCntMgr@Cnt@@IAEPAVCntMgr@@XZ 00415813 f   BuildOutput.obj
 0001:00014813       ?GetMaxJarSize@BuildOutput@@QBEHXZ 00415813 f   BuildOutput.obj
 0001:00014813       ?GetCntMgr@Cnt@@IBEPBVCntMgr@@XZ 00415813 f   BuildOutput.obj
 0001:00014817       ?GetErrCount@BuildOutput@@QBEHXZ 00415817 f   BuildOutput.obj
 0001:0001481b       ?NotifyErr@BuildOutput@@AAEXPBD0@Z 0041581b f   BuildOutput.obj
 0001:00014834       ?AppendItem@BuildOutput@@AAEXW4TYPE@BUILD_OUTPUT_ITEM@@PBD1@Z 00415834 f   BuildOutput.obj
 0001:000148b1       ??1BUILD_OUTPUT_ITEM@@QAE@XZ 004158b1 f i BuildOutput.obj
 0001:000148e7       ?BuildOutputItem2Icon@BuildOutput@@SAHW4TYPE@BUILD_OUTPUT_ITEM@@@Z 004158e7 f   BuildOutput.obj
 0001:000148f8       ?BuildOutputItem2Text@BuildOutput@@SA?AVCString@@W4TYPE@BUILD_OUTPUT_ITEM@@@Z 004158f8 f   BuildOutput.obj
 0001:00014965       ?RemoveHead@?$CList@UBUILD_OUTPUT_ITEM@@AAU1@@@QAE?AUBUILD_OUTPUT_ITEM@@XZ 00415965 f i BuildOutput.obj
 0001:000149e9       ?AddTail@?$CList@UBUILD_OUTPUT_ITEM@@AAU1@@@QAEPAU__POSITION@@AAUBUILD_OUTPUT_ITEM@@@Z 004159e9 f i BuildOutput.obj
 0001:00014a1d       ??1?$CList@UBUILD_OUTPUT_ITEM@@AAU1@@@UAE@XZ 00415a1d f i BuildOutput.obj
 0001:00014a50       ?Serialize@?$CList@UBUILD_OUTPUT_ITEM@@AAU1@@@UAEXAAVCArchive@@@Z 00415a50 f i BuildOutput.obj
 0001:00014b01       ??_G?$CList@UBUILD_OUTPUT_ITEM@@AAU1@@@UAEPAXI@Z 00415b01 f i BuildOutput.obj
 0001:00014b01       ??_E?$CList@UBUILD_OUTPUT_ITEM@@AAU1@@@UAEPAXI@Z 00415b01 f i BuildOutput.obj
 0001:00014b1d       ??0BUILD_OUTPUT_ITEM@@QAE@ABU0@@Z 00415b1d f i BuildOutput.obj
 0001:00014b64       ??4BUILD_OUTPUT_ITEM@@QAEAAU0@ABU0@@Z 00415b64 f i BuildOutput.obj
 0001:00014b8f       ?RemoveAll@?$CList@UBUILD_OUTPUT_ITEM@@AAU1@@@QAEXXZ 00415b8f f i BuildOutput.obj
 0001:00014bc7       ?NewNode@?$CList@UBUILD_OUTPUT_ITEM@@AAU1@@@IAEPAUCNode@1@PAU21@0@Z 00415bc7 f i BuildOutput.obj
 0001:00014c2a       ?FreeNode@?$CList@UBUILD_OUTPUT_ITEM@@AAU1@@@IAEXPAUCNode@1@@Z 00415c2a f i BuildOutput.obj
 0001:00014c56       ?SerializeElements@@YGXAAVCArchive@@PAUBUILD_OUTPUT_ITEM@@H@Z 00415c56 f i BuildOutput.obj
 0001:00014c89       ?DestructElements@@YGXPAUBUILD_OUTPUT_ITEM@@H@Z 00415c89 f i BuildOutput.obj
 0001:00014cad       ?ConstructElements@@YGXPAUBUILD_OUTPUT_ITEM@@H@Z 00415cad f i BuildOutput.obj
 0001:00014d15       ?testSubBits@BuildTest@@QAEXXZ 00415d15 f   BuildTest.obj
 0001:00015055       ?testCastDoubleToFI25@BuildTest@@QAEXXZ 00416055 f   BuildTest.obj
 0001:000158cc       ??1CCmdExecListener@@QAE@XZ 004168cc f i BuildTest.obj
 0001:000158cc       ??1BuildTestExecListener@@QAE@XZ 004168cc f i BuildTest.obj
 0001:000158d3       ??0BuildTestExecListener@@QAE@XZ 004168d3 f i BuildTest.obj
 0001:00015906       ?testBuildFiles@BuildTest@@QAEXXZ 00416906 f   BuildTest.obj
 0001:00015c1c       ??1SDOMArchive@@QAE@XZ     00416c1c f i BuildTest.obj
 0001:00015c52       ??1BuildOutput@@QAE@XZ     00416c52 f i BuildTest.obj
 0001:00015c88       ??1Builder@@QAE@XZ         00416c88 f i BuildTest.obj
 0001:00015cf6       ??1?$stack@VCString@@V?$deque@VCString@@V?$allocator@VCString@@@std@@@std@@@std@@QAE@XZ 00416cf6 f i BuildTest.obj
 0001:00015d0a       ?testSetWritingPos@BuildTest@@QAEXXZ 00416d0a f   BuildTest.obj
 0001:000162aa       ??1?$_Tree@HU?$pair@$$CBHPAVCOLMReferer@@@std@@U_Kfn@?$multimap@HPAVCOLMReferer@@U?$less@H@std@@V?$allocator@PAVCOLMReferer@@@3@@2@U?$less@H@2@V?$allocator@PAVCOLMReferer@@@2@@std@@QAE@XZ 004172aa f i BuildTest.obj
 0001:0001630b       ??4?$auto_ptr@VSDOMWriter@@@std@@QAEAAV01@ABV01@@Z 0041730b f i BuildTest.obj
 0001:0001630b       ??4?$auto_ptr@VPlayer@@@std@@QAEAAV01@ABV01@@Z 0041730b f i BuildTest.obj
 0001:0001630b       ??4?$auto_ptr@VSDOMReader@@@std@@QAEAAV01@ABV01@@Z 0041730b f i BuildTest.obj
 0001:00016349       ??1?$auto_ptr@VSDOMWriter@@@std@@QAE@XZ 00417349 f i BuildTest.obj
 0001:00016349       ??1?$auto_ptr@VPlayer@@@std@@QAE@XZ 00417349 f i BuildTest.obj
 0001:00016349       ??1?$auto_ptr@VSDOMReader@@@std@@QAE@XZ 00417349 f i BuildTest.obj
 0001:00016358       ??0?$AutoRegisterSuite@VBuildTest@@@CppUnit@@QAE@XZ 00417358 f i BuildTest.obj
 0001:00016382       ??_E?$TestSuiteFactory@VBuildTest@@@CppUnit@@UAEPAXI@Z 00417382 f i BuildTest.obj
 0001:00016382       ??_G?$TestSuiteFactory@VBuildTest@@@CppUnit@@UAEPAXI@Z 00417382 f i BuildTest.obj
 0001:0001639e       ??1?$TestSuiteFactory@VBuildTest@@@CppUnit@@UAE@XZ 0041739e f i BuildTest.obj
 0001:000163a5       ??_ETestFactory@CppUnit@@UAEPAXI@Z 004173a5 f i BuildTest.obj
 0001:000163a5       ??_GTestFactory@CppUnit@@UAEPAXI@Z 004173a5 f i BuildTest.obj
 0001:000163c2       ?erase@?$_Tree@HU?$pair@$$CBHPAVCOLMReferer@@@std@@U_Kfn@?$multimap@HPAVCOLMReferer@@U?$less@H@std@@V?$allocator@PAVCOLMReferer@@@3@@2@U?$less@H@2@V?$allocator@PAVCOLMReferer@@@2@@std@@QAE?AViterator@12@V312@0@Z 004173c2 f i BuildTest.obj
 0001:00016459       ?pop_front@?$deque@VCString@@V?$allocator@VCString@@@std@@@std@@QAEXXZ 00417459 f i BuildTest.obj
 0001:00016480       ?makeTest@?$TestSuiteFactory@VBuildTest@@@CppUnit@@UAEPAVTest@2@XZ 00417480 f i BuildTest.obj
 0001:00016485       ?suite@BuildTest@@SAPAVTestSuite@CppUnit@@XZ 00417485 f i BuildTest.obj
 0001:000164d6       ?makeFixture@ThisTestFixtureFactory@BuildTest@@EAEPAVTestFixture@CppUnit@@XZ 004174d6 f i BuildTest.obj
 0001:000164ec       ?registerTests@BuildTest@@SAXPAVTestSuite@CppUnit@@PAVTestFixtureFactory@3@@Z 004174ec f i BuildTest.obj
 0001:000165d7       ?AssertValid@CObject@@UBEXXZ 004175d7 f i BuildTest.obj
 0001:000165d7       ?OnBarEndDock@SECControlBar@@UAEXXZ 004175d7 f i BuildTest.obj
 0001:000165d7       ?OnCancel@StagesDlg@@MAEXXZ 004175d7 f i BuildTest.obj
 0001:000165d7       ?tearDown@BuildTest@@UAEXXZ 004175d7 f i BuildTest.obj
 0001:000165d7       ?tearDown@TestFixture@CppUnit@@UAEXXZ 004175d7 f i BuildTest.obj
 0001:000165d7       ?OnCancel@EditColoringMeidoDlg@@MAEXXZ 004175d7 f i BuildTest.obj
 0001:000165d7       ?OnBarEndFloat@SECControlBar@@UAEXXZ 004175d7 f i BuildTest.obj
 0001:000165d7       ?OnOK@EditColoringMeidoDlg@@MAEXXZ 004175d7 f i BuildTest.obj
 0001:000165d7       ?setUp@TestFixture@CppUnit@@UAEXXZ 004175d7 f i BuildTest.obj
 0001:000165d7       ?OnOK@BuildOutputDlg@@MAEXXZ 004175d7 f i BuildTest.obj
 0001:000165d7       ?OnCancel@EditColoringSelectDlg@@MAEXXZ 004175d7 f i BuildTest.obj
 0001:000165d7       ?OnBarEndMDIFloat@SECControlBar@@UAEXXZ 004175d7 f i BuildTest.obj
 0001:000165d7       ?OnCancel@EditColoringCustomDlg@@MAEXXZ 004175d7 f i BuildTest.obj
 0001:000165d7       ?OnOK@EditColoringCustomDlg@@MAEXXZ 004175d7 f i BuildTest.obj
 0001:000165d7       ?setUp@BuildTest@@UAEXXZ   004175d7 f i BuildTest.obj
 0001:000165d7       ?OnCancel@BuildOutputDlg@@MAEXXZ 004175d7 f i BuildTest.obj
 0001:000165d7       ?OnHide@SECStdBtn@@UAEXXZ  004175d7 f i BuildTest.obj
 0001:000165d7       ??3@YAXPAX0@Z              004175d7 f i BuildTest.obj
 0001:000165d7       ?OnOK@EditColoringSelectDlg@@MAEXXZ 004175d7 f i BuildTest.obj
 0001:000165d7       ?OnOK@StagesDlg@@MAEXXZ    004175d7 f i BuildTest.obj
 0001:000165d8       ??1?$TestSuiteBuilder@VBuildTest@@@CppUnit@@QAE@XZ 004175d8 f i BuildTest.obj
 0001:000165dd       ??_GBuildTest@@UAEPAXI@Z   004175dd f i BuildTest.obj
 0001:000165dd       ??_EBuildTest@@UAEPAXI@Z   004175dd f i BuildTest.obj
 0001:000165f9       ??1BuildTest@@UAE@XZ       004175f9 f i BuildTest.obj
 0001:00016600       ??_ETestFixture@CppUnit@@UAEPAXI@Z 00417600 f i BuildTest.obj
 0001:00016600       ??_GTestFixture@CppUnit@@UAEPAXI@Z 00417600 f i BuildTest.obj
 0001:0001661d       ??0?$TestSuiteBuilder@VBuildTest@@@CppUnit@@QAE@XZ 0041761d f i BuildTest.obj
 0001:00016679       ?addTestCaller@?$TestSuiteBuilder@VBuildTest@@@CppUnit@@QAEXV?$basic_string@DU?$char_traits@D@std@@V?$allocator@D@2@@std@@P8BuildTest@@AEXXZPAV5@@Z 00417679 f i BuildTest.obj
 0001:000166ef       ?makeTestName@?$TestSuiteBuilder@VBuildTest@@@CppUnit@@QAE?AV?$basic_string@DU?$char_traits@D@std@@V?$allocator@D@2@@std@@ABV34@@Z 004176ef f i BuildTest.obj
 0001:00016765       ??0?$TestCaller@VBuildTest@@VNoExceptionExpected@CppUnit@@@CppUnit@@QAE@V?$basic_string@DU?$char_traits@D@std@@V?$allocator@D@2@@std@@P8BuildTest@@AEXXZPAV4@@Z 00417765 f i BuildTest.obj
 0001:000167e9       ?runTest@?$TestCaller@VBuildTest@@VNoExceptionExpected@CppUnit@@@CppUnit@@MAEXXZ 004177e9 f i BuildTest.obj
 0001:0001681b       ?setUp@?$TestCaller@VBuildTest@@VNoExceptionExpected@CppUnit@@@CppUnit@@MAEXXZ 0041781b f i BuildTest.obj
 0001:00016823       ?tearDown@?$TestCaller@VBuildTest@@VNoExceptionExpected@CppUnit@@@CppUnit@@MAEXXZ 00417823 f i BuildTest.obj
 0001:0001682b       ?toString@?$TestCaller@VBuildTest@@VNoExceptionExpected@CppUnit@@@CppUnit@@MBE?AV?$basic_string@DU?$char_traits@D@std@@V?$allocator@D@2@@std@@XZ 0041782b f i BuildTest.obj
 0001:00016880       ??_G?$TestCaller@VBuildTest@@VNoExceptionExpected@CppUnit@@@CppUnit@@UAEPAXI@Z 00417880 f i BuildTest.obj
 0001:00016880       ??_E?$TestCaller@VBuildTest@@VNoExceptionExpected@CppUnit@@@CppUnit@@UAEPAXI@Z 00417880 f i BuildTest.obj
 0001:0001689c       ??1?$TestCaller@VBuildTest@@VNoExceptionExpected@CppUnit@@@CppUnit@@UAE@XZ 0041789c f i BuildTest.obj
 0001:000168e9       ?_Erase@?$_Tree@HU?$pair@$$CBHPAVCOLMReferer@@@std@@U_Kfn@?$multimap@HPAVCOLMReferer@@U?$less@H@std@@V?$allocator@PAVCOLMReferer@@@3@@2@U?$less@H@2@V?$allocator@PAVCOLMReferer@@@2@@std@@IAEXPAU_Node@12@@Z 004178e9 f i BuildTest.obj
 0001:0001691f       ?_Freefront@?$deque@VCString@@V?$allocator@VCString@@@std@@@std@@IAEXXZ 0041791f f i BuildTest.obj
 0001:00016995       ??_E?$TestCaller@VBuildTest@@VNoExceptionExpected@CppUnit@@@CppUnit@@W3AEPAXI@Z 00417995 f i BuildTest.obj
 0001:000169dd       ??0Act@@QAE@XZ             004179dd f   Act.obj
 0001:00016a1e       ??0Act@@QAE@ABV0@@Z        00417a1e f   Act.obj
 0001:00016a60       ??4Act@@QAEAAV0@ABV0@@Z    00417a60 f   Act.obj
 0001:00016a72       ?CopyFrom@Act@@AAEXABV1@@Z 00417a72 f   Act.obj
 0001:00016a94       ?Init@Act@@AAEXXZ          00417a94 f   Act.obj
 0001:00016aac       ?Find@Act@@ABEHK@Z         00417aac f   Act.obj
 0001:00016ac2       ?FindIndex@Act@@QBEHK@Z    00417ac2 f   Act.obj
 0001:00016afa       ?Load@Act@@AAEHAAVCFile@@@Z 00417afa f   Act.obj
 0001:00016bd7       ?LoadResource@Act@@QAEHPAUHINSTANCE__@@I@Z 00417bd7 f   Act.obj
 0001:00016c6c       ?CreateFromPalette@Act@@QAEXPAUHPALETTE__@@H@Z 00417c6c f   Act.obj
 0001:00016c8a       ??MCOLORUSE@@QBEHABU0@@Z   00417c8a f   Act.obj
 0001:00016c9c       ?CreatePalette@Act@@QBEPAUHPALETTE__@@XZ 00417c9c f   Act.obj
 0001:00016d2a       ?SorByBitmap@Act@@QAEXABVLBitmapBase@@HK@Z 00417d2a f   Act.obj
 0001:00016f1c       ?SetPaletteEntry@Act@@SAXAAUtagPALETTEENTRY@@K@Z 00417f1c f   Act.obj
 0001:00016f38       ?CreateFromBitmap@Act@@QAEXABVLBitmapBase@@HK@Z 00417f38 f   Act.obj
 0001:00017169       ??1?$map@KHU?$less@K@std@@V?$allocator@H@2@@std@@QAE@XZ 00418169 f i Act.obj
 0001:0001716e       ?Empty@Act@@QAEXXZ         0041816e f   Act.obj
 0001:00017173       ?GetColor@Act@@QBEKH@Z     00418173 f   Act.obj
 0001:0001718e       ?Serialize@Act@@EAEXPAVSDOMArchive@@@Z 0041818e f   Act.obj
 0001:00017237       ??0CDefaultActs@@AAE@XZ    00418237 f   Act.obj
 0001:000172ed       ??1?$map@W4ACTTYPE@@V?$auto_ptr@VAct@@@std@@U?$less@W4ACTTYPE@@@3@V?$allocator@V?$auto_ptr@VAct@@@std@@@3@@std@@QAE@XZ 004182ed f i Act.obj
 0001:000172f2       ??1?$map@W4ACTTYPE@@VCString@@U?$less@W4ACTTYPE@@@std@@V?$allocator@VCString@@@4@@std@@QAE@XZ 004182f2 f i Act.obj
 0001:000172f7       ?Load@CDefaultActs@@AAEXW4ACTTYPE@@I@Z 004182f7 f   Act.obj
 0001:000173d9       ?GetDefaultActs@CDefaultActs@@SAPBV1@XZ 004183d9 f   Act.obj
 0001:00017443       ?GetAct@CDefaultActs@@QBEPBVAct@@W4ACTTYPE@@@Z 00418443 f   Act.obj
 0001:0001745e       ?GetActName@CDefaultActs@@QBE?AVCString@@W4ACTTYPE@@@Z 0041845e f   Act.obj
 0001:0001748c       ??4?$auto_ptr@VCDefaultActs@@@std@@QAEAAV01@ABV01@@Z 0041848c f i Act.obj
 0001:000174d7       ??1?$auto_ptr@VCDefaultActs@@@std@@QAE@XZ 004184d7 f i Act.obj
 0001:000174f4       ??1?$_Tree@W4ACTTYPE@@U?$pair@$$CBW4ACTTYPE@@V?$auto_ptr@VAct@@@std@@@std@@U_Kfn@?$map@W4ACTTYPE@@V?$auto_ptr@VAct@@@std@@U?$less@W4ACTTYPE@@@3@V?$allocator@V?$auto_ptr@VAct@@@std@@@3@@3@U?$less@W4ACTTYPE@@@3@V?$allocator@V?$auto_ptr@VAct@@@std@@@3@@std@@QAE@XZ 004184f4 f i Act.obj
 0001:00017555       ??A?$map@W4ACTTYPE@@VCString@@U?$less@W4ACTTYPE@@@std@@V?$allocator@VCString@@@4@@std@@QAEAAVCString@@ABW4ACTTYPE@@@Z 00418555 f i Act.obj
 0001:000175c2       ??1?$_Tree@W4ACTTYPE@@U?$pair@$$CBW4ACTTYPE@@VCString@@@std@@U_Kfn@?$map@W4ACTTYPE@@VCString@@U?$less@W4ACTTYPE@@@std@@V?$allocator@VCString@@@4@@3@U?$less@W4ACTTYPE@@@3@V?$allocator@VCString@@@3@@std@@QAE@XZ 004185c2 f i Act.obj
 0001:00017623       ?resize@?$vector@UCOLORUSE@@V?$allocator@UCOLORUSE@@@std@@@std@@QAEXIABUCOLORUSE@@@Z 00418623 f i Act.obj
 0001:00017682       ??1?$_Tree@KU?$pair@$$CBKH@std@@U_Kfn@?$map@KHU?$less@K@std@@V?$allocator@H@2@@2@U?$less@K@2@V?$allocator@H@2@@std@@QAE@XZ 00418682 f i Act.obj
 0001:000176e3       ?sort@?$list@UCOLORUSE@@V?$allocator@UCOLORUSE@@@std@@@std@@QAEXXZ 004186e3 f i Act.obj
 0001:00017815       ??_F?$list@UCOLORUSE@@V?$allocator@UCOLORUSE@@@std@@@std@@QAEXXZ 00418815 f i Act.obj
 0001:00017832       ??1CDefaultActs@@QAE@XZ    00418832 f i Act.obj
 0001:00017867       ?insert@?$_Tree@W4ACTTYPE@@U?$pair@$$CBW4ACTTYPE@@V?$auto_ptr@VAct@@@std@@@std@@U_Kfn@?$map@W4ACTTYPE@@V?$auto_ptr@VAct@@@std@@U?$less@W4ACTTYPE@@@3@V?$allocator@V?$auto_ptr@VAct@@@std@@@3@@3@U?$less@W4ACTTYPE@@@3@V?$allocator@V?$auto_ptr@VAct@@@std@@@3@@std@@QAE?AU?$pair@Viterator@?$_Tree@W4ACTTYPE@@U?$pair@$$CBW4ACTTYPE@@V?$auto_ptr@VAct@@@std@@@std@@U_Kfn@?$map@W4ACTTYPE@@V?$auto_ptr@VAct@@@std@@U?$less@W4ACTTYPE@@@3@V?$allocator@V?$auto_ptr@VAct@@@std@@@3@@3@U?$less@W4ACTTYPE@@@3@V?$allocator@V?$auto_ptr@VAct@@@std@@@3@@std@@_N@2@ABU?$pair@$$CBW4ACTTYPE@@V?$auto_ptr@VAct@@@std@@@2@@Z 00418867 f i Act.obj
 0001:00017905       ?erase@?$_Tree@W4ACTTYPE@@U?$pair@$$CBW4ACTTYPE@@V?$auto_ptr@VAct@@@std@@@std@@U_Kfn@?$map@W4ACTTYPE@@V?$auto_ptr@VAct@@@std@@U?$less@W4ACTTYPE@@@3@V?$allocator@V?$auto_ptr@VAct@@@std@@@3@@3@U?$less@W4ACTTYPE@@@3@V?$allocator@V?$auto_ptr@VAct@@@std@@@3@@std@@QAE?AViterator@12@V312@0@Z 00418905 f i Act.obj
 0001:0001797c       ?find@?$_Tree@W4ACTTYPE@@U?$pair@$$CBW4ACTTYPE@@V?$auto_ptr@VAct@@@std@@@std@@U_Kfn@?$map@W4ACTTYPE@@V?$auto_ptr@VAct@@@std@@U?$less@W4ACTTYPE@@@3@V?$allocator@V?$auto_ptr@VAct@@@std@@@3@@3@U?$less@W4ACTTYPE@@@3@V?$allocator@V?$auto_ptr@VAct@@@std@@@3@@std@@QBE?AVconst_iterator@12@ABW4ACTTYPE@@@Z 0041897c f i Act.obj
 0001:000179b6       ?erase@?$_Tree@W4ACTTYPE@@U?$pair@$$CBW4ACTTYPE@@VCString@@@std@@U_Kfn@?$map@W4ACTTYPE@@VCString@@U?$less@W4ACTTYPE@@@std@@V?$allocator@VCString@@@4@@3@U?$less@W4ACTTYPE@@@3@V?$allocator@VCString@@@3@@std@@QAE?AViterator@12@V312@0@Z 004189b6 f i Act.obj
 0001:00017a2d       ?find@?$_Tree@W4ACTTYPE@@U?$pair@$$CBW4ACTTYPE@@VCString@@@std@@U_Kfn@?$map@W4ACTTYPE@@VCString@@U?$less@W4ACTTYPE@@@std@@V?$allocator@VCString@@@4@@3@U?$less@W4ACTTYPE@@@3@V?$allocator@VCString@@@3@@std@@QBE?AVconst_iterator@12@ABW4ACTTYPE@@@Z 00418a2d f i Act.obj
 0001:00017a67       ?insert@?$vector@UCOLORUSE@@V?$allocator@UCOLORUSE@@@std@@@std@@QAEXPAUCOLORUSE@@IABU3@@Z 00418a67 f i Act.obj
 0001:00017c69       ?erase@?$vector@UCOLORUSE@@V?$allocator@UCOLORUSE@@@std@@@std@@QAEPAUCOLORUSE@@PAU3@0@Z 00418c69 f i Act.obj
 0001:00017ca1       ??0?$_Tree@KU?$pair@$$CBKH@std@@U_Kfn@?$map@KHU?$less@K@std@@V?$allocator@H@2@@2@U?$less@K@2@V?$allocator@H@2@@std@@QAE@ABU?$less@K@1@_NABV?$allocator@H@1@@Z 00418ca1 f i Act.obj
 0001:00017cc7       ?insert@?$_Tree@KU?$pair@$$CBKH@std@@U_Kfn@?$map@KHU?$less@K@std@@V?$allocator@H@2@@2@U?$less@K@2@V?$allocator@H@2@@std@@QAE?AU?$pair@Viterator@?$_Tree@KU?$pair@$$CBKH@std@@U_Kfn@?$map@KHU?$less@K@std@@V?$allocator@H@2@@2@U?$less@K@2@V?$allocator@H@2@@std@@_N@2@ABU?$pair@$$CBKH@2@@Z 00418cc7 f i Act.obj
 0001:00017d65       ?erase@?$_Tree@KU?$pair@$$CBKH@std@@U_Kfn@?$map@KHU?$less@K@std@@V?$allocator@H@2@@2@U?$less@K@2@V?$allocator@H@2@@std@@QAE?AViterator@12@V312@0@Z 00418d65 f i Act.obj
 0001:00017dfc       ?find@?$_Tree@KU?$pair@$$CBKH@std@@U_Kfn@?$map@KHU?$less@K@std@@V?$allocator@H@2@@2@U?$less@K@2@V?$allocator@H@2@@std@@QAE?AViterator@12@ABK@Z 00418dfc f i Act.obj
 0001:00017e36       ?insert@?$list@UCOLORUSE@@V?$allocator@UCOLORUSE@@@std@@@std@@QAE?AViterator@12@V312@ABUCOLORUSE@@@Z 00418e36 f i Act.obj
 0001:00017e74       ?swap@?$list@UCOLORUSE@@V?$allocator@UCOLORUSE@@@std@@@std@@QAEXAAV12@@Z 00418e74 f i Act.obj
 0001:00017e95       ?splice@?$list@UCOLORUSE@@V?$allocator@UCOLORUSE@@@std@@@std@@QAEXViterator@12@AAV12@0@Z 00418e95 f i Act.obj
 0001:00017ec7       ?merge@?$list@UCOLORUSE@@V?$allocator@UCOLORUSE@@@std@@@std@@QAEXAAV12@@Z 00418ec7 f i Act.obj
 0001:00017f48       ?erase@?$_Tree@W4ACTTYPE@@U?$pair@$$CBW4ACTTYPE@@V?$auto_ptr@VAct@@@std@@@std@@U_Kfn@?$map@W4ACTTYPE@@V?$auto_ptr@VAct@@@std@@U?$less@W4ACTTYPE@@@3@V?$allocator@V?$auto_ptr@VAct@@@std@@@3@@3@U?$less@W4ACTTYPE@@@3@V?$allocator@V?$auto_ptr@VAct@@@std@@@3@@std@@QAE?AViterator@12@V312@@Z 00418f48 f i Act.obj
 0001:000181e8       ?AfxGetMainWnd@@YGPAVCWnd@@XZ 004191e8 f i Act.obj
 0001:000181fc       ?_Erase@?$_Tree@W4ACTTYPE@@U?$pair@$$CBW4ACTTYPE@@V?$auto_ptr@VAct@@@std@@@std@@U_Kfn@?$map@W4ACTTYPE@@V?$auto_ptr@VAct@@@std@@U?$less@W4ACTTYPE@@@3@V?$allocator@V?$auto_ptr@VAct@@@std@@@3@@3@U?$less@W4ACTTYPE@@@3@V?$allocator@V?$auto_ptr@VAct@@@std@@@3@@std@@IAEXPAU_Node@12@@Z 004191fc f i Act.obj
 0001:0001823a       ?_Init@?$_Tree@W4ACTTYPE@@U?$pair@$$CBW4ACTTYPE@@V?$auto_ptr@VAct@@@std@@@std@@U_Kfn@?$map@W4ACTTYPE@@V?$auto_ptr@VAct@@@std@@U?$less@W4ACTTYPE@@@3@V?$allocator@V?$auto_ptr@VAct@@@std@@@3@@3@U?$less@W4ACTTYPE@@@3@V?$allocator@V?$auto_ptr@VAct@@@std@@@3@@std@@IAEXXZ 0041923a f i Act.obj
 0001:000182c5       ?_Insert@?$_Tree@W4ACTTYPE@@U?$pair@$$CBW4ACTTYPE@@V?$auto_ptr@VAct@@@std@@@std@@U_Kfn@?$map@W4ACTTYPE@@V?$auto_ptr@VAct@@@std@@U?$less@W4ACTTYPE@@@3@V?$allocator@V?$auto_ptr@VAct@@@std@@@3@@3@U?$less@W4ACTTYPE@@@3@V?$allocator@V?$auto_ptr@VAct@@@std@@@3@@std@@IAE?AViterator@12@PAU_Node@12@0ABU?$pair@$$CBW4ACTTYPE@@V?$auto_ptr@VAct@@@std@@@2@@Z 004192c5 f i Act.obj
 0001:00018416       ?insert@?$_Tree@W4ACTTYPE@@U?$pair@$$CBW4ACTTYPE@@VCString@@@std@@U_Kfn@?$map@W4ACTTYPE@@VCString@@U?$less@W4ACTTYPE@@@std@@V?$allocator@VCString@@@4@@3@U?$less@W4ACTTYPE@@@3@V?$allocator@VCString@@@3@@std@@QAE?AU?$pair@Viterator@?$_Tree@W4ACTTYPE@@U?$pair@$$CBW4ACTTYPE@@VCString@@@std@@U_Kfn@?$map@W4ACTTYPE@@VCString@@U?$less@W4ACTTYPE@@@std@@V?$allocator@VCString@@@4@@3@U?$less@W4ACTTYPE@@@3@V?$allocator@VCString@@@3@@std@@_N@2@ABU?$pair@$$CBW4ACTTYPE@@VCString@@@2@@Z 00419416 f i Act.obj
 0001:000184b4       ?erase@?$_Tree@W4ACTTYPE@@U?$pair@$$CBW4ACTTYPE@@VCString@@@std@@U_Kfn@?$map@W4ACTTYPE@@VCString@@U?$less@W4ACTTYPE@@@std@@V?$allocator@VCString@@@4@@3@U?$less@W4ACTTYPE@@@3@V?$allocator@VCString@@@3@@std@@QAE?AViterator@12@V312@@Z 004194b4 f i Act.obj
 0001:00018754       ?_Erase@?$_Tree@W4ACTTYPE@@U?$pair@$$CBW4ACTTYPE@@VCString@@@std@@U_Kfn@?$map@W4ACTTYPE@@VCString@@U?$less@W4ACTTYPE@@@std@@V?$allocator@VCString@@@4@@3@U?$less@W4ACTTYPE@@@3@V?$allocator@VCString@@@3@@std@@IAEXPAU_Node@12@@Z 00419754 f i Act.obj
 0001:00018792       ?_Init@?$_Tree@W4ACTTYPE@@U?$pair@$$CBW4ACTTYPE@@VCString@@@std@@U_Kfn@?$map@W4ACTTYPE@@VCString@@U?$less@W4ACTTYPE@@@std@@V?$allocator@VCString@@@4@@3@U?$less@W4ACTTYPE@@@3@V?$allocator@VCString@@@3@@std@@IAEXXZ 00419792 f i Act.obj
 0001:0001881d       ?erase@?$_Tree@KU?$pair@$$CBKH@std@@U_Kfn@?$map@KHU?$less@K@std@@V?$allocator@H@2@@2@U?$less@K@2@V?$allocator@H@2@@std@@QAE?AViterator@12@V312@@Z 0041981d f i Act.obj
 0001:00018ab4       ?_Erase@?$_Tree@KU?$pair@$$CBKH@std@@U_Kfn@?$map@KHU?$less@K@std@@V?$allocator@H@2@@2@U?$less@K@2@V?$allocator@H@2@@std@@IAEXPAU_Node@12@@Z 00419ab4 f i Act.obj
 0001:00018aea       ?_Init@?$_Tree@KU?$pair@$$CBKH@std@@U_Kfn@?$map@KHU?$less@K@std@@V?$allocator@H@2@@2@U?$less@K@2@V?$allocator@H@2@@std@@IAEXXZ 00419aea f i Act.obj
 0001:00018b75       ?_Insert@?$_Tree@KU?$pair@$$CBKH@std@@U_Kfn@?$map@KHU?$less@K@std@@V?$allocator@H@2@@2@U?$less@K@2@V?$allocator@H@2@@std@@IAE?AViterator@12@PAU_Node@12@0ABU?$pair@$$CBKH@2@@Z 00419b75 f i Act.obj
 0001:00018cc6       ?_Inc@const_iterator@?$_Tree@KU?$pair@$$CBKH@std@@U_Kfn@?$map@KHU?$less@K@std@@V?$allocator@H@2@@2@U?$less@K@2@V?$allocator@H@2@@std@@QAEXXZ 00419cc6 f i Act.obj
 0001:00018cfc       ?_Splice@?$list@UCOLORUSE@@V?$allocator@UCOLORUSE@@@std@@@std@@IAEXViterator@12@AAV12@00@Z 00419cfc f i Act.obj
 0001:00018d35       ??_GCPalette@@UAEPAXI@Z    00419d35 f i Act.obj
 0001:00018d35       ??_ECPalette@@UAEPAXI@Z    00419d35 f i Act.obj
 0001:00018d51       ??1CPalette@@UAE@XZ        00419d51 f i Act.obj
 0001:00018d84       ?_Lbound@?$_Tree@W4ACTTYPE@@U?$pair@$$CBW4ACTTYPE@@V?$auto_ptr@VAct@@@std@@@std@@U_Kfn@?$map@W4ACTTYPE@@V?$auto_ptr@VAct@@@std@@U?$less@W4ACTTYPE@@@3@V?$allocator@V?$auto_ptr@VAct@@@std@@@3@@3@U?$less@W4ACTTYPE@@@3@V?$allocator@V?$auto_ptr@VAct@@@std@@@3@@std@@IBEPAU_Node@12@ABW4ACTTYPE@@@Z 00419d84 f i Act.obj
 0001:00018db1       ?_Lrotate@?$_Tree@W4ACTTYPE@@U?$pair@$$CBW4ACTTYPE@@V?$auto_ptr@VAct@@@std@@@std@@U_Kfn@?$map@W4ACTTYPE@@V?$auto_ptr@VAct@@@std@@U?$less@W4ACTTYPE@@@3@V?$allocator@V?$auto_ptr@VAct@@@std@@@3@@3@U?$less@W4ACTTYPE@@@3@V?$allocator@V?$auto_ptr@VAct@@@std@@@3@@std@@IAEXPAU_Node@12@@Z 00419db1 f i Act.obj
 0001:00018df5       ?_Rrotate@?$_Tree@W4ACTTYPE@@U?$pair@$$CBW4ACTTYPE@@V?$auto_ptr@VAct@@@std@@@std@@U_Kfn@?$map@W4ACTTYPE@@V?$auto_ptr@VAct@@@std@@U?$less@W4ACTTYPE@@@3@V?$allocator@V?$auto_ptr@VAct@@@std@@@3@@3@U?$less@W4ACTTYPE@@@3@V?$allocator@V?$auto_ptr@VAct@@@std@@@3@@std@@IAEXPAU_Node@12@@Z 00419df5 f i Act.obj
 0001:00018e3b       ?_Dec@const_iterator@?$_Tree@W4ACTTYPE@@U?$pair@$$CBW4ACTTYPE@@V?$auto_ptr@VAct@@@std@@@std@@U_Kfn@?$map@W4ACTTYPE@@V?$auto_ptr@VAct@@@std@@U?$less@W4ACTTYPE@@@3@V?$allocator@V?$auto_ptr@VAct@@@std@@@3@@3@U?$less@W4ACTTYPE@@@3@V?$allocator@V?$auto_ptr@VAct@@@std@@@3@@std@@QAEXXZ 00419e3b f i Act.obj
 0001:00018e77       ?_Insert@?$_Tree@W4ACTTYPE@@U?$pair@$$CBW4ACTTYPE@@VCString@@@std@@U_Kfn@?$map@W4ACTTYPE@@VCString@@U?$less@W4ACTTYPE@@@std@@V?$allocator@VCString@@@4@@3@U?$less@W4ACTTYPE@@@3@V?$allocator@VCString@@@3@@std@@IAE?AViterator@12@PAU_Node@12@0ABU?$pair@$$CBW4ACTTYPE@@VCString@@@2@@Z 00419e77 f i Act.obj
 0001:00018fc8       ?_Lbound@?$_Tree@W4ACTTYPE@@U?$pair@$$CBW4ACTTYPE@@VCString@@@std@@U_Kfn@?$map@W4ACTTYPE@@VCString@@U?$less@W4ACTTYPE@@@std@@V?$allocator@VCString@@@4@@3@U?$less@W4ACTTYPE@@@3@V?$allocator@VCString@@@3@@std@@IBEPAU_Node@12@ABW4ACTTYPE@@@Z 00419fc8 f i Act.obj
 0001:00018ff5       ?_Lrotate@?$_Tree@W4ACTTYPE@@U?$pair@$$CBW4ACTTYPE@@VCString@@@std@@U_Kfn@?$map@W4ACTTYPE@@VCString@@U?$less@W4ACTTYPE@@@std@@V?$allocator@VCString@@@4@@3@U?$less@W4ACTTYPE@@@3@V?$allocator@VCString@@@3@@std@@IAEXPAU_Node@12@@Z 00419ff5 f i Act.obj
 0001:00019039       ?_Rrotate@?$_Tree@W4ACTTYPE@@U?$pair@$$CBW4ACTTYPE@@VCString@@@std@@U_Kfn@?$map@W4ACTTYPE@@VCString@@U?$less@W4ACTTYPE@@@std@@V?$allocator@VCString@@@4@@3@U?$less@W4ACTTYPE@@@3@V?$allocator@VCString@@@3@@std@@IAEXPAU_Node@12@@Z 0041a039 f i Act.obj
 0001:0001907f       ?_Lbound@?$_Tree@KU?$pair@$$CBKH@std@@U_Kfn@?$map@KHU?$less@K@std@@V?$allocator@H@2@@2@U?$less@K@2@V?$allocator@H@2@@std@@IBEPAU_Node@12@ABK@Z 0041a07f f i Act.obj
 0001:000190ac       ?_Lrotate@?$_Tree@KU?$pair@$$CBKH@std@@U_Kfn@?$map@KHU?$less@K@std@@V?$allocator@H@2@@2@U?$less@K@2@V?$allocator@H@2@@std@@IAEXPAU_Node@12@@Z 0041a0ac f i Act.obj
 0001:000190f0       ?_Rrotate@?$_Tree@KU?$pair@$$CBKH@std@@U_Kfn@?$map@KHU?$less@K@std@@V?$allocator@H@2@@2@U?$less@K@2@V?$allocator@H@2@@std@@IAEXPAU_Node@12@@Z 0041a0f0 f i Act.obj
 0001:00019136       ?_Dec@const_iterator@?$_Tree@KU?$pair@$$CBKH@std@@U_Kfn@?$map@KHU?$less@K@std@@V?$allocator@H@2@@2@U?$less@K@2@V?$allocator@H@2@@std@@QAEXXZ 0041a136 f i Act.obj
 0001:00019172       ?_Inc@const_iterator@?$_Tree@W4ACTTYPE@@U?$pair@$$CBW4ACTTYPE@@V?$auto_ptr@VAct@@@std@@@std@@U_Kfn@?$map@W4ACTTYPE@@V?$auto_ptr@VAct@@@std@@U?$less@W4ACTTYPE@@@3@V?$allocator@V?$auto_ptr@VAct@@@std@@@3@@3@U?$less@W4ACTTYPE@@@3@V?$allocator@V?$auto_ptr@VAct@@@std@@@3@@std@@QAEXXZ 0041a172 f i Act.obj
 0001:000191a8       ?_Dec@const_iterator@?$_Tree@W4ACTTYPE@@U?$pair@$$CBW4ACTTYPE@@VCString@@@std@@U_Kfn@?$map@W4ACTTYPE@@VCString@@U?$less@W4ACTTYPE@@@std@@V?$allocator@VCString@@@4@@3@U?$less@W4ACTTYPE@@@3@V?$allocator@VCString@@@3@@std@@QAEXXZ 0041a1a8 f i Act.obj
 0001:000191e4       ?_Inc@const_iterator@?$_Tree@W4ACTTYPE@@U?$pair@$$CBW4ACTTYPE@@VCString@@@std@@U_Kfn@?$map@W4ACTTYPE@@VCString@@U?$less@W4ACTTYPE@@@std@@V?$allocator@VCString@@@4@@3@U?$less@W4ACTTYPE@@@3@V?$allocator@VCString@@@3@@std@@QAEXXZ 0041a1e4 f i Act.obj
 0001:0001921a       ?_Construct@std@@YAXPAU?$pair@$$CBIV?$auto_ptr@VCnt@@@std@@@1@ABU21@@Z 0041a21a f i Act.obj
 0001:0001921a       ?_Construct@std@@YAXPAU?$pair@$$CBW4ACTTYPE@@V?$auto_ptr@VAct@@@std@@@1@ABU21@@Z 0041a21a f i Act.obj
 0001:0001923b       ?_Construct@std@@YAXPAU?$pair@$$CBW4ACTTYPE@@VCString@@@1@ABU21@@Z 0041a23b f i Act.obj
 0001:00019273       ?_Sort_0@std@@YAXPAUCOLORUSE@@00@Z 0041a273 f i Act.obj
 0001:00019307       ?_Sort@std@@YAXPAUCOLORUSE@@00@Z 0041a307 f i Act.obj
 0001:00019391       ?_Insertion_sort_1@std@@YAXPAUCOLORUSE@@00@Z 0041a391 f i Act.obj
 0001:00019449       ?_Median@std@@YA?AUCOLORUSE@@U2@00@Z 0041a449 f i Act.obj
 0001:000194b2       ?_Unguarded_partition@std@@YAPAUCOLORUSE@@PAU2@0U2@@Z 0041a4b2 f i Act.obj
 0001:000194ff       ??1CWaitCursor@@QAE@XZ     0041a4ff f i Act.obj
 0001:0001950c       ??0FPoint@@QAE@ABVCSize@@@Z 0041a50c f   FPoint.obj
 0001:0001951f       ??BFPoint@@QBE?AVCPoint@@XZ 0041a51f f   FPoint.obj
 0001:0001954e       ?double_2_int@@YAHN@Z      0041a54e f   type.obj
 0001:00019573       ?interpolate@@YANHHHNN@Z   0041a573 f   type.obj
 0001:000195fc       ??0Action@@IAE@XZ          0041a5fc f   Action.obj
 0001:00019644       ??_EAction@@UAEPAXI@Z      0041a644 f i Action.obj
 0001:00019644       ??_GAction@@UAEPAXI@Z      0041a644 f i Action.obj
 0001:00019660       ??1Action@@UAE@XZ          0041a660 f   Action.obj
 0001:000196ae       ?GetActionName@Action@@QBE?AVCString@@XZ 0041a6ae f   Action.obj
 0001:0001970e       ?factory@Action@@KAPAVSDOMSerializable@@PBG@Z 0041a70e f   Action.obj
 0001:0001984b       ?namer@Action@@KAPBGPAVSDOMSerializable@@@Z 0041a84b f   Action.obj
 0001:000199ce       ??_EAction@@WBE@AEPAXI@Z   0041a9ce f i Action.obj
 0001:000199d6       ?NewPlayAction@ActionFactory@@SAPAVAction@@XZ 0041a9d6 f   ActionFactory.obj
 0001:00019a08       ?NewStopAction@ActionFactory@@SAPAVAction@@XZ 0041aa08 f   ActionFactory.obj
 0001:00019a3a       ?NewQuitAction@ActionFactory@@SAPAVAction@@XZ 0041aa3a f   ActionFactory.obj
 0001:00019a6c       ?NewSoundPlayAction@ActionFactory@@SAPAVAction@@XZ 0041aa6c f   ActionFactory.obj
 0001:00019a9e       ?NewSoundStopAction@ActionFactory@@SAPAVAction@@XZ 0041aa9e f   ActionFactory.obj
 0001:00019ad0       ?NewJumpAction@ActionFactory@@SAPAVAction@@XZ 0041aad0 f   ActionFactory.obj
 0001:00019b02       ?NewSetVibrationAction@ActionFactory@@SAPAVAction@@XZ 0041ab02 f   ActionFactory.obj
 0001:00019b34       ?NewSetBacklightAction@ActionFactory@@SAPAVAction@@XZ 0041ab34 f   ActionFactory.obj
 0001:00019b66       ?NewSetBackgroundColorAction@ActionFactory@@SAPAVAction@@XZ 0041ab66 f   ActionFactory.obj
 0001:00019b98       ?NewSetSoftkeyAction@ActionFactory@@SAPAVAction@@XZ 0041ab98 f   ActionFactory.obj
 0001:00019bca       ?NewDelayJumpAction@ActionFactory@@SAPAVAction@@XZ 0041abca f   ActionFactory.obj
 0001:00019bfc       ?NewRandomJumpAction@ActionFactory@@SAPAVAction@@XZ 0041abfc f   ActionFactory.obj
 0001:00019c2e       ??0ActionList@@QAE@XZ      0041ac2e f   ActionList.obj
 0001:00019c9b       ??_GActionList@@UAEPAXI@Z  0041ac9b f i ActionList.obj
 0001:00019c9b       ??_EActionList@@UAEPAXI@Z  0041ac9b f i ActionList.obj
 0001:00019cb7       ??1ActionList@@UAE@XZ      0041acb7 f   ActionList.obj
 0001:00019d13       ?CopyFrom@ActionList@@QAEXPBV1@@Z 0041ad13 f   ActionList.obj
 0001:00019dc4       ??0COLMKeepers@@QAE@XZ     0041adc4 f i ActionList.obj
 0001:00019df0       ?AssertValid@ActionList@@MBEXXZ 0041adf0 f   ActionList.obj
 0001:00019e13       ?Build@ActionList@@MBEXPAVBuilder@@@Z 0041ae13 f   ActionList.obj
 0001:00019e82       ?Serialize@ActionList@@MAEXPAVSDOMArchive@@@Z 0041ae82 f   ActionList.obj
 0001:00019e82       ?Serialize@CharList@@UAEXPAVSDOMArchive@@@Z 0041ae82 f   ActionList.obj
 0001:00019e91       ?InsActCmd@ActionList@@QAEXHPAVAction@@@Z 0041ae91 f   ActionList.obj
 0001:00019ee2       ?DelActCmd@ActionList@@QAEXH@Z 0041aee2 f   ActionList.obj
 0001:00019f2a       ?MovActCmd@ActionList@@QAEXHH@Z 0041af2a f   ActionList.obj
 0001:00019f3d       ?Serialize@?$TOLMOwners@VAction@@$0A@@@UAEXPAVSDOMArchive@@@Z 0041af3d f i ActionList.obj
 0001:00019f58       ??_EActionList@@W3AEPAXI@Z 0041af58 f i ActionList.obj
 0001:00019f60       ??0DelayJumpAction@@QAE@XZ 0041af60 f   DelayJumpAction.obj
 0001:00019fb3       ??_EDelayJumpAction@@MAEPAXI@Z 0041afb3 f i DelayJumpAction.obj
 0001:00019fb3       ??_GDelayJumpAction@@MAEPAXI@Z 0041afb3 f i DelayJumpAction.obj
 0001:00019fcf       ??0DelayJumpAction@@IAE@ABV0@@Z 0041afcf f   DelayJumpAction.obj
 0001:0001a03d       ??1DelayJumpAction@@MAE@XZ 0041b03d f   DelayJumpAction.obj
 0001:0001a086       ?Clone@DelayJumpAction@@MBEPAVAction@@XZ 0041b086 f   DelayJumpAction.obj
 0001:0001a0bd       ?SetLabel@DelayJumpAction@@QAEXIPBVLabel@@@Z 0041b0bd f   DelayJumpAction.obj
 0001:0001a0d3       ?GetLabel@DelayJumpAction@@QBEPBVLabel@@XZ 0041b0d3 f   DelayJumpAction.obj
 0001:0001a0db       ?Serialize@DelayJumpAction@@MAEXPAVSDOMArchive@@@Z 0041b0db f   DelayJumpAction.obj
 0001:0001a108       ?GetDialogClass@DelayJumpAction@@MBEPAUCRuntimeClass@@XZ 0041b108 f   DelayJumpAction.obj
 0001:0001a108       ?GetRuntimeClass@DelayJumpActionDlg@@UBEPAUCRuntimeClass@@XZ 0041b108 f   DelayJumpAction.obj
 0001:0001a10e       ?GetActionNameResID@DelayJumpAction@@MBEIXZ 0041b10e f   DelayJumpAction.obj
 0001:0001a114       ?Build@DelayJumpAction@@MBEXPAVBuilder@@@Z 0041b114 f   DelayJumpAction.obj
 0001:0001a1bf       ??B?$_TOLM@VLabel@@VCOLMReferer@@@@QBEPBVLabel@@XZ 0041b1bf f i DelayJumpAction.obj
 0001:0001a1dc       ??_EDelayJumpAction@@OBE@AEPAXI@Z 0041b1dc f i DelayJumpAction.obj
 0001:0001a1e4       ??0JumpAction@@QAE@XZ      0041b1e4 f   JumpAction.obj
 0001:0001a233       ??_EJumpAction@@MAEPAXI@Z  0041b233 f i JumpAction.obj
 0001:0001a233       ??_GJumpAction@@MAEPAXI@Z  0041b233 f i JumpAction.obj
 0001:0001a24f       ??0JumpAction@@IAE@ABV0@@Z 0041b24f f   JumpAction.obj
 0001:0001a2b7       ??1JumpAction@@MAE@XZ      0041b2b7 f   JumpAction.obj
 0001:0001a300       ?Clone@JumpAction@@MBEPAVAction@@XZ 0041b300 f   JumpAction.obj
 0001:0001a337       ?Serialize@JumpAction@@MAEXPAVSDOMArchive@@@Z 0041b337 f   JumpAction.obj
 0001:0001a34d       ?GetActionNameResID@JumpAction@@MBEIXZ 0041b34d f   JumpAction.obj
 0001:0001a353       ?GetLabel@JumpAction@@QBEPBVLabel@@XZ 0041b353 f   JumpAction.obj
 0001:0001a35b       ?Build@JumpAction@@MBEXPAVBuilder@@@Z 0041b35b f   JumpAction.obj
 0001:0001a3fd       ?GetDialogClass@JumpAction@@MBEPAUCRuntimeClass@@XZ 0041b3fd f   JumpAction.obj
 0001:0001a3fd       ?GetRuntimeClass@JumpActionDlg@@UBEPAUCRuntimeClass@@XZ 0041b3fd f   JumpAction.obj
 0001:0001a403       ??_EJumpAction@@OBE@AEPAXI@Z 0041b403 f i JumpAction.obj
 0001:0001a40b       ??0PlayAction@@QAE@XZ      0041b40b f   PlayAction.obj
 0001:0001a42b       ?Build@PlayAction@@UBEXPAVBuilder@@@Z 0041b42b f   PlayAction.obj
 0001:0001a48f       ?Clone@PlayAction@@UBEPAVAction@@XZ 0041b48f f   PlayAction.obj
 0001:0001a4c1       ?GetActionNameResID@PlayAction@@UBEIXZ 0041b4c1 f   PlayAction.obj
 0001:0001a4c7       ??0QuitAction@@QAE@XZ      0041b4c7 f   QuitAction.obj
 0001:0001a4e7       ??1SoundStopAction@@UAE@XZ 0041b4e7 f i QuitAction.obj
 0001:0001a4e7       ??1QuitAction@@UAE@XZ      0041b4e7 f i QuitAction.obj
 0001:0001a4e7       ??1StopAction@@UAE@XZ      0041b4e7 f i QuitAction.obj
 0001:0001a4e7       ??1PlayAction@@UAE@XZ      0041b4e7 f i QuitAction.obj
 0001:0001a4ec       ?Build@QuitAction@@EBEXPAVBuilder@@@Z 0041b4ec f   QuitAction.obj
 0001:0001a550       ?Clone@QuitAction@@EBEPAVAction@@XZ 0041b550 f   QuitAction.obj
 0001:0001a582       ?GetActionNameResID@QuitAction@@EBEIXZ 0041b582 f   QuitAction.obj
 0001:0001a588       ??0RandomJumpAction@@QAE@XZ 0041b588 f   RandomJumpAction.obj
 0001:0001a615       ??_GRandomJumpAction@@MAEPAXI@Z 0041b615 f i RandomJumpAction.obj
 0001:0001a615       ??_ERandomJumpAction@@MAEPAXI@Z 0041b615 f i RandomJumpAction.obj
 0001:0001a631       ??1RandomJumpCase@@UAE@XZ  0041b631 f i RandomJumpAction.obj
 0001:0001a661       ??0RandomJumpAction@@IAE@ABV0@@Z 0041b661 f   RandomJumpAction.obj
 0001:0001a6ec       ??1RandomJumpAction@@MAE@XZ 0041b6ec f   RandomJumpAction.obj
 0001:0001a735       ?Clone@RandomJumpAction@@MBEPAVAction@@XZ 0041b735 f   RandomJumpAction.obj
 0001:0001a76c       ?AssertValid@RandomJumpAction@@MBEXXZ 0041b76c f   RandomJumpAction.obj
 0001:0001a776       ?Serialize@RandomJumpAction@@MAEXPAVSDOMArchive@@@Z 0041b776 f   RandomJumpAction.obj
 0001:0001a853       ?GetActionNameResID@RandomJumpAction@@MBEIXZ 0041b853 f   RandomJumpAction.obj
 0001:0001a859       ?Build@RandomJumpAction@@MBEXPAVBuilder@@@Z 0041b859 f   RandomJumpAction.obj
 0001:0001a9eb       ?GetTotalCase@RandomJumpAction@@QBEHXZ 0041b9eb f   RandomJumpAction.obj
 0001:0001aa12       ?GetCase@RandomJumpAction@@QBEXHAAVRandomJumpCase@@@Z 0041ba12 f   RandomJumpAction.obj
 0001:0001aa44       ?SetCase@RandomJumpAction@@QAEXHABVRandomJumpCase@@@Z 0041ba44 f   RandomJumpAction.obj
 0001:0001aa75       ?AppendCase@RandomJumpAction@@QAEXABVRandomJumpCase@@@Z 0041ba75 f   RandomJumpAction.obj
 0001:0001aa8f       ?DeleteCase@RandomJumpAction@@QAEXH@Z 0041ba8f f   RandomJumpAction.obj
 0001:0001aac6       ??0RandomJumpCase@@QAE@XZ  0041bac6 f   RandomJumpAction.obj
 0001:0001ab1d       ??_ERandomJumpCase@@UAEPAXI@Z 0041bb1d f i RandomJumpAction.obj
 0001:0001ab1d       ??_GRandomJumpCase@@UAEPAXI@Z 0041bb1d f i RandomJumpAction.obj
 0001:0001ab39       ??0RandomJumpCase@@QAE@ABV0@@Z 0041bb39 f   RandomJumpAction.obj
 0001:0001ab99       ??4RandomJumpCase@@QAEAAV0@ABV0@@Z 0041bb99 f   RandomJumpAction.obj
 0001:0001abab       ?CopyFrom@RandomJumpCase@@AAEXABV1@@Z 0041bbab f   RandomJumpAction.obj
 0001:0001abcd       ?SetCase@RandomJumpCase@@QAEXHPBVLabel@@@Z 0041bbcd f   RandomJumpAction.obj
 0001:0001abe3       ?GetLabel@RandomJumpCase@@QBEPBVLabel@@XZ 0041bbe3 f   RandomJumpAction.obj
 0001:0001abeb       ?Serialize@RandomJumpCase@@EAEXPAVSDOMArchive@@@Z 0041bbeb f   RandomJumpAction.obj
 0001:0001ac18       ?insert@?$list@VRandomJumpCase@@V?$allocator@VRandomJumpCase@@@std@@@std@@QAE?AViterator@12@V312@ABVRandomJumpCase@@@Z 0041bc18 f i RandomJumpAction.obj
 0001:0001ac52       ?erase@?$list@V?$TOLMKeeper@VKeyFrame@@@@V?$TOLMAllocator@V?$TOLMKeeper@VKeyFrame@@@@@@@std@@QAE?AViterator@12@V312@@Z 0041bc52 f i RandomJumpAction.obj
 0001:0001ac52       ?erase@?$list@VRandomJumpCase@@V?$allocator@VRandomJumpCase@@@std@@@std@@QAE?AViterator@12@V312@@Z 0041bc52 f i RandomJumpAction.obj
 0001:0001ac52       ?erase@?$list@V?$TOLMOwner@VKeyFrame@@@@V?$TOLMAllocator@V?$TOLMOwner@VKeyFrame@@@@@@@std@@QAE?AViterator@12@V312@@Z 0041bc52 f i RandomJumpAction.obj
 0001:0001ac52       ?erase@?$list@VCOLMKeeper@@V?$TOLMAllocator@VCOLMKeeper@@@@@std@@QAE?AViterator@12@V312@@Z 0041bc52 f i RandomJumpAction.obj
 0001:0001ac52       ?erase@?$list@VCOLMOwner@@V?$TOLMAllocator@VCOLMOwner@@@@@std@@QAE?AViterator@12@V312@@Z 0041bc52 f i RandomJumpAction.obj
 0001:0001ac8d       ?clear@?$list@VRandomJumpCase@@V?$allocator@VRandomJumpCase@@@std@@@std@@QAEXXZ 0041bc8d f i RandomJumpAction.obj
 0001:0001ac8d       ?clear@?$list@V?$TOLMKeeper@VKeyFrame@@@@V?$TOLMAllocator@V?$TOLMKeeper@VKeyFrame@@@@@@@std@@QAEXXZ 0041bc8d f i RandomJumpAction.obj
 0001:0001ac8d       ?clear@?$list@VCOLMOwner@@V?$TOLMAllocator@VCOLMOwner@@@@@std@@QAEXXZ 0041bc8d f i RandomJumpAction.obj
 0001:0001ac8d       ?clear@?$list@VCOLMKeeper@@V?$TOLMAllocator@VCOLMKeeper@@@@@std@@QAEXXZ 0041bc8d f i RandomJumpAction.obj
 0001:0001acb4       ?_Buynode@?$list@VRandomJumpCase@@V?$allocator@VRandomJumpCase@@@std@@@std@@IAEPAU_Node@12@PAU312@0@Z 0041bcb4 f i RandomJumpAction.obj
 0001:0001acd8       ?_Construct@std@@YAXPAVRandomJumpCase@@ABV2@@Z 0041bcd8 f i RandomJumpAction.obj
 0001:0001ad05       ??_ERandomJumpAction@@OBE@AEPAXI@Z 0041bd05 f i RandomJumpAction.obj
 0001:0001ad0d       ??0SetBackgroundColorAction@@QAE@XZ 0041bd0d f   SetBackgroundColorAction.obj
 0001:0001ad31       ??_GSetBackgroundColorAction@@EAEPAXI@Z 0041bd31 f i SetBackgroundColorAction.obj
 0001:0001ad31       ??_ESetBackgroundColorAction@@EAEPAXI@Z 0041bd31 f i SetBackgroundColorAction.obj
 0001:0001ad4d       ??0SetBackgroundColorAction@@AAE@ABV0@@Z 0041bd4d f   SetBackgroundColorAction.obj
 0001:0001ad79       ??1SetBackgroundColorAction@@EAE@XZ 0041bd79 f   SetBackgroundColorAction.obj
 0001:0001ad92       ?Clone@SetBackgroundColorAction@@EBEPAVAction@@XZ 0041bd92 f   SetBackgroundColorAction.obj
 0001:0001adc9       ?GetColor@SetBackgroundColorAction@@QBEKXZ 0041bdc9 f   SetBackgroundColorAction.obj
 0001:0001adc9       ?GetDelay@DelayJumpAction@@QBEIXZ 0041bdc9 f   SetBackgroundColorAction.obj
 0001:0001adc9       ?GetVibration@SetVibrationAction@@QBEHXZ 0041bdc9 f   SetBackgroundColorAction.obj
 0001:0001adc9       ?GetWhich@SetSoftkeyAction@@QBEHXZ 0041bdc9 f   SetBackgroundColorAction.obj
 0001:0001adc9       ?GetEnabled@SetBacklightAction@@QBEHXZ 0041bdc9 f   SetBackgroundColorAction.obj
 0001:0001adcd       ?Serialize@SetBackgroundColorAction@@EAEXPAVSDOMArchive@@@Z 0041bdcd f   SetBackgroundColorAction.obj
 0001:0001ade3       ?GetActionNameResID@SetBackgroundColorAction@@EBEIXZ 0041bde3 f   SetBackgroundColorAction.obj
 0001:0001ade9       ?Build@SetBackgroundColorAction@@EBEXPAVBuilder@@@Z 0041bde9 f   SetBackgroundColorAction.obj
 0001:0001ae5c       ??_ESetBackgroundColorAction@@GBE@AEPAXI@Z 0041be5c f i SetBackgroundColorAction.obj
 0001:0001ae64       ??0SetBacklightAction@@QAE@XZ 0041be64 f   SetBacklightAction.obj
 0001:0001ae8b       ??_GSetBacklightAction@@MAEPAXI@Z 0041be8b f i SetBacklightAction.obj
 0001:0001ae8b       ??_ESetBacklightAction@@MAEPAXI@Z 0041be8b f i SetBacklightAction.obj
 0001:0001aea7       ??0SetBacklightAction@@IAE@ABV0@@Z 0041bea7 f   SetBacklightAction.obj
 0001:0001aed3       ??1SetBacklightAction@@MAE@XZ 0041bed3 f   SetBacklightAction.obj
 0001:0001aeec       ?Clone@SetBacklightAction@@MBEPAVAction@@XZ 0041beec f   SetBacklightAction.obj
 0001:0001af23       ?Serialize@SetBacklightAction@@MAEXPAVSDOMArchive@@@Z 0041bf23 f   SetBacklightAction.obj
 0001:0001af39       ?GetActionNameResID@SetBacklightAction@@MBEIXZ 0041bf39 f   SetBacklightAction.obj
 0001:0001af3f       ?Build@SetBacklightAction@@MBEXPAVBuilder@@@Z 0041bf3f f   SetBacklightAction.obj
 0001:0001afb8       ??_ESetBacklightAction@@OBE@AEPAXI@Z 0041bfb8 f i SetBacklightAction.obj
 0001:0001afc0       ??0SetSoftkeyAction@@QAE@XZ 0041bfc0 f   SetSoftkeyAction.obj
 0001:0001b009       ??_GSetSoftkeyAction@@EAEPAXI@Z 0041c009 f i SetSoftkeyAction.obj
 0001:0001b009       ??_ESetSoftkeyAction@@EAEPAXI@Z 0041c009 f i SetSoftkeyAction.obj
 0001:0001b025       ??0SetSoftkeyAction@@AAE@ABV0@@Z 0041c025 f   SetSoftkeyAction.obj
 0001:0001b088       ?Clone@SetSoftkeyAction@@EBEPAVAction@@XZ 0041c088 f   SetSoftkeyAction.obj
 0001:0001b0bf       ?Serialize@SetSoftkeyAction@@EAEXPAVSDOMArchive@@@Z 0041c0bf f   SetSoftkeyAction.obj
 0001:0001b0ec       ??1SetSoftkeyAction@@EAE@XZ 0041c0ec f   SetSoftkeyAction.obj
 0001:0001b135       ?GetActionNameResID@SetSoftkeyAction@@EBEIXZ 0041c135 f   SetSoftkeyAction.obj
 0001:0001b13b       ?Build@SetSoftkeyAction@@EBEXPAVBuilder@@@Z 0041c13b f   SetSoftkeyAction.obj
 0001:0001b1d5       ?GetLabel@SetSoftkeyAction@@QBE?AVCString@@XZ 0041c1d5 f   SetSoftkeyAction.obj
 0001:0001b1f0       ?SetSoftkey@SetSoftkeyAction@@QAEXHPBD@Z 0041c1f0 f   SetSoftkeyAction.obj
 0001:0001b20a       ??_ESetSoftkeyAction@@GBE@AEPAXI@Z 0041c20a f i SetSoftkeyAction.obj
 0001:0001b212       ??0SetVibrationAction@@QAE@XZ 0041c212 f   SetVibrationAction.obj
 0001:0001b232       ??_ESetVibrationAction@@EAEPAXI@Z 0041c232 f i SetVibrationAction.obj
 0001:0001b232       ??_GSetVibrationAction@@EAEPAXI@Z 0041c232 f i SetVibrationAction.obj
 0001:0001b24e       ??0SetVibrationAction@@AAE@ABV0@@Z 0041c24e f   SetVibrationAction.obj
 0001:0001b27a       ??1SetVibrationAction@@EAE@XZ 0041c27a f   SetVibrationAction.obj
 0001:0001b293       ?Clone@SetVibrationAction@@EBEPAVAction@@XZ 0041c293 f   SetVibrationAction.obj
 0001:0001b2ca       ?Serialize@SetVibrationAction@@EAEXPAVSDOMArchive@@@Z 0041c2ca f   SetVibrationAction.obj
 0001:0001b2e0       ?GetActionNameResID@SetVibrationAction@@EBEIXZ 0041c2e0 f   SetVibrationAction.obj
 0001:0001b2e6       ?Build@SetVibrationAction@@EBEXPAVBuilder@@@Z 0041c2e6 f   SetVibrationAction.obj
 0001:0001b35f       ?SetVibration@SetVibrationAction@@QAEXH@Z 0041c35f f   SetVibrationAction.obj
 0001:0001b35f       ?SetColor@SetBackgroundColorAction@@QAEXK@Z 0041c35f f   SetVibrationAction.obj
 0001:0001b35f       ?SetEnabled@SetBacklightAction@@QAEXH@Z 0041c35f f   SetVibrationAction.obj
 0001:0001b369       ??_ESetVibrationAction@@GBE@AEPAXI@Z 0041c369 f i SetVibrationAction.obj
 0001:0001b371       ??0SoundPlayAction@@QAE@XZ 0041c371 f   SoundPlayAction.obj
 0001:0001b3c0       ??_ESoundPlayAction@@EAEPAXI@Z 0041c3c0 f i SoundPlayAction.obj
 0001:0001b3c0       ??_GSoundPlayAction@@EAEPAXI@Z 0041c3c0 f i SoundPlayAction.obj
 0001:0001b3dc       ??1SoundPlayAction@@EAE@XZ 0041c3dc f   SoundPlayAction.obj
 0001:0001b425       ??0SoundPlayAction@@AAE@ABV0@@Z 0041c425 f   SoundPlayAction.obj
 0001:0001b48d       ?Clone@SoundPlayAction@@EBEPAVAction@@XZ 0041c48d f   SoundPlayAction.obj
 0001:0001b4c4       ?SetLabel@JumpAction@@QAEXPBVLabel@@@Z 0041c4c4 f   SoundPlayAction.obj
 0001:0001b4c4       ?SetSound@SoundPlayAction@@QAEXPBVSndChar@@@Z 0041c4c4 f   SoundPlayAction.obj
 0001:0001b4d3       ?GetSound@SoundPlayAction@@QBEPBVSndChar@@XZ 0041c4d3 f   SoundPlayAction.obj
 0001:0001b4db       ?Serialize@SoundPlayAction@@EAEXPAVSDOMArchive@@@Z 0041c4db f   SoundPlayAction.obj
 0001:0001b4f1       ?AssertValid@SoundPlayAction@@EBEXXZ 0041c4f1 f   SoundPlayAction.obj
 0001:0001b4f9       ?GetActionNameResID@SoundPlayAction@@EBEIXZ 0041c4f9 f   SoundPlayAction.obj
 0001:0001b4ff       ?Build@SoundPlayAction@@EBEXPAVBuilder@@@Z 0041c4ff f   SoundPlayAction.obj
 0001:0001b5b5       ??B?$_TOLM@VSndChar@@VCOLMReferer@@@@QBEPBVSndChar@@XZ 0041c5b5 f i SoundPlayAction.obj
 0001:0001b5d2       ??_ESoundPlayAction@@GBE@AEPAXI@Z 0041c5d2 f i SoundPlayAction.obj
 0001:0001b5da       ??0SoundStopAction@@QAE@XZ 0041c5da f   SoundStopAction.obj
 0001:0001b5fa       ?Build@SoundStopAction@@UBEXPAVBuilder@@@Z 0041c5fa f   SoundStopAction.obj
 0001:0001b65e       ?Clone@SoundStopAction@@UBEPAVAction@@XZ 0041c65e f   SoundStopAction.obj
 0001:0001b690       ?GetActionNameResID@SoundStopAction@@UBEIXZ 0041c690 f   SoundStopAction.obj
 0001:0001b696       ??_EQuitAction@@WBE@AEPAXI@Z 0041c696 f i SoundStopAction.obj
 0001:0001b696       ??_EPlayAction@@WBE@AEPAXI@Z 0041c696 f i SoundStopAction.obj
 0001:0001b696       ??_ESoundStopAction@@WBE@AEPAXI@Z 0041c696 f i SoundStopAction.obj
 0001:0001b696       ??_EStopAction@@WBE@AEPAXI@Z 0041c696 f i SoundStopAction.obj
 0001:0001b69e       ??0StopAction@@QAE@XZ      0041c69e f   StopAction.obj
 0001:0001b6be       ??_EQuitAction@@UAEPAXI@Z  0041c6be f i StopAction.obj
 0001:0001b6be       ??_GPlayAction@@UAEPAXI@Z  0041c6be f i StopAction.obj
 0001:0001b6be       ??_EPlayAction@@UAEPAXI@Z  0041c6be f i StopAction.obj
 0001:0001b6be       ??_GSoundStopAction@@UAEPAXI@Z 0041c6be f i StopAction.obj
 0001:0001b6be       ??_GStopAction@@UAEPAXI@Z  0041c6be f i StopAction.obj
 0001:0001b6be       ??_GQuitAction@@UAEPAXI@Z  0041c6be f i StopAction.obj
 0001:0001b6be       ??_ESoundStopAction@@UAEPAXI@Z 0041c6be f i StopAction.obj
 0001:0001b6be       ??_EStopAction@@UAEPAXI@Z  0041c6be f i StopAction.obj
 0001:0001b6da       ?Build@StopAction@@EBEXPAVBuilder@@@Z 0041c6da f   StopAction.obj
 0001:0001b73e       ?Clone@StopAction@@EBEPAVAction@@XZ 0041c73e f   StopAction.obj
 0001:0001b770       ?GetActionNameResID@StopAction@@EBEIXZ 0041c770 f   StopAction.obj
 0001:0001b776       ??0AffineMatrix@@QAE@XZ    0041c776 f   AffineMatrix.obj
 0001:0001b796       ??4AffineMatrix@@QAEAAV0@ABV0@@Z 0041c796 f   AffineMatrix.obj
 0001:0001b7c1       ??D@YA?AVAffineMatrix@@ABV0@0@Z 0041c7c1 f   AffineMatrix.obj
 0001:0001b851       ??D@YA?AVCPoint@@ABVAffineMatrix@@ABV0@@Z 0041c851 f   AffineMatrix.obj
 0001:0001b86a       ?multiplyP@@YA?AVCPoint@@ABVAffineMatrix@@ABV1@@Z 0041c86a f i AffineMatrix.obj
 0001:0001b8b0       ??0Appli@@QAE@XZ           0041c8b0 f   Appli.obj
 0001:0001ba4a       ??_GAppli@@UAEPAXI@Z       0041ca4a f i Appli.obj
 0001:0001ba4a       ??_EAppli@@UAEPAXI@Z       0041ca4a f i Appli.obj
 0001:0001ba66       ??1?$TOLMOwner@VMainStage@@@@UAE@XZ 0041ca66 f i Appli.obj
 0001:0001ba66       ??1?$TOLMOwner@VKeyFrame@@@@UAE@XZ 0041ca66 f i Appli.obj
 0001:0001ba6b       ??_EMainStage@@UAEPAXI@Z   0041ca6b f i Appli.obj
 0001:0001ba6b       ??_GMainStage@@UAEPAXI@Z   0041ca6b f i Appli.obj
 0001:0001ba87       ??1MainStage@@UAE@XZ       0041ca87 f i Appli.obj
 0001:0001ba8c       ??1Appli@@UAE@XZ           0041ca8c f   Appli.obj
 0001:0001bb0c       ?AssertValid@Appli@@UBEXXZ 0041cb0c f   Appli.obj
 0001:0001bb3a       ?factoryMainStage@@YAPAVSDOMSerializable@@PBG@Z 0041cb3a f   Appli.obj
 0001:0001bb8f       ?namerMainStage@@YAPBGPAVSDOMSerializable@@@Z 0041cb8f f   Appli.obj
 0001:0001bb95       ?Serialize@Appli@@UAEXPAVSDOMArchive@@@Z 0041cb95 f   Appli.obj
 0001:0001bc1c       ?Build@Appli@@UBEXPAVBuilder@@@Z 0041cc1c f   Appli.obj
 0001:0001bca1       ?ActivateStage@Appli@@QAEXPBVStage@@@Z 0041cca1 f   Appli.obj
 0001:0001bcb0       ?GetActiveStage@Appli@@QAEPAVStage@@XZ 0041ccb0 f   Appli.obj
 0001:0001bcc9       ?GetLabelList@Appli@@QBEXAAV?$list@U?$pair@PBVLabel@@VCString@@@std@@V?$allocator@U?$pair@PBVLabel@@VCString@@@std@@@2@@std@@@Z 0041ccc9 f   Appli.obj
 0001:0001bcef       ??B?$_TOLM@VMainStage@@VCOLMOwner@@@@QBEPBVMainStage@@XZ 0041ccef f i Appli.obj
 0001:0001bcef       ??B?$_TOLM@VMainStage@@VCOLMOwner@@@@QAEPAVMainStage@@XZ 0041ccef f i Appli.obj
 0001:0001bcef       ??C?$_TOLM@VMainStage@@VCOLMOwner@@@@QBEPBVMainStage@@XZ 0041ccef f i Appli.obj
 0001:0001bd0c       ??_EMainStage@@WBA@AEPAXI@Z 0041cd0c f i Appli.obj
 0001:0001bd14       ??_EAppli@@W7AEPAXI@Z      0041cd14 f i Appli.obj
 0001:0001bd1c       ??0AppliConf@@QAE@XZ       0041cd1c f   AppliConf.obj
 0001:0001be0d       ??_GAppliConf@@UAEPAXI@Z   0041ce0d f i AppliConf.obj
 0001:0001be0d       ??_EAppliConf@@UAEPAXI@Z   0041ce0d f i AppliConf.obj
 0001:0001be29       ??1AppliConf@@UAE@XZ       0041ce29 f i AppliConf.obj
 0001:0001bea1       ?CopyFrom@AppliConf@@QAEXPBV1@@Z 0041cea1 f   AppliConf.obj
 0001:0001bf15       ?AssertValid@AppliConf@@UBEXXZ 0041cf15 f   AppliConf.obj
 0001:0001bf50       ?Serialize@AppliConf@@UAEXPAVSDOMArchive@@@Z 0041cf50 f   AppliConf.obj
 0001:0001c0e4       ?Build@AppliConf@@UBEXPAVBuilder@@@Z 0041d0e4 f   AppliConf.obj
 0001:0001c200       ?IsValidTitle@AppliConf@@CAHPBD@Z 0041d200 f   AppliConf.obj
 0001:0001c200       ?IsValidVendor@AppliConf@@CAHPBD@Z 0041d200 f   AppliConf.obj
 0001:0001c200       ?IsValidComment@AppliConf@@CAHPBD@Z 0041d200 f   AppliConf.obj
 0001:0001c235       ?IsValidAppliType@AppliConf@@CAHPBD@Z 0041d235 f   AppliConf.obj
 0001:0001c287       ?IsValidLayerOverClock@AppliConf@@CAHH@Z 0041d287 f   AppliConf.obj
 0001:0001c2a0       ??_EAppliConf@@W7AEPAXI@Z  0041d2a0 f i AppliConf.obj
 0001:0001c2a8       ??0Selectable@@IAE@XZ      0041d2a8 f   Selectable.obj
 0001:0001c2b5       ??_GSelectable@@MAEPAXI@Z  0041d2b5 f i Selectable.obj
 0001:0001c2b5       ??_ESelectable@@MAEPAXI@Z  0041d2b5 f i Selectable.obj
 0001:0001c2d1       ?CopyFrom@Selectable@@MAEXABV1@@Z 0041d2d1 f   Selectable.obj
 0001:0001c2de       ?Select@Selectable@@UAEXXZ 0041d2de f   Selectable.obj
 0001:0001c2e6       ??1Selectable@@MAE@XZ      0041d2e6 f   Selectable.obj
 0001:0001c2ed       ??0DialogBarDlg@@QAE@XZ    0041d2ed f   DialogBarDlg.obj
 0001:0001c315       ?OnDocumentUpdated@DocumentListener@@UAEXPAVCDocument@@JPAVCObject@@@Z 0041d315 f i DialogBarDlg.obj
 0001:0001c318       ?OnNotify@DocumentListener@@UAEXKPAVCDocument@@JPAX@Z 0041d318 f i DialogBarDlg.obj
 0001:0001c31b       ??_GDocumentListener@@UAEPAXI@Z 0041d31b f i DialogBarDlg.obj
 0001:0001c31b       ??_EDocumentListener@@UAEPAXI@Z 0041d31b f i DialogBarDlg.obj
 0001:0001c338       ??_GDialogBarDlg@@UAEPAXI@Z 0041d338 f i DialogBarDlg.obj
 0001:0001c338       ??_EDialogBarDlg@@UAEPAXI@Z 0041d338 f i DialogBarDlg.obj
 0001:0001c354       ??1DialogBarDlg@@UAE@XZ    0041d354 f   DialogBarDlg.obj
 0001:0001c3be       ??1DocumentListener@@UAE@XZ 0041d3be f i DialogBarDlg.obj
 0001:0001c3c5       ?OnInitDialog@DialogBarDlg@@MAEHXZ 0041d3c5 f   DialogBarDlg.obj
 0001:0001c3ed       ?OnClose@DialogBarDlg@@IAEXXZ 0041d3ed f   DialogBarDlg.obj
 0001:0001c415       ?ExistActiveDocument@DialogBarDlg@@IBEHXZ 0041d415 f   DialogBarDlg.obj
 0001:0001c41e       ?OnCmdMsg@DialogBarDlg@@MAEHIHPAXPAUAFX_CMDHANDLERINFO@@@Z 0041d41e f   DialogBarDlg.obj
 0001:0001c468       ?PreTranslateMessage@DialogBarDlg@@MAEHPAUtagMSG@@@Z 0041d468 f   DialogBarDlg.obj
 0001:0001c4ca       ??_EDialogBarDlg@@WGA@AEPAXI@Z 0041d4ca f i DialogBarDlg.obj
 0001:0001c4d2       ?BeginModalState@CWnd@@UAEXXZ 0041d4d2 f i DialogBarDlg.obj
 0001:0001c4de       ?EndModalState@CWnd@@UAEXXZ 0041d4de f i DialogBarDlg.obj
 0001:0001c4ea       ?GetMessageMap@DialogSizingBar@@MBEPBUAFX_MSGMAP@@XZ 0041d4ea f   DialogSizingBar.obj
 0001:0001c4f0       ?GetRuntimeClass@DialogSizingBar@@UBEPAUCRuntimeClass@@XZ 0041d4f0 f   DialogSizingBar.obj
 0001:0001c4f6       ??0DialogSizingBar@@QAE@XZ 0041d4f6 f   DialogSizingBar.obj
 0001:0001c548       ??_GDialogSizingBar@@UAEPAXI@Z 0041d548 f i DialogSizingBar.obj
 0001:0001c548       ??_EDialogSizingBar@@UAEPAXI@Z 0041d548 f i DialogSizingBar.obj
 0001:0001c564       ??1DialogSizingBar@@UAE@XZ 0041d564 f   DialogSizingBar.obj
 0001:0001c5ae       ?PostNcDestroy@DialogSizingBar@@MAEXXZ 0041d5ae f   DialogSizingBar.obj
 0001:0001c5e2       ?AttachDialog@DialogSizingBar@@QAEXPAVCDialog@@@Z 0041d5e2 f   DialogSizingBar.obj
 0001:0001c5f4       ?AdjustDialog@DialogSizingBar@@IAEXXZ 0041d5f4 f   DialogSizingBar.obj
 0001:0001c64d       ?OnSize@DialogSizingBar@@IAEXIHH@Z 0041d64d f   DialogSizingBar.obj
 0001:0001c66c       ?OnDestroy@DialogSizingBar@@IAEXXZ 0041d66c f   DialogSizingBar.obj
 0001:0001c69b       ?OnCmdMsg@DialogSizingBar@@MAEHIHPAXPAUAFX_CMDHANDLERINFO@@@Z 0041d69b f   DialogSizingBar.obj
 0001:0001c6f5       ?OnUpdateCmdUI@DialogSizingBar@@MAEXPAVCFrameWnd@@H@Z 0041d6f5 f   DialogSizingBar.obj
 0001:0001c770       ??0DialogSizingBarMgr@@QAE@XZ 0041d770 f   DialogSizingBar.obj
 0001:0001c7a0       ?Append@DialogSizingBarMgr@@QAEXPAVDialogSizingBar@@@Z 0041d7a0 f   DialogSizingBar.obj
 0001:0001c7c9       ?Remove@DialogSizingBarMgr@@AAEXPAVDialogSizingBar@@@Z 0041d7c9 f   DialogSizingBar.obj
 0001:0001c803       ?OnCmdMsg1@DialogSizingBarMgr@@QAEHIHPAXPAUAFX_CMDHANDLERINFO@@@Z 0041d803 f   DialogSizingBar.obj
 0001:0001c831       ?FindActiveBar@DialogSizingBarMgr@@AAEPAVDialogSizingBar@@XZ 0041d831 f   DialogSizingBar.obj
 0001:0001c880       ?OnCmdMsg2@DialogSizingBarMgr@@QAEHIHPAXPAUAFX_CMDHANDLERINFO@@@Z 0041d880 f   DialogSizingBar.obj
 0001:0001c8c1       ?IsAnyBarActive@DialogSizingBarMgr@@QBEHXZ 0041d8c1 f   DialogSizingBar.obj
 0001:0001c8ca       ?GetDefaultAccelerator@DialogSizingBarMgr@@UAEPAUHACCEL__@@XZ 0041d8ca f   DialogSizingBar.obj
 0001:0001c8e1       ?OnCommand1@DialogSizingBarMgr@@QAEHIJ@Z 0041d8e1 f   DialogSizingBar.obj
 0001:0001c90a       ?PreTranslateMessage@DialogSizingBar@@MAEHPAUtagMSG@@@Z 0041d90a f   DialogSizingBar.obj
 0001:0001c960       ??_EDialogSizingBar@@WBDM@AEPAXI@Z 0041d960 f i DialogSizingBar.obj
 0001:0001c96b       ?OnBarBeginFloat@SECControlBar@@UAEXXZ 0041d96b f i DialogSizingBar.obj
 0001:0001c973       ?OnBarBeginMDIFloat@SECControlBar@@UAEXXZ 0041d973 f i DialogSizingBar.obj
 0001:0001c97b       ??0CInfoZip@@QAE@XZ        0041d97b f   InfoZip.obj
 0001:0001c998       ??_GCInfoZip@@UAEPAXI@Z    0041d998 f i InfoZip.obj
 0001:0001c998       ??_ECInfoZip@@UAEPAXI@Z    0041d998 f i InfoZip.obj
 0001:0001c9b4       ??1CInfoZip@@UAE@XZ        0041d9b4 f   InfoZip.obj
 0001:0001c9bf       ?GetZipDllVersion@CInfoZip@@QAEHXZ 0041d9bf f   InfoZip.obj
 0001:0001c9dd       ?Initialize@CInfoZip@@QAEHXZ 0041d9dd f   InfoZip.obj
 0001:0001c9fd       ?Finalize@CInfoZip@@QAEHXZ 0041d9fd f   InfoZip.obj
 0001:0001ca1d       ?SetDefaultValues@CInfoZip@@QAEXPAUCZipParams@@@Z 0041da1d f   InfoZip.obj
 0001:0001caa7       ?AddFiles@CInfoZip@@QAEHPBDPAPADH@Z 0041daa7 f   InfoZip.obj
 0001:0001cb84       ?DefaultZipCallback@@YGHPAUCZipCallbackData@@@Z 0041db84 f   InfoZip.obj
 0001:0001cbc7       ?ReleaseParams@CInfoZip@@QAEXPAUCZipParams@@@Z 0041dbc7 f   InfoZip.obj
 0001:0001cbfd       ?GetInitializedZip@CInfoZip@@QAEHXZ 0041dbfd f   InfoZip.obj
 0001:0001cc12       ?GetInitializedUnzip@CInfoZip@@QAEHXZ 0041dc12 f   InfoZip.obj
 0001:0001cc27       ?InitializeZip@CInfoZip@@QAEHXZ 0041dc27 f   InfoZip.obj
 0001:0001cc8a       ?InitializeUnzip@CInfoZip@@QAEHXZ 0041dc8a f   InfoZip.obj
 0001:0001cced       ?FinalizeZip@CInfoZip@@QAEHXZ 0041dced f   InfoZip.obj
 0001:0001cd12       ?FinalizeUnzip@CInfoZip@@QAEHXZ 0041dd12 f   InfoZip.obj
 0001:0001cd37       ?GetMessageMap@BitmapButtonEx@@MBEPBUAFX_MSGMAP@@XZ 0041dd37 f   BitmapButtonEx.obj
 0001:0001cd3d       ??0BitmapButtonEx@@QAE@XZ  0041dd3d f   BitmapButtonEx.obj
 0001:0001cd5e       ??_EBitmapButtonEx@@UAEPAXI@Z 0041dd5e f i BitmapButtonEx.obj
 0001:0001cd5e       ??_GBitmapButtonEx@@UAEPAXI@Z 0041dd5e f i BitmapButtonEx.obj
 0001:0001cd7a       ??1BitmapButtonEx@@UAE@XZ  0041dd7a f   BitmapButtonEx.obj
 0001:0001cdcd       ?DrawItem@BitmapButtonEx@@UAEXPAUtagDRAWITEMSTRUCT@@@Z 0041ddcd f   BitmapButtonEx.obj
 0001:0001ceee       ?LoadBitmapA@BitmapButtonEx@@QAEHIH@Z 0041deee f   BitmapButtonEx.obj
 0001:0001cf4b       ??_ECBitmap@@UAEPAXI@Z     0041df4b f i BitmapButtonEx.obj
 0001:0001cf4b       ??_GCBitmap@@UAEPAXI@Z     0041df4b f i BitmapButtonEx.obj
 0001:0001cf67       ??1CBitmap@@UAE@XZ         0041df67 f i BitmapButtonEx.obj
 0001:0001cf9a       ?LoadBitmapA@CBitmap@@QAEHI@Z 0041df9a f i BitmapButtonEx.obj
 0001:0001cfbe       ?GetMessageMap@BitmapStatic@@MBEPBUAFX_MSGMAP@@XZ 0041dfbe f   BitmapStatic.obj
 0001:0001cfc4       ??0BitmapStatic@@QAE@XZ    0041dfc4 f   BitmapStatic.obj
 0001:0001d009       ??_GBitmapStatic@@UAEPAXI@Z 0041e009 f i BitmapStatic.obj
 0001:0001d009       ??_EBitmapStatic@@UAEPAXI@Z 0041e009 f i BitmapStatic.obj
 0001:0001d025       ??1BitmapStatic@@UAE@XZ    0041e025 f   BitmapStatic.obj
 0001:0001d060       ?Create@BitmapStatic@@QAEHIIPAVCWnd@@I@Z 0041e060 f   BitmapStatic.obj
 0001:0001d0a4       ?Setup@BitmapStatic@@QAEXII@Z 0041e0a4 f   BitmapStatic.obj
 0001:0001d144       ?HitTest@BitmapStatic@@IBEHVCPoint@@@Z 0041e144 f   BitmapStatic.obj
 0001:0001d16b       ?OnPaint@BitmapStatic@@IAEXXZ 0041e16b f   BitmapStatic.obj
 0001:0001d2d9       ?OnSetCursor@BitmapStatic@@IAEHPAVCWnd@@II@Z 0041e2d9 f   BitmapStatic.obj
 0001:0001d303       ?OnLButtonDown@BitmapStatic@@IAEXIVCPoint@@@Z 0041e303 f   BitmapStatic.obj
 0001:0001d43b       ?OnMouseLeave@BitmapStatic@@IAEXXZ 0041e43b f   BitmapStatic.obj
 0001:0001d452       ?OnMouseMove@BitmapStatic@@IAEXIVCPoint@@@Z 0041e452 f   BitmapStatic.obj
 0001:0001d4b4       ?PreSubclassWindow@BitmapStatic@@MAEXXZ 0041e4b4 f   BitmapStatic.obj
 0001:0001d4dd       ??_GCStatic@@UAEPAXI@Z     0041e4dd f i BitmapStatic.obj
 0001:0001d4dd       ??_ECStatic@@UAEPAXI@Z     0041e4dd f i BitmapStatic.obj
 0001:0001d4f9       ?FillNullRect@@YAXPAVCDC@@PBUtagRECT@@@Z 0041e4f9 f   ColorBox.obj
 0001:0001d5c4       ?FillSolidRect@@YAXPAVCDC@@PBUtagRECT@@K@Z 0041e5c4 f   ColorBox.obj
 0001:0001d5ec       ?_GetBaseClass@ColorBox@@KGPAUCRuntimeClass@@XZ 0041e5ec f   ColorBox.obj
 0001:0001d5f2       ?GetRuntimeClass@ColorBox@@UBEPAUCRuntimeClass@@XZ 0041e5f2 f   ColorBox.obj
 0001:0001d5f8       ?GetMessageMap@ColorBox@@MBEPBUAFX_MSGMAP@@XZ 0041e5f8 f   ColorBox.obj
 0001:0001d5fe       ??0ColorBox@@QAE@XZ        0041e5fe f   ColorBox.obj
 0001:0001d610       ??_GColorBox@@UAEPAXI@Z    0041e610 f i ColorBox.obj
 0001:0001d610       ??_EColorBox@@UAEPAXI@Z    0041e610 f i ColorBox.obj
 0001:0001d62c       ??1ColorBox@@UAE@XZ        0041e62c f   ColorBox.obj
 0001:0001d637       ?SetColor@ColorBox@@QAEXK@Z 0041e637 f   ColorBox.obj
 0001:0001d664       ?OnPaint@ColorBox@@IAEXXZ  0041e664 f   ColorBox.obj
 0001:0001d738       ?_GetBaseClass@ScaleBox@@KGPAUCRuntimeClass@@XZ 0041e738 f   ColorBox.obj
 0001:0001d738       ?_GetBaseClass@ToolBarWnd@@KGPAUCRuntimeClass@@XZ 0041e738 f   ColorBox.obj
 0001:0001d738       ?_GetBaseClass@SECListCtrl@@KGPAUCRuntimeClass@@XZ 0041e738 f   ColorBox.obj
 0001:0001d738       ?_GetBaseClass@SECWorkbookClientWnd@@KGPAUCRuntimeClass@@XZ 0041e738 f   ColorBox.obj
 0001:0001d738       ?_GetBaseClass@InToolBar@@KGPAUCRuntimeClass@@XZ 0041e738 f   ColorBox.obj
 0001:0001d738       ?_GetBaseClass@ColorBoxEx@@KGPAUCRuntimeClass@@XZ 0041e738 f   ColorBox.obj
 0001:0001d73e       ?GetRuntimeClass@ColorBoxEx@@UBEPAUCRuntimeClass@@XZ 0041e73e f   ColorBox.obj
 0001:0001d744       ?GetMessageMap@ColorBoxEx@@MBEPBUAFX_MSGMAP@@XZ 0041e744 f   ColorBox.obj
 0001:0001d74a       ??0ColorBoxEx@@QAE@XZ      0041e74a f   ColorBox.obj
 0001:0001d7b3       ??_GColorBoxEx@@UAEPAXI@Z  0041e7b3 f i ColorBox.obj
 0001:0001d7b3       ??_EColorBoxEx@@UAEPAXI@Z  0041e7b3 f i ColorBox.obj
 0001:0001d7cf       ?clinit@ColorBoxEx@@SAXXZ  0041e7cf f   ColorBox.obj
 0001:0001d7ff       ??1ColorBoxEx@@UAE@XZ      0041e7ff f   ColorBox.obj
 0001:0001d85b       ?SetColor@ColorBoxEx@@QAEXK@Z 0041e85b f   ColorBox.obj
 0001:0001d884       ?GetBitmapSize@@YA?AVCSize@@I@Z 0041e884 f   ColorBox.obj
 0001:0001d925       ?OnCreate@ColorBoxEx@@IAEHPAUtagCREATESTRUCTA@@@Z 0041e925 f   ColorBox.obj
 0001:0001da15       ?OnNeedText@ColorBoxEx@@IAEHIPAUtagNMHDR@@PAJ@Z 0041ea15 f   ColorBox.obj
 0001:0001da40       ?PreTranslateMessage@ColorBoxEx@@MAEHPAUtagMSG@@@Z 0041ea40 f   ColorBox.obj
 0001:0001da69       ?OnPaint@ColorBoxEx@@IAEXXZ 0041ea69 f   ColorBox.obj
 0001:0001dce9       ?OnLButtonDown@ColorBoxEx@@IAEXIVCPoint@@@Z 0041ece9 f   ColorBox.obj
 0001:0001dd12       ?PressButton@ColorBoxEx@@QAEXXZ 0041ed12 f   ColorBox.obj
 0001:0001ddbf       ?GetCurrentColor@ColorBoxEx@@SAKXZ 0041edbf f   ColorBox.obj
 0001:0001ddd6       ?OnKeyDown@ColorBoxEx@@IAEXIII@Z 0041edd6 f   ColorBox.obj
 0001:0001ddf3       ?DDX_ReplaceWnd@@YAXPAVCDataExchange@@HAAVCWnd@@KK@Z 0041edf3 f   ColorBox.obj
 0001:0001deb0       ?DDX_Control@ColorBoxEx@@SAXPAVCDataExchange@@HAAV1@IK@Z 0041eeb0 f   ColorBox.obj
 0001:0001deda       ?DDX_COLORREF@ColorBoxEx@@SAXPAVCDataExchange@@HAAK@Z 0041eeda f   ColorBox.obj
 0001:0001df18       ?Create@ColorBoxEx@@QAEHPAVCWnd@@VCRect@@IIK@Z 0041ef18 f   ColorBox.obj
 0001:0001df64       ?OnUpdateCmdUI@ColorBoxEx@@SAXPAVCCmdUI@@K@Z 0041ef64 f   ColorBox.obj
 0001:0001df9b       ??0ColorPicker@@QAE@PAVCWnd@@I@Z 0041ef9b f   ColorBox.obj
 0001:0001dfd8       ?DoPick@ColorPicker@@QAEHXZ 0041efd8 f   ColorBox.obj
 0001:0001e142       ?SetListener@ColorPicker@@QAEXPAVColorPickerListener@@@Z 0041f142 f   ColorBox.obj
 0001:0001e14b       ??0CFont@@QAE@XZ           0041f14b f i ColorBox.obj
 0001:0001e158       ?GetMessageMap@ColorFaceButton@@MBEPBUAFX_MSGMAP@@XZ 0041f158 f   ColorFaceButton.obj
 0001:0001e15e       ??0ColorFaceButton@@QAE@XZ 0041f15e f   ColorFaceButton.obj
 0001:0001e177       ??_EColorFaceButton@@UAEPAXI@Z 0041f177 f i ColorFaceButton.obj
 0001:0001e177       ??_GColorFaceButton@@UAEPAXI@Z 0041f177 f i ColorFaceButton.obj
 0001:0001e193       ??1ColorFaceButton@@UAE@XZ 0041f193 f   ColorFaceButton.obj
 0001:0001e19e       ?GetColor@ColorFaceButton@@QBEKXZ 0041f19e f   ColorFaceButton.obj
 0001:0001e19e       ?GetColor@ColorBoxEx@@QBEKXZ 0041f19e f   ColorFaceButton.obj
 0001:0001e1a2       ?SetColor@ColorFaceButton@@QAEXK@Z 0041f1a2 f   ColorFaceButton.obj
 0001:0001e1b9       ?DrawItem@ColorFaceButton@@MAEXPAUtagDRAWITEMSTRUCT@@@Z 0041f1b9 f   ColorFaceButton.obj
 0001:0001e2a4       ?OnClicked@ColorFaceButton@@IAEXXZ 0041f2a4 f   ColorFaceButton.obj
 0001:0001e331       ?GetMessageMap@FontStatic@@MBEPBUAFX_MSGMAP@@XZ 0041f331 f   FontStatic.obj
 0001:0001e337       ??0FontStatic@@QAE@XZ      0041f337 f   FontStatic.obj
 0001:0001e351       ??_GFontStatic@@UAEPAXI@Z  0041f351 f i FontStatic.obj
 0001:0001e351       ??_EFontStatic@@UAEPAXI@Z  0041f351 f i FontStatic.obj
 0001:0001e36d       ??1FontStatic@@UAE@XZ      0041f36d f   FontStatic.obj
 0001:0001e3a8       ?GetFont@CWnd@@QBEPAVCFont@@XZ 0041f3a8 f i FontStatic.obj
 0001:0001e3be       ?OnClicked@HyperlinkLabel@@AAEXXZ 0041f3be f   HyperLinkLabel.obj
 0001:0001e43c       ?OnMouseMove@HyperlinkLabel@@AAEXIVCPoint@@@Z 0041f43c f   HyperLinkLabel.obj
 0001:0001e4bf       ?OnMouseLeave@HyperlinkLabel@@AAEJIJ@Z 0041f4bf f   HyperLinkLabel.obj
 0001:0001e4d5       ?OnSetCursor@HyperlinkLabel@@AAEHPAVCWnd@@II@Z 0041f4d5 f   HyperLinkLabel.obj
 0001:0001e503       ?CtlColor@HyperlinkLabel@@AAEPAUHBRUSH__@@PAVCDC@@I@Z 0041f503 f   HyperLinkLabel.obj
 0001:0001e543       ?GetMessageMap@InPlaceEdit@@MBEPBUAFX_MSGMAP@@XZ 0041f543 f   InPlaceEdit.obj
 0001:0001e549       ??0InPlaceEdit@@QAE@XZ     0041f549 f   InPlaceEdit.obj
 0001:0001e55b       ??_EInPlaceEdit@@UAEPAXI@Z 0041f55b f i InPlaceEdit.obj
 0001:0001e55b       ??_GInPlaceEdit@@UAEPAXI@Z 0041f55b f i InPlaceEdit.obj
 0001:0001e577       ??1InPlaceEdit@@UAE@XZ     0041f577 f   InPlaceEdit.obj
 0001:0001e582       ?GetText@InPlaceEdit@@QBE?AVCString@@XZ 0041f582 f   InPlaceEdit.obj
 0001:0001e5dd       ?Create@InPlaceEdit@@QAEHAAVCRect@@PAVCWnd@@I@Z 0041f5dd f   InPlaceEdit.obj
 0001:0001e5f6       ?DoEdit@InPlaceEdit@@QAEHPBDPBUtagRECT@@@Z 0041f5f6 f   InPlaceEdit.obj
 0001:0001e61e       ?TrackEdit@InPlaceEdit@@IAEHXZ 0041f61e f   InPlaceEdit.obj
 0001:0001e6da       ?EnterEdit@InPlaceEdit@@IAEXPBDPBUtagRECT@@@Z 0041f6da f   InPlaceEdit.obj
 0001:0001e79b       ?ExitEdit@InPlaceEdit@@IAEXXZ 0041f79b f   InPlaceEdit.obj
 0001:0001e7c6       ?OnCreate@CWnd@@IAEHPAUtagCREATESTRUCTA@@@Z 0041f7c6 f i InPlaceEdit.obj
 0001:0001e7c6       ?OnKillFocus@CWnd@@IAEXPAV1@@Z 0041f7c6 f i InPlaceEdit.obj
 0001:0001e7c6       ?OnSetFocus@CWnd@@IAEXPAV1@@Z 0041f7c6 f i InPlaceEdit.obj
 0001:0001e7ce       ?OnActivate@CWnd@@IAEXIPAV1@H@Z 0041f7ce f i InPlaceEdit.obj
 0001:0001e7ce       ?OnNcLButtonDown@CWnd@@IAEXIVCPoint@@@Z 0041f7ce f i InPlaceEdit.obj
 0001:0001e7ce       ?OnNcMButtonDown@CWnd@@IAEXIVCPoint@@@Z 0041f7ce f i InPlaceEdit.obj
 0001:0001e7ce       ?OnKeyUp@CWnd@@IAEXIII@Z   0041f7ce f i InPlaceEdit.obj
 0001:0001e7ce       ?OnNcRButtonDown@CWnd@@IAEXIVCPoint@@@Z 0041f7ce f i InPlaceEdit.obj
 0001:0001e7d6       ?GetMessageMap@InToolBar@@MBEPBUAFX_MSGMAP@@XZ 0041f7d6 f   InToolBar.obj
 0001:0001e7dc       ?GetRuntimeClass@InToolBar@@UBEPAUCRuntimeClass@@XZ 0041f7dc f   InToolBar.obj
 0001:0001e7e2       ??0InToolBar@@QAE@HVCSize@@H0@Z 0041f7e2 f   InToolBar.obj
 0001:0001e892       ??_GInToolBar@@UAEPAXI@Z   0041f892 f i InToolBar.obj
 0001:0001e892       ??_EInToolBar@@UAEPAXI@Z   0041f892 f i InToolBar.obj
 0001:0001e8ae       ??1InToolBar@@UAE@XZ       0041f8ae f   InToolBar.obj
 0001:0001e922       ?IsRealyEnabled@InToolBar@@ABEHXZ 0041f922 f   InToolBar.obj
 0001:0001e960       ?GetCurrentPosID@InToolBar@@ABEIXZ 0041f960 f   InToolBar.obj
 0001:0001e9a0       ?OnNeedText@InToolBar@@AAEHIPAUtagNMHDR@@PAJ@Z 0041f9a0 f   InToolBar.obj
 0001:0001e9ee       ?PreTranslateMessage@InToolBar@@EAEHPAUtagMSG@@@Z 0041f9ee f   InToolBar.obj
 0001:0001ea17       ?Create@InToolBar@@QAEHIPAVCWnd@@HKI@Z 0041fa17 f   InToolBar.obj
 0001:0001eaf1       ?Init@InToolBar@@AAEHXZ    0041faf1 f   InToolBar.obj
 0001:0001eb9c       ?GetCount@InToolBar@@QBEHXZ 0041fb9c f   InToolBar.obj
 0001:0001ebb2       ?SetButtonStyle@InToolBar@@QAEXHI@Z 0041fbb2 f   InToolBar.obj
 0001:0001ebfa       ?GetButtonStyle@InToolBar@@QBEIH@Z 0041fbfa f   InToolBar.obj
 0001:0001ec13       ?GetButtonID@InToolBar@@QBEIH@Z 0041fc13 f   InToolBar.obj
 0001:0001ec2c       ?GetButtonRect@InToolBar@@QBEXHPAUtagRECT@@@Z 0041fc2c f   InToolBar.obj
 0001:0001ec50       ?GetButtonItem@InToolBar@@ABEXHAAUInToolBarItem@@@Z 0041fc50 f   InToolBar.obj
 0001:0001ec6c       ?SetButtonItem@InToolBar@@AAEXHABUInToolBarItem@@@Z 0041fc6c f   InToolBar.obj
 0001:0001ec88       ??0InToolBarCmdUI@@QAE@PAVInToolBar@@@Z 0041fc88 f   InToolBar.obj
 0001:0001eca6       ?Enable@InToolBarCmdUI@@UAEXH@Z 0041fca6 f   InToolBar.obj
 0001:0001ed29       ?SetCheck@InToolBarCmdUI@@UAEXH@Z 0041fd29 f   InToolBar.obj
 0001:0001ed6b       ?SetRadio@InToolBarCmdUI@@UAEXH@Z 0041fd6b f   InToolBar.obj
 0001:0001edcc       ?OnUpdateCmdUI@InToolBar@@QAEXPAVCWnd@@H@Z 0041fdcc f   InToolBar.obj
 0001:0001ee54       ?OnIdleUpdateCmdUI@InToolBar@@QAEXXZ 0041fe54 f   InToolBar.obj
 0001:0001ee76       ?HitTest@InToolBar@@ABEHVCPoint@@@Z 0041fe76 f   InToolBar.obj
 0001:0001eed8       ?OnPaint@InToolBar@@AAEXXZ 0041fed8 f   InToolBar.obj
 0001:0001ef43       ?DrawBorder@@YAXAAVCDC@@VCRect@@VCSize@@@Z 0041ff43 f   InToolBar.obj
 0001:0001efb3       ?DrawFrame@InToolBar@@AAEXAAVCDC@@@Z 0041ffb3 f   InToolBar.obj
 0001:0001f011       ?DrawButton@InToolBar@@AAEXAAVCDC@@ABUInToolBarItem@@@Z 00420011 f   InToolBar.obj
 0001:0001f11a       ?RedrawButton@InToolBar@@AAEXH@Z 0042011a f   InToolBar.obj
 0001:0001f148       ?OnMouseLeave@InToolBar@@AAEXXZ 00420148 f   InToolBar.obj
 0001:0001f15b       ?OnMouseMove@InToolBar@@AAEXIVCPoint@@@Z 0042015b f   InToolBar.obj
 0001:0001f1d1       ?OnLButtonDown@InToolBar@@AAEXIVCPoint@@@Z 004201d1 f   InToolBar.obj
 0001:0001f333       ?FindIndex@InToolBar@@AAEHI@Z 00420333 f   InToolBar.obj
 0001:0001f359       ?LoadToolbar@InToolBar@@AAEHI@Z 00420359 f   InToolBar.obj
 0001:0001f54d       ?OnEraseBkgnd@SECToolBar@@IAEHPAVCDC@@@Z 0042054d f   InToolBar.obj
 0001:0001f54d       ?OnEnable@InToolBar@@AAEXH@Z 0042054d f   InToolBar.obj
 0001:0001f555       ?OnCmdMsg@InToolBar@@EAEHIHPAXPAUAFX_CMDHANDLERINFO@@@Z 00420555 f   InToolBar.obj
 0001:0001f587       ?push_back@?$vector@UInToolBarItem@@V?$allocator@UInToolBarItem@@@std@@@std@@QAEXABUInToolBarItem@@@Z 00420587 f i InToolBar.obj
 0001:0001f598       ?insert@?$vector@UInToolBarItem@@V?$allocator@UInToolBarItem@@@std@@@std@@QAEXPAUInToolBarItem@@IABU3@@Z 00420598 f i InToolBar.obj
 0001:0001f7ec       ?GetOwner@CWnd@@QBEPAV1@XZ 004207ec f i InToolBar.obj
 0001:0001f803       ?GetMessageMap@InWnd@@MBEPBUAFX_MSGMAP@@XZ 00420803 f   InWnd.obj
 0001:0001f809       ??0InWnd@@QAE@XZ           00420809 f   InWnd.obj
 0001:0001f81f       ??_GInWnd@@UAEPAXI@Z       0042081f f i InWnd.obj
 0001:0001f81f       ??_EInWnd@@UAEPAXI@Z       0042081f f i InWnd.obj
 0001:0001f83b       ??1InWnd@@UAE@XZ           0042083b f   InWnd.obj
 0001:0001f846       ?OnPaint@InWnd@@IAEXXZ     00420846 f   InWnd.obj
 0001:0001f86f       ?OnLButtonDblClk@InWnd@@IAEXIVCPoint@@@Z 0042086f f   InWnd.obj
 0001:0001f894       ?OnLButtonDown@InWnd@@IAEXIVCPoint@@@Z 00420894 f   InWnd.obj
 0001:0001f8d3       ?OnLButtonUp@InWnd@@IAEXIVCPoint@@@Z 004208d3 f   InWnd.obj
 0001:0001f8d3       ?OnMouseMove@PreviewStatic@@AAEXIVCPoint@@@Z 004208d3 f   InWnd.obj
 0001:0001f8f8       ?OnRButtonDblClk@InWnd@@IAEXIVCPoint@@@Z 004208f8 f   InWnd.obj
 0001:0001f91d       ?OnRButtonDown@InWnd@@IAEXIVCPoint@@@Z 0042091d f   InWnd.obj
 0001:0001f94b       ?OnRButtonUp@InWnd@@IAEXIVCPoint@@@Z 0042094b f   InWnd.obj
 0001:0001f970       ?OnSetCursor@InWnd@@IAEHPAVCWnd@@II@Z 00420970 f   InWnd.obj
 0001:0001f995       ?Create@InWnd@@UAEHPAVInWndOwner@@PAVCWnd@@PBUtagRECT@@IKK@Z 00420995 f   InWnd.obj
 0001:0001f9ff       ??0InWndOwner@@QAE@XZ      004209ff f   InWnd.obj
 0001:0001fa08       ??_EInWndOwner@@MAEPAXI@Z  00420a08 f i InWnd.obj
 0001:0001fa08       ??_GInWndOwner@@MAEPAXI@Z  00420a08 f i InWnd.obj
 0001:0001fa24       ??1InWndOwner@@MAE@XZ      00420a24 f   InWnd.obj
 0001:0001fa2b       ?OnPaint@InWndOwner@@UAEXPAVInWnd@@@Z 00420a2b f   InWnd.obj
 0001:0001fa48       ?OnLButtonUp@InWndOwner@@UAEXPAVInWnd@@IVCPoint@@@Z 00420a48 f   InWnd.obj
 0001:0001fa48       ?OnLButtonDblClk@InWndOwner@@UAEXPAVInWnd@@IVCPoint@@@Z 00420a48 f   InWnd.obj
 0001:0001fa48       ?OnLButtonDown@InWndOwner@@UAEXPAVInWnd@@IVCPoint@@@Z 00420a48 f   InWnd.obj
 0001:0001fa48       ?OnRButtonDown@InWndOwner@@UAEXPAVInWnd@@IVCPoint@@@Z 00420a48 f   InWnd.obj
 0001:0001fa48       ?OnPSMouseMove@PaintEventListener@PreviewStatic@@UAEXAAV2@IVCPoint@@@Z 00420a48 f   InWnd.obj
 0001:0001fa48       ?OnRButtonDblClk@InWndOwner@@UAEXPAVInWnd@@IVCPoint@@@Z 00420a48 f   InWnd.obj
 0001:0001fa48       ?OnRButtonUp@InWndOwner@@UAEXPAVInWnd@@IVCPoint@@@Z 00420a48 f   InWnd.obj
 0001:0001fa48       ?OnSetCursor@InWndOwner@@UAEHPAVInWnd@@PAVCWnd@@II@Z 00420a48 f   InWnd.obj
 0001:0001fa54       ?OnGetDlgCode@InWnd@@IAEIXZ 00420a54 f   InWnd.obj
 0001:0001fa59       ?OnPSNcPaint@PaintEventListener@PreviewStatic@@UAEXAAV2@@Z 00420a59 f   PreviewStatic.obj
 0001:0001fa59       ?OnPSPaint@PaintEventListener@PreviewStatic@@UAEXAAV2@@Z 00420a59 f   PreviewStatic.obj
 0001:0001fa65       ?OnPSEraseBkgnd@PaintEventListener@PreviewStatic@@UAEHAAV2@AAVCDC@@@Z 00420a65 f   PreviewStatic.obj
 0001:0001fa71       ??0PreviewStatic@@QAE@XZ   00420a71 f   PreviewStatic.obj
 0001:0001fa87       ??_EPreviewStatic@@UAEPAXI@Z 00420a87 f i PreviewStatic.obj
 0001:0001fa87       ??_GPreviewStatic@@UAEPAXI@Z 00420a87 f i PreviewStatic.obj
 0001:0001faa3       ??1PreviewStatic@@UAE@XZ   00420aa3 f   PreviewStatic.obj
 0001:0001fab2       ?GetMessageMap@PreviewStatic@@MBEPBUAFX_MSGMAP@@XZ 00420ab2 f   PreviewStatic.obj
 0001:0001fab8       ?OnPaint@PreviewStatic@@AAEXXZ 00420ab8 f   PreviewStatic.obj
 0001:0001facc       ?OnEraseBkgnd@PreviewStatic@@AAEHPAVCDC@@@Z 00420acc f   PreviewStatic.obj
 0001:0001fae9       ?OnNcPaint@PreviewStatic@@AAEXXZ 00420ae9 f   PreviewStatic.obj
 0001:0001fafe       ?SetListener@PreviewStatic@@QAEXPAVPaintEventListener@1@@Z 00420afe f   PreviewStatic.obj
 0001:0001fb08       ?OnSize@PreviewStatic@@AAEXIHH@Z 00420b08 f   PreviewStatic.obj
 0001:0001fb21       ?GetMessageMap@SplashWnd@@MBEPBUAFX_MSGMAP@@XZ 00420b21 f   SplashWnd.obj
 0001:0001fb27       ?DoSplash@SplashWnd@@SAXI@Z 00420b27 f   SplashWnd.obj
 0001:0001fb91       ?EndSplash@SplashWnd@@SAXI@Z 00420b91 f   SplashWnd.obj
 0001:0001fba1       ??0SplashWnd@@AAE@I@Z      00420ba1 f   SplashWnd.obj
 0001:0001fc27       ??_GSplashWnd@@EAEPAXI@Z   00420c27 f i SplashWnd.obj
 0001:0001fc27       ??_ESplashWnd@@EAEPAXI@Z   00420c27 f i SplashWnd.obj
 0001:0001fc43       ?PostNcDestroy@SplashWnd@@EAEXXZ 00420c43 f   SplashWnd.obj
 0001:0001fc61       ??1SplashWnd@@EAE@XZ       00420c61 f   SplashWnd.obj
 0001:0001fcb4       ?_DoSplash@SplashWnd@@AAEXXZ 00420cb4 f   SplashWnd.obj
 0001:0001fd82       ?OnTimer@SplashWnd@@AAEXI@Z 00420d82 f   SplashWnd.obj
 0001:0001fdbe       ?_EndSplash@SplashWnd@@AAEXI@Z 00420dbe f   SplashWnd.obj
 0001:0001fdd2       ?HideSplash@SplashWnd@@AAEXI@Z 00420dd2 f   SplashWnd.obj
 0001:0001fde6       ?OnKeyDown@SplashWnd@@AAEXIII@Z 00420de6 f   SplashWnd.obj
 0001:0001fde6       ?OnLButtonDown@SplashWnd@@AAEXIVCPoint@@@Z 00420de6 f   SplashWnd.obj
 0001:0001fdf3       ?OnNcPaint@SplashWnd@@AAEXXZ 00420df3 f   SplashWnd.obj
 0001:0001feb5       ?GetMessageMap@SplitterCtrl@@MBEPBUAFX_MSGMAP@@XZ 00420eb5 f   SplitterCtrl.obj
 0001:0001febb       ??0SplitterCtrl@@QAE@IPAUHICON__@@@Z 00420ebb f   SplitterCtrl.obj
 0001:0001fee6       ??_ESplitterCtrl@@UAEPAXI@Z 00420ee6 f i SplitterCtrl.obj
 0001:0001fee6       ??_GSplitterCtrl@@UAEPAXI@Z 00420ee6 f i SplitterCtrl.obj
 0001:0001ff02       ??1SplitterCtrl@@UAE@XZ    00420f02 f   SplitterCtrl.obj
 0001:0001ff0d       ?SetPane1MinSize@SplitterCtrl@@IAEXI@Z 00420f0d f   SplitterCtrl.obj
 0001:0001ff0d       ?SetLock@Layer@@QAEXH@Z    00420f0d f   SplitterCtrl.obj
 0001:0001ff17       ?SetPane2MinSize@SplitterCtrl@@IAEXI@Z 00420f17 f   SplitterCtrl.obj
 0001:0001ff21       ?OnSetCursor@SplitterCtrl@@AAEHPAVCWnd@@II@Z 00420f21 f   SplitterCtrl.obj
 0001:0001ff30       ?NotifySplitterMove@SplitterCtrl@@AAEXXZ 00420f30 f   SplitterCtrl.obj
 0001:0001ff68       ?GetParentClientRect@SplitterCtrl@@IBEXPAUtagRECT@@@Z 00420f68 f   SplitterCtrl.obj
 0001:0001ff96       ?OnPaint@SplitterCtrl@@AAEXXZ 00420f96 f   SplitterCtrl.obj
 0001:0001ffaf       ?OnEraseBkgnd@SplitterCtrl@@AAEHPAVCDC@@@Z 00420faf f   SplitterCtrl.obj
 0001:0001ffde       ?OnLButtonDown@SplitterCtrl@@AAEXIVCPoint@@@Z 00420fde f   SplitterCtrl.obj
 0001:00020001       ?_GetBaseClass@CClientDCEx@@KGPAUCRuntimeClass@@XZ 00421001 f   SplitterCtrl.obj
 0001:00020007       ?GetRuntimeClass@CClientDCEx@@UBEPAUCRuntimeClass@@XZ 00421007 f   SplitterCtrl.obj
 0001:0002000d       ??0CClientDCEx@@QAE@PAVCWnd@@PAVCRgn@@K@Z 0042100d f   SplitterCtrl.obj
 0001:00020088       ??_GCClientDCEx@@UAEPAXI@Z 00421088 f i SplitterCtrl.obj
 0001:00020088       ??_ECClientDCEx@@UAEPAXI@Z 00421088 f i SplitterCtrl.obj
 0001:000200a4       ??1CClientDCEx@@UAE@XZ     004210a4 f   SplitterCtrl.obj
 0001:000200e6       ?OffsetChildWindow@@YAXPAVCWnd@@VCPoint@@@Z 004210e6 f   SplitterCtrl.obj
 0001:00020145       ?GetCursorClientPos@@YA?AVCPoint@@PAVCWnd@@@Z 00421145 f   SplitterCtrl.obj
 0001:00020174       ?DoSplitterMove@SplitterCtrl@@AAEHXZ 00421174 f   SplitterCtrl.obj
 0001:00020307       ?GetPointFromLPARAM@SplitterCtrl@@CAXAAVCPoint@@J@Z 00421307 f   SplitterCtrl.obj
 0001:0002031e       ?Track@SplitterCtrl@@AAEHAAVCDC@@@Z 0042131e f   SplitterCtrl.obj
 0001:0002042b       ?GetSplitterPos@SplitterCtrl@@ABEIXZ 0042142b f   SplitterCtrl.obj
 0001:0002046d       ?GetTrackClipRect@SplitterCtrl@@AAEXAAVCRect@@@Z 0042146d f   SplitterCtrl.obj
 0001:000204cd       ?GetPosFromPointC@SplitterCtrl@@ABEABJABVCPoint@@@Z 004214cd f   SplitterCtrl.obj
 0001:000204dc       ??0SplitterVCtrl@@QAE@XZ   004214dc f   SplitterCtrl.obj
 0001:00020508       ??_ESplitterVCtrl@@UAEPAXI@Z 00421508 f i SplitterCtrl.obj
 0001:00020508       ??_GSplitterVCtrl@@UAEPAXI@Z 00421508 f i SplitterCtrl.obj
 0001:00020524       ??1SplitterVCtrl@@UAE@XZ   00421524 f   SplitterCtrl.obj
 0001:0002052f       ?GetPosFromPoint@SplitterVCtrl@@MAEAAJAAVCPoint@@@Z 0042152f f   SplitterCtrl.obj
 0001:00020539       ?GetDragSplitRect@SplitterVCtrl@@MBEXAAVCRect@@@Z 00421539 f   SplitterCtrl.obj
 0001:0002055f       ??0SplitterHCtrl@@QAE@XZ   0042155f f   SplitterCtrl.obj
 0001:0002058b       ??_GSplitterHCtrl@@UAEPAXI@Z 0042158b f i SplitterCtrl.obj
 0001:0002058b       ??_ESplitterHCtrl@@UAEPAXI@Z 0042158b f i SplitterCtrl.obj
 0001:000205a7       ??1SplitterHCtrl@@UAE@XZ   004215a7 f   SplitterCtrl.obj
 0001:000205b2       ?GetDragSplitRect@SplitterHCtrl@@MBEXAAVCRect@@@Z 004215b2 f   SplitterCtrl.obj
 0001:000205d6       ?GetPosFromPoint@SplitterHCtrl@@MAEAAJAAVCPoint@@@Z 004215d6 f   SplitterCtrl.obj
 0001:000205dd       ?SetLeftPaneMinWidth@SplitterHCtrl@@QAEXI@Z 004215dd f   SplitterCtrl.obj
 0001:000205e9       ?SetRightPaneMinWidth@SplitterHCtrl@@QAEXI@Z 004215e9 f   SplitterCtrl.obj
 0001:000205f5       ?PtVisible@CDC@@UBEHHH@Z   004215f5 f i SplitterCtrl.obj
 0001:00020609       ?RectVisible@CDC@@UBEHPBUtagRECT@@@Z 00421609 f i SplitterCtrl.obj
 0001:00020619       ?TextOutA@CDC@@UAEHHHPBDH@Z 00421619 f i SplitterCtrl.obj
 0001:00020635       ?ExtTextOutA@CDC@@UAEHHHIPBUtagRECT@@PBDIPAH@Z 00421635 f i SplitterCtrl.obj
 0001:0002065a       ?TabbedTextOutA@CDC@@UAE?AVCSize@@HHPBDHHPAHH@Z 0042165a f i SplitterCtrl.obj
 0001:00020692       ?DrawTextA@CDC@@UAEHPBDHPAUtagRECT@@I@Z 00421692 f i SplitterCtrl.obj
 0001:000206ae       ?GrayStringA@CDC@@UAEHPAVCBrush@@P6GHPAUHDC__@@JH@ZJHHHHH@Z 004216ae f i SplitterCtrl.obj
 0001:000206de       ?Escape@CDC@@UAEHHHPBDPAX@Z 004216de f i SplitterCtrl.obj
 0001:000206fa       ?GetMessageMap@ToolBarWnd@@MBEPBUAFX_MSGMAP@@XZ 004216fa f   ToolBarWnd.obj
 0001:00020700       ?GetRuntimeClass@ToolBarWnd@@UBEPAUCRuntimeClass@@XZ 00421700 f   ToolBarWnd.obj
 0001:00020706       ??0ToolBarWnd@@QAE@XZ      00421706 f   ToolBarWnd.obj
 0001:00020747       ??_EToolBarWnd@@UAEPAXI@Z  00421747 f i ToolBarWnd.obj
 0001:00020747       ??_GToolBarWnd@@UAEPAXI@Z  00421747 f i ToolBarWnd.obj
 0001:00020763       ??1ToolBarWnd@@UAE@XZ      00421763 f i ToolBarWnd.obj
 0001:00020798       ?OnNeedText@ToolBarWnd@@IAEXPAUtagNMHDR@@PAJ@Z 00421798 f   ToolBarWnd.obj
 0001:00020812       ?Create@ToolBarWnd@@QAEXKVCPoint@@PAVCWnd@@I@Z 00421812 f   ToolBarWnd.obj
 0001:000208a1       ?LoadToolBarData@@YAPAUCToolBarData@@I@Z 004218a1 f   ToolBarWnd.obj
 0001:000208eb       ?LoadToolBar@ToolBarWnd@@QAEXIHHH@Z 004218eb f   ToolBarWnd.obj
 0001:00020a08       ?AdjustSize@ToolBarWnd@@IAEXHHHH@Z 00421a08 f   ToolBarWnd.obj
 0001:00020adc       ?LoadItems@ToolBarWnd@@IAEXPAGHAAV?$CArray@IAAI@@@Z 00421adc f   ToolBarWnd.obj
 0001:00020b11       ?DeleteAllButtons@ToolBarWnd@@IAEXXZ 00421b11 f   ToolBarWnd.obj
 0001:00020b49       ?SetButtons@ToolBarWnd@@IAEXPBIH@Z 00421b49 f   ToolBarWnd.obj
 0001:00020bdd       ?Enable@ToolBarWndCmdUI@@UAEXH@Z 00421bdd f   ToolBarWnd.obj
 0001:00020c3d       ?SetCheck@ToolBarWndCmdUI@@UAEXH@Z 00421c3d f   ToolBarWnd.obj
 0001:00020c8d       ?SetRadio@ToolBarWndCmdUI@@UAEXH@Z 00421c8d f   ToolBarWnd.obj
 0001:00020c9f       ?OnUpdateCmdUI@ToolBarWnd@@IAEXPAVCFrameWnd@@H@Z 00421c9f f   ToolBarWnd.obj
 0001:00020d56       ?OnIdleUpdateCmdUI@ToolBarWnd@@IAEJIJ@Z 00421d56 f   ToolBarWnd.obj
 0001:00020da1       ?OnCmdMsg@ToolBarWnd@@MAEHIHPAXPAUAFX_CMDHANDLERINFO@@@Z 00421da1 f   ToolBarWnd.obj
 0001:00020def       ??1?$CArray@IAAI@@UAE@XZ   00421def f i ToolBarWnd.obj
 0001:00020e0e       ?Serialize@?$CArray@IAAI@@UAEXAAVCArchive@@@Z 00421e0e f i ToolBarWnd.obj
 0001:00020e0e       ?Serialize@?$CArray@KAAK@@UAEXAAVCArchive@@@Z 00421e0e f i ToolBarWnd.obj
 0001:00020e4d       ??_E?$CArray@IAAI@@UAEPAXI@Z 00421e4d f i ToolBarWnd.obj
 0001:00020e4d       ??_G?$CArray@IAAI@@UAEPAXI@Z 00421e4d f i ToolBarWnd.obj
 0001:00020e69       ??_ECToolBarCtrl@@UAEPAXI@Z 00421e69 f i ToolBarWnd.obj
 0001:00020e69       ??_GCToolBarCtrl@@UAEPAXI@Z 00421e69 f i ToolBarWnd.obj
 0001:00020ec6       ??0CBase64@@QAE@XZ         00421ec6 f   Base64.obj
 0001:00020ed8       ??_GCBase64@@UAEPAXI@Z     00421ed8 f i Base64.obj
 0001:00020ed8       ??_ECBase64@@UAEPAXI@Z     00421ed8 f i Base64.obj
 0001:00020ef4       ??1CBase64@@UAE@XZ         00421ef4 f   Base64.obj
 0001:00020eff       ?Encode@CBase64@@UAE?AVCString@@PBDH@Z 00421eff f   Base64.obj
 0001:00020fd9       ?Decode@CBase64@@UAEHPBDPAD@Z 00421fd9 f   Base64.obj
 0001:000210ea       ?read_bits@CBase64@@IAEIHPAHAAH@Z 004220ea f   Base64.obj
 0001:00021162       ?write_bits@CBase64@@IAEXIHPADAAH@Z 00422162 f   Base64.obj
 0001:000211aa       ?iskanji@@YAHH@Z           004221aa f   kconv.obj
 0001:000211bb       ?han2zen@@YAHPAIPAE@Z      004221bb f   kconv.obj
 0001:00021295       ?sjis2jis@@YAII@Z          00422295 f   kconv.obj
 0001:000212dc       ??0CMailMessage@@QAE@XZ    004222dc f   MailMessage.obj
 0001:00021398       ??_ECMailMessage@@UAEPAXI@Z 00422398 f i MailMessage.obj
 0001:00021398       ??_GCMailMessage@@UAEPAXI@Z 00422398 f i MailMessage.obj
 0001:000213b4       ??1CMailMessage@@UAE@XZ    004223b4 f   MailMessage.obj
 0001:00021447       ?AddRecipient@CMailMessage@@QAEHPBD0W4RECIPIENTS_TYPE@1@@Z 00422447 f   MailMessage.obj
 0001:000214dc       ??1CRecipient@CMailMessage@@QAE@XZ 004224dc f i MailMessage.obj
 0001:00021511       ?GetRecipient@CMailMessage@@QAEHAAVCString@@0HW4RECIPIENTS_TYPE@1@@Z 00422511 f   MailMessage.obj
 0001:000215cf       ?GetNumRecipients@CMailMessage@@QAEHW4RECIPIENTS_TYPE@1@@Z 004225cf f   MailMessage.obj
 0001:000215ef       ?AddMultipleRecipients@CMailMessage@@QAEHPBDW4RECIPIENTS_TYPE@1@@Z 004225ef f   MailMessage.obj
 0001:0002177a       ?FormatMessageA@CMailMessage@@QAEXXZ 0042277a f   MailMessage.obj
 0001:00021799       ?SetCharsPerLine@CMailMessage@@QAEXI@Z 00422799 f   MailMessage.obj
 0001:000217a3       ?prepare_header@CMailMessage@@MAEXXZ 004227a3 f   MailMessage.obj
 0001:00021a33       ?GetCurrentRFC822Date@@YA?AVCString@@XZ 00422a33 f   MailMessage.obj
 0001:00021b97       ?prepare_body@CMailMessage@@MAEXXZ 00422b97 f   MailMessage.obj
 0001:00021bdd       ?start_header@CMailMessage@@MAEXXZ 00422bdd f   MailMessage.obj
 0001:00021beb       ?end_header@CMailMessage@@MAEXXZ 00422beb f   MailMessage.obj
 0001:00021bf9       ?add_header_line@CMailMessage@@MAEXPBD@Z 00422bf9 f   MailMessage.obj
 0001:00021c4e       ??1?$CArray@VCRecipient@CMailMessage@@AAV12@@@UAE@XZ 00422c4e f i MailMessage.obj
 0001:00021c95       ?Serialize@?$CArray@VCRecipient@CMailMessage@@AAV12@@@UAEXAAVCArchive@@@Z 00422c95 f i MailMessage.obj
 0001:00021cd4       ??_E?$CArray@VCRecipient@CMailMessage@@AAV12@@@UAEPAXI@Z 00422cd4 f i MailMessage.obj
 0001:00021cd4       ??_G?$CArray@VCRecipient@CMailMessage@@AAV12@@@UAEPAXI@Z 00422cd4 f i MailMessage.obj
 0001:00021cf0       ?SetSize@?$CArray@VCRecipient@CMailMessage@@AAV12@@@QAEXHH@Z 00422cf0 f i MailMessage.obj
 0001:00021e08       ?SetAtGrow@?$CArray@VCRecipient@CMailMessage@@AAV12@@@QAEXHAAVCRecipient@CMailMessage@@@Z 00422e08 f i MailMessage.obj
 0001:00021e43       ?DestructElements@@YGXPAVCRecipient@CMailMessage@@H@Z 00422e43 f i MailMessage.obj
 0001:00021e67       ?SerializeElements@@YGXAAVCArchive@@PAVCRecipient@CMailMessage@@H@Z 00422e67 f i MailMessage.obj
 0001:00021e67       ?SerializeElements@@YGXAAVCArchive@@PAUtagPOINT@@H@Z 00422e67 f i MailMessage.obj
 0001:00021e97       ?ConstructElements@@YGXPAVCRecipient@CMailMessage@@H@Z 00422e97 f i MailMessage.obj
 0001:00021efd       ??0CMIMECode@@QAE@XZ       00422efd f   MIMECode.obj
 0001:00021f06       ??_GCMIMECode@@UAEPAXI@Z   00422f06 f i MIMECode.obj
 0001:00021f06       ??_ECMIMECode@@UAEPAXI@Z   00422f06 f i MIMECode.obj
 0001:00021f22       ??1CMIMECode@@UAE@XZ       00422f22 f   MIMECode.obj
 0001:00021f64       ??0CMIMETypeManager@CMIMEMessage@@QAE@XZ 00422f64 f   MIMEMessage.obj
 0001:00021faf       ?Unlock@CSyncObject@@UAEHJPAJ@Z 00422faf f i MIMEMessage.obj
 0001:00021fb5       ??_ECCriticalSection@@UAEPAXI@Z 00422fb5 f i MIMEMessage.obj
 0001:00021fb5       ??_GCCriticalSection@@UAEPAXI@Z 00422fb5 f i MIMEMessage.obj
 0001:00021fd1       ??1CCriticalSection@@UAE@XZ 00422fd1 f i MIMEMessage.obj
 0001:00021fd1       ??1NamingRule@@QAE@XZ      00422fd1 f i MIMEMessage.obj
 0001:00021fed       ?Lock@CCriticalSection@@UAEHK@Z 00422fed f i MIMEMessage.obj
 0001:00021ffd       ?Unlock@CCriticalSection@@UAEHXZ 00422ffd f i MIMEMessage.obj
 0001:0002200b       ??_ECMIMETypeManager@CMIMEMessage@@UAEPAXI@Z 0042300b f i MIMEMessage.obj
 0001:0002200b       ??_GCMIMETypeManager@CMIMEMessage@@UAEPAXI@Z 0042300b f i MIMEMessage.obj
 0001:00022027       ??1CMIMETypeManager@CMIMEMessage@@UAE@XZ 00423027 f   MIMEMessage.obj
 0001:000220b4       ??1?$CList@PAVCMIMEContentAgent@@PAV1@@@UAE@XZ 004230b4 f i MIMEMessage.obj
 0001:000220e7       ?Serialize@?$CList@PAVCMIMEContentAgent@@PAV1@@@UAEXAAVCArchive@@@Z 004230e7 f i MIMEMessage.obj
 0001:000220e7       ?Serialize@?$CList@PAVSECBmpMenuItemInfo@@PAV1@@@UAEXAAVCArchive@@@Z 004230e7 f i MIMEMessage.obj
 0001:0002214d       ??_E?$CList@PAVCMIMEContentAgent@@PAV1@@@UAEPAXI@Z 0042314d f i MIMEMessage.obj
 0001:0002214d       ??_G?$CList@PAVCMIMEContentAgent@@PAV1@@@UAEPAXI@Z 0042314d f i MIMEMessage.obj
 0001:00022169       ?EncodeBody@CRFC1468@@QAE?AVCString@@PBD@Z 00423169 f   rfc1468.obj
 0001:000221c3       ?EncodeSubject@CRFC1468@@QAE?AVCString@@PBD@Z 004231c3 f   rfc1468.obj
 0001:0002238f       ?_copyjis@CRFC1468@@CA?AVCString@@AAPBDIAAI@Z 0042338f f   rfc1468.obj
 0001:0002240d       ?_addjis@CRFC1468@@CA?AVCString@@PBDAAI@Z 0042340d f   rfc1468.obj
 0001:00022433       ?subjis@CRFC1468@@CAHAAVCString@@I0@Z 00423433 f   rfc1468.obj
 0001:0002266a       ?convertEncoding@CRFC1468@@CAHPBDAAVCString@@@Z 0042366a f   rfc1468.obj
 0001:000227a6       ??0CSMTP@@QAE@PBDI@Z       004237a6 f   SMTP.obj
 0001:00022825       ??_GCSMTP@@UAEPAXI@Z       00423825 f i SMTP.obj
 0001:00022825       ??_ECSMTP@@UAEPAXI@Z       00423825 f i SMTP.obj
 0001:00022841       ??1CSMTP@@UAE@XZ           00423841 f   SMTP.obj
 0001:00022895       ?GetServerHostName@CSMTP@@QAE?AVCString@@XZ 00423895 f   SMTP.obj
 0001:000228b0       ?Connect@CSMTP@@QAEHXZ     004238b0 f   SMTP.obj
 0001:00022a53       ?Disconnect@CSMTP@@QAEHXZ  00423a53 f   SMTP.obj
 0001:00022ad9       ?GetLastError@CSMTP@@QAE?AVCString@@XZ 00423ad9 f   SMTP.obj
 0001:00022af4       ?SendMessageA@CSMTP@@QAEHPAVCMailMessage@@@Z 00423af4 f   SMTP.obj
 0001:00022b32       ?FormatMailMessage@CSMTP@@UAEHPAVCMailMessage@@@Z 00423b32 f   SMTP.obj
 0001:00022b65       ?cook_body@CSMTP@@AAE?AVCString@@PAVCMailMessage@@@Z 00423b65 f   SMTP.obj
 0001:00022ce9       ?transmit_message@CSMTP@@MAEHPAVCMailMessage@@@Z 00423ce9 f   SMTP.obj
 0001:00022f8d       ?get_response@CSMTP@@AAEHI@Z 00423f8d f   SMTP.obj
 0001:00023055       ??0HttpPost@@QAE@XZ        00424055 f   HttpPost.obj
 0001:0002309b       ??_EHttpPost@@UAEPAXI@Z    0042409b f i HttpPost.obj
 0001:0002309b       ??_GHttpPost@@UAEPAXI@Z    0042409b f i HttpPost.obj
 0001:000230b7       ??1HttpPost@@UAE@XZ        004240b7 f   HttpPost.obj
 0001:000230dd       ?GetHeader@HttpPost@@QBE?AVCString@@XZ 004240dd f   HttpPost.obj
 0001:000230f4       ?GetData@HttpPost@@QBEPAXXZ 004240f4 f   HttpPost.obj
 0001:000230f8       ?GetDataLength@HttpPost@@QBEHXZ 004240f8 f   HttpPost.obj
 0001:000230fc       ?Commit@HttpPost@@QAEXXZ   004240fc f   HttpPost.obj
 0001:00023157       ?AddFormData@HttpPost@@QAEXPBD0@Z 00424157 f   HttpPost.obj
 0001:000231bd       ?AddFormFile@HttpPost@@QAEXPBD000@Z 004241bd f   HttpPost.obj
 0001:000232b8       ?AddBoundary@HttpPost@@AAEXXZ 004242b8 f   HttpPost.obj
 0001:0002332a       ?GetHeaderHelper@HttpPost@@EBE?AVCString@@XZ 0042432a f   HttpPost.obj
 0001:00023379       ?GetBoundaryHelper@HttpPost@@EBE?AVCString@@XZ 00424379 f   HttpPost.obj
 0001:00023395       ??1?$CArray@EE@@UAE@XZ     00424395 f i HttpPost.obj
 0001:000233b4       ?Serialize@?$CArray@EAAE@@UAEXAAVCArchive@@@Z 004243b4 f i HttpPost.obj
 0001:000233b4       ?Serialize@?$CArray@EE@@UAEXAAVCArchive@@@Z 004243b4 f i HttpPost.obj
 0001:00023407       ??_E?$CArray@EE@@UAEPAXI@Z 00424407 f i HttpPost.obj
 0001:00023407       ??_G?$CArray@EE@@UAEPAXI@Z 00424407 f i HttpPost.obj
 0001:00023423       ?GetAcceleratorTableSize@@YAHPAUHACCEL__@@@Z 00424423 f   Accel.obj
 0001:00023432       ??0Accel@@QAE@XZ           00424432 f   Accel.obj
 0001:00023438       ??1Accel@@QAE@XZ           00424438 f   Accel.obj
 0001:0002343d       ?Attach@Accel@@QAEHPAUHACCEL__@@@Z 0042443d f   Accel.obj
 0001:0002344f       ?DeleteAccel@Accel@@QAEHXZ 0042444f f   Accel.obj
 0001:00023461       ??0MultiAccel@@QAE@XZ      00424461 f   Accel.obj
 0001:00023485       ?SetAccel@MultiAccel@@QAEXHPAUHACCEL__@@@Z 00424485 f   Accel.obj
 0001:000234dc       ?GetMergedAccel@MultiAccel@@QAEPAUHACCEL__@@XZ 004244dc f   Accel.obj
 0001:000234f7       ?CreateAccel@MultiAccel@@AAEXXZ 004244f7 f   Accel.obj
 0001:000235ad       ??0AccelOwner@@QAE@XZ      004245ad f   Accel.obj
 0001:000235ba       ??_EAccelOwner@@UAEPAXI@Z  004245ba f i Accel.obj
 0001:000235ba       ??_GAccelOwner@@UAEPAXI@Z  004245ba f i Accel.obj
 0001:000235d6       ??1AccelOwner@@UAE@XZ      004245d6 f   Accel.obj
 0001:000235dd       ?SetAccelerators@AccelOwner@@QAEXI@Z 004245dd f   Accel.obj
 0001:00023601       ?SetAccelerators@AccelOwner@@QAEXPAUHACCEL__@@@Z 00424601 f   Accel.obj
 0001:00023601       ?SetObject@COLMObjectPtr@@IAEXPAVCOLMObject@@@Z 00424601 f   Accel.obj
 0001:00023601       ?SetPlayFrame@Player@@QAEXH@Z 00424601 f   Accel.obj
 0001:00023601       ?Attach@GlobalAllocator@@QAEXPAX@Z 00424601 f   Accel.obj
 0001:00023601       ?SetLastError@CInfoZip@@AAEXI@Z 00424601 f   Accel.obj
 0001:0002360b       ?SetSize@?$CArray@PAUHACCEL__@@AAPAU1@@@QAEXHH@Z 0042460b f i Accel.obj
 0001:00023718       ?Serialize@?$CArray@PAUHACCEL__@@AAPAU1@@@UAEXAAVCArchive@@@Z 00424718 f i Accel.obj
 0001:00023757       ??_E?$CArray@PAUHACCEL__@@AAPAU1@@@UAEPAXI@Z 00424757 f i Accel.obj
 0001:00023757       ??_G?$CArray@PAUHACCEL__@@AAPAU1@@@UAEPAXI@Z 00424757 f i Accel.obj
 0001:00023773       ??1?$CArray@PAUHACCEL__@@AAPAU1@@@UAE@XZ 00424773 f i Accel.obj
 0001:00023792       ??1?$CArray@UtagACCEL@@AAU1@@@UAE@XZ 00424792 f i Accel.obj
 0001:000237b1       ?Serialize@?$CArray@UtagACCEL@@AAU1@@@UAEXAAVCArchive@@@Z 004247b1 f i Accel.obj
 0001:000237f0       ??_E?$CArray@UtagACCEL@@AAU1@@@UAEPAXI@Z 004247f0 f i Accel.obj
 0001:000237f0       ??_G?$CArray@UtagACCEL@@AAU1@@@UAEPAXI@Z 004247f0 f i Accel.obj
 0001:0002380c       ?SetSize@?$CArray@UtagACCEL@@AAU1@@@QAEXHH@Z 0042480c f i Accel.obj
 0001:00023926       ?SerializeElements@@YGXAAVCArchive@@PAUtagACCEL@@H@Z 00424926 f i Accel.obj
 0001:00023afe       ?GetExceptionCodeName@@YAPBDK@Z 00424afe f   AppBugDump.obj
 0001:00023b1c       ??0AppBugDump@@QAE@PAU_EXCEPTION_POINTERS@@@Z 00424b1c f   AppBugDump.obj
 0001:00023bc1       ?DumpExceptionRecord@AppBugDump@@AAEXPAU_EXCEPTION_RECORD@@@Z 00424bc1 f   AppBugDump.obj
 0001:00023c4a       ?DumpAppVer@AppBugDump@@AAEXXZ 00424c4a f   AppBugDump.obj
 0001:00023cca       ?DumpDate@AppBugDump@@AAEXXZ 00424cca f   AppBugDump.obj
 0001:00023d4a       ?DumpContext@AppBugDump@@AAEXPAU_CONTEXT@@@Z 00424d4a f   AppBugDump.obj
 0001:00023d93       ?DumpRegister@AppBugDump@@AAEXPAU_CONTEXT@@@Z 00424d93 f   AppBugDump.obj
 0001:00023e79       ?DumpStackDump@AppBugDump@@AAEXPAU_CONTEXT@@@Z 00424e79 f   AppBugDump.obj
 0001:00023f05       ?DumpStackWalk@AppBugDump@@AAEXPAU_CONTEXT@@@Z 00424f05 f   AppBugDump.obj
 0001:00023fb6       ?DumpStackAddressed@AppBugDump@@AAEXPAXAAVCDWordArray@@@Z 00424fb6 f   AppBugDump.obj
 0001:0002404a       ?DumpFramePtr@AppBugDump@@AAEXPAU_CONTEXT@@@Z 0042504a f   AppBugDump.obj
 0001:000240e7       ?Dump@AppBugDump@@AAEXPBD@Z 004250e7 f   AppBugDump.obj
 0001:000240f6       ?DumpLn@AppBugDump@@AAEXPBD@Z 004250f6 f   AppBugDump.obj
 0001:0002410d       ?DumpEol@AppBugDump@@AAEXXZ 0042510d f   AppBugDump.obj
 0001:00024119       ?DumpHeader@AppBugDump@@AAEXPBD@Z 00425119 f   AppBugDump.obj
 0001:00024158       ?DumpAppFiles@AppBugDump@@AAEXXZ 00425158 f   AppBugDump.obj
 0001:000241a2       ?DumpAppFilesHelper@AppBugDump@@AAEXHPBD@Z 004251a2 f   AppBugDump.obj
 0001:0002456d       ?InitStackFrameStruct@@YAKAAU_tagSTACKFRAME@@PBU_CONTEXT@@@Z 0042556d f   AppBugDump.obj
 0001:000245b0       ?StackWalkThrough@@YAXKPAXAAU_tagSTACKFRAME@@PAU_CONTEXT@@AAVCDWordArray@@@Z 004255b0 f   AppBugDump.obj
 0001:000246a8       ?PolyBeizer@@YAXPAVCDC@@ABV?$CArray@UtagPOINT@@AAU1@@@@Z 004256a8 f   Bezier.obj
 0001:000246c0       ?PolyBezier@@YAXPAVCDC@@ABV?$CArray@V?$CArray@UtagPOINT@@AAU1@@@AAV1@@@@Z 004256c0 f   Bezier.obj
 0001:000246ed       ?CreatePathFromCBezier@@YAHPAVCDC@@ABV?$CArray@V?$CArray@UtagPOINT@@AAU1@@@AAV1@@@@Z 004256ed f   Bezier.obj
 0001:0002471e       ?CreateRgnFromBezier@@YAHABV?$CArray@V?$CArray@UtagPOINT@@AAU1@@@AAV1@@@AAVCRgn@@@Z 0042571e f   Bezier.obj
 0001:000247c5       ?PtInBezier@@YAHABV?$CArray@V?$CArray@UtagPOINT@@AAU1@@@AAV1@@@UtagPOINT@@@Z 004257c5 f   Bezier.obj
 0001:00024847       ?RectInBezier@@YAHABV?$CArray@V?$CArray@UtagPOINT@@AAU1@@@AAV1@@@PBUtagRECT@@@Z 00425847 f   Bezier.obj
 0001:000248b8       ?MatrixByPoints@@YAXNNNNNNPAUtagPOINT@@H@Z 004258b8 f   Bezier.obj
 0001:0002491b       ?MatrixByCBezier@@YAXNNNNNNAAV?$CArray@V?$CArray@UtagPOINT@@AAU1@@@AAV1@@@@Z 0042591b f   Bezier.obj
 0001:0002497d       ??_ECRgn@@UAEPAXI@Z        0042597d f i Bezier.obj
 0001:0002497d       ??_GCRgn@@UAEPAXI@Z        0042597d f i Bezier.obj
 0001:00024999       ??1CRgn@@UAE@XZ            00425999 f i Bezier.obj
 0001:000249cc       ??0ChildDataExchange@@QAE@PAVCWnd@@PAVCDataExchange@@@Z 004259cc f   ChildDataExchange.obj
 0001:000249e9       ??1ChildDataExchange@@QAE@XZ 004259e9 f   ChildDataExchange.obj
 0001:000249f2       ??0CCmdExec@@QAE@XZ        004259f2 f   CmdExec.obj
 0001:00024a0f       ??0DOS_EXEC_PARAM@@QAE@XZ  00425a0f f i CmdExec.obj
 0001:00024a4d       ??_ECCmdExec@@UAEPAXI@Z    00425a4d f i CmdExec.obj
 0001:00024a4d       ??_GCCmdExec@@UAEPAXI@Z    00425a4d f i CmdExec.obj
 0001:00024a69       ??1CCmdExec@@UAE@XZ        00425a69 f   CmdExec.obj
 0001:00024aa6       ?Start@CCmdExec@@QAEHPBUDOS_EXEC_PARAM@@@Z 00425aa6 f   CmdExec.obj
 0001:00024aef       ??4DOS_EXEC_PARAM@@QAEAAU0@ABU0@@Z 00425aef f i CmdExec.obj
 0001:00024b20       ?ExecChildProcess@CCmdExec@@AAEHXZ 00425b20 f   CmdExec.obj
 0001:00024d66       ?ThreadExecDocsProc@CCmdExec@@CAIPAX@Z 00425d66 f   CmdExec.obj
 0001:00024d6f       ?ThreadExecDos@CCmdExec@@AAEIXZ 00425d6f f   CmdExec.obj
 0001:00024d90       ?ValidateEol@CCmdExec@@AAE?AVCString@@PBD@Z 00425d90 f   CmdExec.obj
 0001:00024e5e       ?Output@CCmdExec@@AAEXPBD@Z 00425e5e f   CmdExec.obj
 0001:00024ea6       ?NotifyTerm@CCmdExec@@AAEXH@Z 00425ea6 f   CmdExec.obj
 0001:00024eb9       ??0CursorCapture@@QAE@PAUHWND__@@@Z 00425eb9 f   CursorCapture.obj
 0001:00024ed8       ??1CursorCapture@@QAE@XZ   00425ed8 f   CursorCapture.obj
 0001:00024eed       ?SetCapture@CursorCapture@@QAEXPAUHWND__@@@Z 00425eed f   CursorCapture.obj
 0001:00024f15       ?ReleaseCapture@CursorCapture@@QAEXXZ 00425f15 f   CursorCapture.obj
 0001:00024f48       ??0CursorClipper@@QAE@PBUtagRECT@@@Z 00425f48 f   CursorCapture.obj
 0001:00024f62       ??1CursorClipper@@QAE@XZ   00425f62 f   CursorCapture.obj
 0001:00024f6a       ?DDV_FilePath@DDXUtility@@SAXPAVCDataExchange@@AAVCString@@II@Z 00425f6a f   DDXUtility.obj
 0001:00024fa5       ?DDV_UTF8TextLength@DDXUtility@@SAXPAVCDataExchange@@AAVCString@@HHII@Z 00425fa5 f   DDXUtility.obj
 0001:00025004       ?DDV_TextLength@DDXUtility@@SAXPAVCDataExchange@@AAVCString@@HHII@Z 00426004 f   DDXUtility.obj
 0001:00025075       ?DDV_Email@DDXUtility@@SAXPAVCDataExchange@@AAVCString@@HII@Z 00426075 f   DDXUtility.obj
 0001:000250ae       ?DDV_Emails@DDXUtility@@SAXPAVCDataExchange@@AAVCString@@HII@Z 004260ae f   DDXUtility.obj
 0001:000251b0       ?IsValidHostChar@@YAHD@Z   004261b0 f   DDXUtility.obj
 0001:000251d2       ?DDV_Host@DDXUtility@@SAXPAVCDataExchange@@AAVCString@@HII@Z 004261d2 f   DDXUtility.obj
 0001:00025236       ?DDX_TextByPercent@DDXUtility@@SAXPAVCDataExchange@@HAAN@Z 00426236 f   DDXUtility.obj
 0001:000252de       ?DDV_MinMaxPercent@DDXUtility@@SAXPAVCDataExchange@@NNNII@Z 004262de f   DDXUtility.obj
 0001:00025358       ?UpdateDataEx@DDXUtility@@SAHPAVCWnd@@H@Z 00426358 f   DDXUtility.obj
 0001:000253e4       ?DDX_CBValue@DDXUtility@@SAXPAVCDataExchange@@AAVCComboBox@@AAVCString@@ABV?$list@VCString@@V?$allocator@VCString@@@std@@@std@@3@Z 004263e4 f   DDXUtility.obj
 0001:000254d6       ?Fail@DDXUtility@@CAXPAVCDataExchange@@II@Z 004264d6 f   DDXUtility.obj
 0001:000254fc       ?MessageBoxA@DDXUtility@@CAXPAVCDataExchange@@I@Z 004264fc f   DDXUtility.obj
 0001:00025513       ?MessageBoxA@DDXUtility@@CAXPAVCDataExchange@@PBD@Z 00426513 f   DDXUtility.obj
 0001:0002552a       ?ActivateCtrl@DDXUtility@@CAXPAVCDataExchange@@I@Z 0042652a f   DDXUtility.obj
 0001:0002554b       ?SimpleFloatParse@@YAHPBDAAN@Z 0042654b f   DDXUtility.obj
 0001:000255ab       ?IsValidEmail@@YAHPBD@Z    004265ab f   DDXUtility.obj
 0001:000255d3       ?_Advance@std@@YAXAAVconst_iterator@?$list@VCString@@V?$allocator@VCString@@@std@@@1@HUbidirectional_iterator_tag@1@@Z 004265d3 f i DDXUtility.obj
 0001:0002563f       ??0DocumentNotifier@@IAE@XZ 0042663f f   DocumentEvent.obj
 0001:00025668       ?GetNotifier@DocumentNotifier@@SAPAV1@XZ 00426668 f   DocumentEvent.obj
 0001:000256d2       ?AddListener@DocumentNotifier@@QAEXPAVDocumentListener@@@Z 004266d2 f   DocumentEvent.obj
 0001:00025705       ?RemoveListener@DocumentNotifier@@QAEXPAVDocumentListener@@@Z 00426705 f   DocumentEvent.obj
 0001:0002573b       ?ForceActivateDocument@DocumentNotifier@@QAEXPAVCDocument@@@Z 0042673b f   DocumentEvent.obj
 0001:00025775       ?ActivateDocument@DocumentNotifier@@QAEXPAVCDocument@@@Z 00426775 f   DocumentEvent.obj
 0001:00025786       ?UpdateDocument@DocumentNotifier@@QAEXPAVCDocument@@JPAVCObject@@@Z 00426786 f   DocumentEvent.obj
 0001:000257bc       ?Notify@DocumentNotifier@@QAEXKPAVCDocument@@JPAX@Z 004267bc f   DocumentEvent.obj
 0001:000257f6       ?NotifyDocumentExpired@DocumentNotifier@@QAEXPAVCDocument@@@Z 004267f6 f   DocumentEvent.obj
 0001:00025811       ??4?$auto_ptr@VDocumentNotifier@@@std@@QAEAAV01@ABV01@@Z 00426811 f i DocumentEvent.obj
 0001:0002585c       ??1?$auto_ptr@VDocumentNotifier@@@std@@QAE@XZ 0042685c f i DocumentEvent.obj
 0001:00025879       ??1DocumentNotifier@@QAE@XZ 00426879 f i DocumentEvent.obj
 0001:00025881       ?GetCurrentDirectoryA@@YA?AVCString@@XZ 00426881 f   FileUtility.obj
 0001:00025924       ?GetAppExePath@@YA?AVCString@@XZ 00426924 f   FileUtility.obj
 0001:000259ac       ?GetAppRootPath@@YA?AVCString@@XZ 004269ac f   FileUtility.obj
 0001:000259f8       ?GetAppFilePath@@YA?AVCString@@PBD@Z 004269f8 f   FileUtility.obj
 0001:00025a48       ?CatPath@@YA?AVCString@@PBD0@Z 00426a48 f   FileUtility.obj
 0001:00025adf       ?GetFileParent@@YA?AVCString@@PBD@Z 00426adf f   FileUtility.obj
 0001:00025bee       ?GetFileLength@@YAIPBD@Z   00426bee f   FileUtility.obj
 0001:00025c4f       ?GetTempPathA@@YA?AVCString@@XZ 00426c4f f   FileUtility.obj
 0001:00025cd5       ?CreateTempFile@@YA?AVCString@@PBD@Z 00426cd5 f   FileUtility.obj
 0001:00025d9d       ?CreateTempDirectory@@YA?AVCString@@PBD@Z 00426d9d f   FileUtility.obj
 0001:00025e4e       ?WriteFile@@YAXPBD0@Z      00426e4e f   FileUtility.obj
 0001:00025ec1       ?ReadFile@@YA?AVCString@@PBD@Z 00426ec1 f   FileUtility.obj
 0001:00025f92       ?GetFileVersion@@YAHPBDAAI1@Z 00426f92 f   FileUtility.obj
 0001:0002600f       ?GetFileVersion@@YA?AVCString@@PBD@Z 0042700f f   FileUtility.obj
 0001:0002609e       ?GetFileVersion@@YAHPBDAAH111@Z 0042709e f   FileUtility.obj
 0001:000260fa       ?ExistsDirectory@@YAHPBD@Z 004270fa f   FileUtility.obj
 0001:00026116       ?ExistsPath@@YAHPBD@Z      00427116 f   FileUtility.obj
 0001:00026134       ?OpenURL@@YAHPBD@Z         00427134 f   FileUtility.obj
 0001:00026151       ?GetFileName@@YA?AVCString@@PBD@Z 00427151 f   FileUtility.obj
 0001:000261d9       ?GetFileStripedName@@YA?AVCString@@PBD@Z 004271d9 f   FileUtility.obj
 0001:0002625d       ??0HtmlHelper@@QAE@XZ      0042725d f   HtmlHelper.obj
 0001:0002629f       ??1HtmlHelper@@QAE@XZ      0042729f f   HtmlHelper.obj
 0001:000262e7       ?Initialize@HtmlHelper@@QAEXPAUHWND__@@PBD1@Z 004272e7 f   HtmlHelper.obj
 0001:0002632c       ?Uninitialize@HtmlHelper@@QAEXXZ 0042732c f   HtmlHelper.obj
 0001:0002634f       ?CloseAll@HtmlHelper@@QAEXXZ 0042734f f   HtmlHelper.obj
 0001:0002637d       ?DisplayToc@HtmlHelper@@QAEXPBD@Z 0042737d f   HtmlHelper.obj
 0001:000263f6       ?LBitmap_Resize@@YAHABVLBitmapBase@@AAV1@HH@Z 004273f6 f   LeadToolUtility.obj
 0001:00026460       ?LBitmap_Copy@@YAHABVLBitmapBase@@AAV1@@Z 00427460 f   LeadToolUtility.obj
 0001:00026477       ?LBitmap_GetWidth@@YAHABVLBitmapBase@@@Z 00427477 f   LeadToolUtility.obj
 0001:00026481       ?LBitmap_GetHeight@@YAHABVLBitmapBase@@@Z 00427481 f   LeadToolUtility.obj
 0001:0002648b       ?LPaintTransparent@@YAXPAUHDC__@@HHHHABVLBitmapBase@@HHHHHK@Z 0042748b f   LeadToolUtility.obj
 0001:00026587       ?TransparentStretchBitBlt@@YAXPAUHDC__@@HHHHPAUHBITMAP__@@HHHHK@Z 00427587 f   LeadToolUtility.obj
 0001:000268b6       ?TransparentStretchBitBlt@@YAXPAUHDC__@@HHHHPAUHBITMAP__@@HHHHHK@Z 004278b6 f   LeadToolUtility.obj
 0001:000269cc       ?GetWndDrawableRect@@YAXPAVCWnd@@AAVCRect@@@Z 004279cc f   MemDC.obj
 0001:00026a1a       ??0MemDC@@QAE@PAVCDC@@PBUtagRECT@@@Z 00427a1a f   MemDC.obj
 0001:00026aad       ??_GMemDC@@UAEPAXI@Z       00427aad f i MemDC.obj
 0001:00026aad       ??_EMemDC@@UAEPAXI@Z       00427aad f i MemDC.obj
 0001:00026ac9       ?CreateDDB@MemDC@@QAEXXZ   00427ac9 f   MemDC.obj
 0001:00026aff       ?Init@MemDC@@QAEXPAVCDC@@PBUtagRECT@@@Z 00427aff f   MemDC.obj
 0001:00026b9a       ?Flip@MemDC@@QAEXXZ        00427b9a f   MemDC.obj
 0001:00026c11       ??1MemDC@@UAE@XZ           00427c11 f   MemDC.obj
 0001:00026c72       ??0GlobalAllocator@@QAE@XZ 00427c72 f   MemoryUtility.obj
 0001:00026c7f       ??_EGlobalAllocator@@UAEPAXI@Z 00427c7f f i MemoryUtility.obj
 0001:00026c7f       ??_GGlobalAllocator@@UAEPAXI@Z 00427c7f f i MemoryUtility.obj
 0001:00026c9b       ??0GlobalAllocator@@QAE@KI@Z 00427c9b f   MemoryUtility.obj
 0001:00026cbb       ?CopyFrom@GlobalAllocator@@IAEXABV1@@Z 00427cbb f   MemoryUtility.obj
 0001:00026d60       ?Alloc@GlobalAllocator@@QAEXKI@Z 00427d60 f   MemoryUtility.obj
 0001:00026d87       ?Free@GlobalAllocator@@QAEXXZ 00427d87 f   MemoryUtility.obj
 0001:00026d98       ?Detach@GlobalAllocator@@QAEPAXXZ 00427d98 f   MemoryUtility.obj
 0001:00026da4       ?GetSize@GlobalAllocator@@QBEIXZ 00427da4 f   MemoryUtility.obj
 0001:00026dae       ??1GlobalAllocator@@UAE@XZ 00427dae f   MemoryUtility.obj
 0001:00026dc0       ??0GlobalAllocatorPtr@@QAE@PAX@Z 00427dc0 f   MemoryUtility.obj
 0001:00026de3       ??_GGlobalAllocatorPtr@@UAEPAXI@Z 00427de3 f i MemoryUtility.obj
 0001:00026de3       ??_EGlobalAllocatorPtr@@UAEPAXI@Z 00427de3 f i MemoryUtility.obj
 0001:00026dff       ??0GlobalAllocatorPtr@@QAE@AAVGlobalAllocator@@@Z 00427dff f   MemoryUtility.obj
 0001:00026e2a       ?Lock@GlobalAllocatorPtr@@QAEPAXPAX@Z 00427e2a f   MemoryUtility.obj
 0001:00026e4e       ?Unlock@GlobalAllocatorPtr@@QAEXXZ 00427e4e f   MemoryUtility.obj
 0001:00026e64       ??1GlobalAllocatorPtr@@UAE@XZ 00427e64 f   MemoryUtility.obj
 0001:00026e76       ?SplitName@@YA?AVCString@@PBD@Z 00427e76 f   NamingRule.obj
 0001:00026ef8       ??0NamingRule@@QAE@XZ      00427ef8 f   NamingRule.obj
 0001:00026f1d       ?GetNewIncNumber@NamingRule@@ABEJXZ 00427f1d f   NamingRule.obj
 0001:00026f49       ?NewIncNumName@NamingRule@@QBE?AVCString@@I@Z 00427f49 f   NamingRule.obj
 0001:00026fb0       ?DupIncNumName@NamingRule@@QBE?AVCString@@PBD@Z 00427fb0 f   NamingRule.obj
 0001:00027035       ??0PaintMemDC@@QAE@PAVCWnd@@@Z 00428035 f   PaintMemDC.obj
 0001:00027143       ??_EPaintMemDC@@UAEPAXI@Z  00428143 f i PaintMemDC.obj
 0001:00027143       ??_GPaintMemDC@@UAEPAXI@Z  00428143 f i PaintMemDC.obj
 0001:0002715f       ??1PaintMemDC@@UAE@XZ      0042815f f   PaintMemDC.obj
 0001:000271ee       ?Flip@PaintMemDC@@QAEXXZ   004281ee f   PaintMemDC.obj
 0001:00027258       ?SetViewportOrg@PaintMemDC@@UAEXVCPoint@@@Z 00428258 f   PaintMemDC.obj
 0001:0002726e       ?LoadSysColorBitmap@PxLib@@YAPAUHBITMAP__@@PBDH@Z 0042826e f   PxLib.obj
 0001:0002729c       ?LoadSysColorBitmap@PxLib@@YAPAUHBITMAP__@@IH@Z 0042829c f   PxLib.obj
 0001:000272ae       ?DrawEmbossed@PxLib@@YAXAAVCDC@@AAVCImageList@@HVCPoint@@H@Z 004282ae f   PxLib.obj
 0001:000274c2       ??0ReenterLock@@QAE@AAH@Z  004284c2 f   ReenterLock.obj
 0001:000274d1       ?InitReenterLock@ReenterLock@@SAXAAH@Z 004284d1 f   ReenterLock.obj
 0001:000274d9       ?Lock@ReenterLock@@QAEHXZ  004284d9 f   ReenterLock.obj
 0001:000274f2       ?Unlock@ReenterLock@@QAEXXZ 004284f2 f   ReenterLock.obj
 0001:000274fc       ??1ReenterLock@@QAE@XZ     004284fc f   ReenterLock.obj
 0001:00027508       ?QueryRegValue@@YA?AVCString@@PAUHKEY__@@PBD11@Z 00428508 f   RegUtility.obj
 0001:000275f5       ??1CRegKey@ATL@@QAE@XZ     004285f5 f i RegUtility.obj
 0001:0002760a       ??0ScrollControler@@QAE@PAVCWnd@@AAHIIPAVCScrollBar@@HH@Z 0042860a f   ScrollControler.obj
 0001:0002763c       ?Scroll@ScrollControler@@QAEXXZ 0042863c f   ScrollControler.obj
 0001:000276e3       ?LoadStringA@@YA?AVCString@@I@Z 004286e3 f   StringUtility.obj
 0001:00027738       ?FormatString@@YA?AVCString@@PBDZZ 00428738 f   StringUtility.obj
 0001:00027791       ?FormatString@@YA?AVCString@@IZZ 00428791 f   StringUtility.obj
 0001:0002780d       ?FormatError@@YA?AVCString@@K@Z 0042880d f   StringUtility.obj
 0001:0002787f       ?LoadStringResource@@YA?AVCString@@PBD0@Z 0042887f f   StringUtility.obj
 0001:000278a6       ?LoadStringResource@@YA?AVCString@@IPBD@Z 004288a6 f   StringUtility.obj
 0001:000278c6       ?LoadStringResource@@YA?AVCString@@PAUHINSTANCE__@@PBD1@Z 004288c6 f   StringUtility.obj
 0001:000278ec       ?LoadStringResourceEx@@YA?AVCString@@PAUHINSTANCE__@@PBD1G@Z 004288ec f   StringUtility.obj
 0001:00027936       ?Split@@YAXPBDDAAVCStringArray@@@Z 00428936 f   StringUtility.obj
 0001:000279e8       ?SetClipText@@YAXPBD@Z     004289e8 f   StringUtility.obj
 0001:00027bfa       ??0TrackerMsgPump@@QAE@XZ  00428bfa f   Tracker.obj
 0001:00027c07       ??_GTrackerMsgPump@@MAEPAXI@Z 00428c07 f i Tracker.obj
 0001:00027c07       ??_ETrackerMsgPump@@MAEPAXI@Z 00428c07 f i Tracker.obj
 0001:00027c23       ??1TrackerMsgPump@@MAE@XZ  00428c23 f   Tracker.obj
 0001:00027c2a       ?CancelLoop@TrackerMsgPump@@QAEXXZ 00428c2a f   Tracker.obj
 0001:00027c2a       ?ExitLoop@TrackerMsgPump@@QAEXXZ 00428c2a f   Tracker.obj
 0001:00027c33       ?OnLButtonUp@TrackerMsgPump@@MAEXXZ 00428c33 f   Tracker.obj
 0001:00027c33       ?OnRButtonDown@TrackerMsgPump@@MAEXXZ 00428c33 f   Tracker.obj
 0001:00027c38       ?OnKeyDown@TrackerMsgPump@@MAEXXZ 00428c38 f   Tracker.obj
 0001:00027c44       ?Track@TrackerMsgPump@@QAEHPAVCWnd@@@Z 00428c44 f   Tracker.obj
 0001:00027d55       ??0ShiftRectTracker@@IAE@P6AXHPAUtagRECT@@PBU1@@ZI@Z 00428d55 f   Tracker.obj
 0001:00027d86       ??1SECToolBarRectTracker@@UAE@XZ 00428d86 f i Tracker.obj
 0001:00027d86       ??1ResizeTracker@@UAE@XZ   00428d86 f i Tracker.obj
 0001:00027d86       ??1ShiftRectTracker@@UAE@XZ 00428d86 f i Tracker.obj
 0001:00027d8b       ?Track@ShiftRectTracker@@IAEHPAVCWnd@@VCPoint@@H@Z 00428d8b f   Tracker.obj
 0001:00027db3       ?IsShifted@ShiftRectTracker@@EBEHXZ 00428db3 f   Tracker.obj
 0001:00027dc1       ?AdjustRect@ShiftRectTracker@@EAEXHPAUtagRECT@@@Z 00428dc1 f   Tracker.obj
 0001:00027df4       ?DrawTrackerRect@ShiftRectTracker@@EAEXPBUtagRECT@@PAVCWnd@@PAVCDC@@1@Z 00428df4 f   Tracker.obj
 0001:00027eca       ?AdjustMove@@YAXAAUtagPOINT@@U1@@Z 00428eca f   Tracker.obj
 0001:00027f05       ?AdjustRectResize@@YAXHPAUtagRECT@@PBU1@@Z 00428f05 f   Tracker.obj
 0001:00027fb0       ??0ResizeTracker@@QAE@XZ   00428fb0 f   Tracker.obj
 0001:00027fcc       ??_GShiftRectTracker@@UAEPAXI@Z 00428fcc f i Tracker.obj
 0001:00027fcc       ??_GResizeTracker@@UAEPAXI@Z 00428fcc f i Tracker.obj
 0001:00027fcc       ??_EShiftRectTracker@@UAEPAXI@Z 00428fcc f i Tracker.obj
 0001:00027fcc       ??_ESECToolBarRectTracker@@UAEPAXI@Z 00428fcc f i Tracker.obj
 0001:00027fcc       ??_EResizeTracker@@UAEPAXI@Z 00428fcc f i Tracker.obj
 0001:00027fcc       ??_GSECToolBarRectTracker@@UAEPAXI@Z 00428fcc f i Tracker.obj
 0001:00027fe8       ?TrackResize@ResizeTracker@@QAEHPAVCWnd@@VCPoint@@@Z 00428fe8 f   Tracker.obj
 0001:0002801e       ??0MoveBezierTracker@@QAE@XZ 0042901e f   Tracker.obj
 0001:0002802b       ?GetMoveOffset@MoveBezierTracker@@QBE?AVCPoint@@XZ 0042902b f   Tracker.obj
 0001:0002803c       ?OnDocumentActivated@DialogBarDlg@@MAEXPAVCDocument@@@Z 0042903c f   Tracker.obj
 0001:0002803c       ?AppendListener@COLMReferer@@QAEXPAVCOLMRefererListener@@@Z 0042903c f   Tracker.obj
 0001:0002803c       ?SetTracker@MoveBezierTracker@@QAEXPAV?$CArray@V?$CArray@UtagPOINT@@AAU1@@@AAV1@@@@Z 0042903c f   Tracker.obj
 0001:00028046       ?TrackMove@MoveBezierTracker@@QAEHPAVCWnd@@VCPoint@@@Z 00429046 f   Tracker.obj
 0001:000280c4       ??1?$TTrackerMsgPump@VMoveBezierTracker@@UMoveBezierTrackerParam@1@@@UAE@XZ 004290c4 f i Tracker.obj
 0001:000280c9       ?DrawTracking@MoveBezierTracker@@QAEXPAVCDC@@@Z 004290c9 f   Tracker.obj
 0001:0002811c       ?OnMouseMove@MoveBezierTracker@@QAEXPAVTrackerMsgPump@@AAUMoveBezierTrackerParam@1@@Z 0042911c f   Tracker.obj
 0001:0002818b       ?OnMouseMove@?$TTrackerMsgPump@VMoveBezierTracker@@UMoveBezierTrackerParam@1@@@MAEXXZ 0042918b f i Tracker.obj
 0001:00028198       ?OnPostLoop@?$TTrackerMsgPump@VMoveBezierTracker@@UMoveBezierTrackerParam@1@@@MAEXXZ 00429198 f i Tracker.obj
 0001:00028198       ?OnPreLoop@?$TTrackerMsgPump@VMoveBezierTracker@@UMoveBezierTrackerParam@1@@@MAEXXZ 00429198 f i Tracker.obj
 0001:000281a4       ??_E?$TTrackerMsgPump@VMoveBezierTracker@@UMoveBezierTrackerParam@1@@@UAEPAXI@Z 004291a4 f i Tracker.obj
 0001:000281a4       ??_G?$TTrackerMsgPump@VMoveBezierTracker@@UMoveBezierTrackerParam@1@@@UAEPAXI@Z 004291a4 f i Tracker.obj
 0001:000281c0       ??_GCPen@@UAEPAXI@Z        004291c0 f i Tracker.obj
 0001:000281c0       ??_ECPen@@UAEPAXI@Z        004291c0 f i Tracker.obj
 0001:000281dc       ??_GCBrush@@UAEPAXI@Z      004291dc f i Tracker.obj
 0001:000281dc       ??_ECBrush@@UAEPAXI@Z      004291dc f i Tracker.obj
 0001:000281f8       ??_GCRectTracker@@UAEPAXI@Z 004291f8 f i Tracker.obj
 0001:000281f8       ??_ECRectTracker@@UAEPAXI@Z 004291f8 f i Tracker.obj
 0001:00028214       ?ConvertToUTF8@@YA?AVCString@@PBD@Z 00429214 f   Utf8.obj
 0001:00028325       ?CreateImageListColor32@@YAHAAVCImageList@@IHHK@Z 00429325 f   WndUtility.obj
 0001:000283e8       ?LoadWindowPlacement@@YAXPAVCWnd@@PBD1@Z 004293e8 f   WndUtility.obj
 0001:00028429       ?SaveWindowPlacement@@YAXPAVCWnd@@PBD1@Z 00429429 f   WndUtility.obj
 0001:0002844f       ?WindowPlacementToString@@YA?AVCString@@ABUtagWINDOWPLACEMENT@@@Z 0042944f f   WndUtility.obj
 0001:000284d0       ?StringToWindowPlacement@@YAHPBDAAUtagWINDOWPLACEMENT@@@Z 004294d0 f   WndUtility.obj
 0001:00028545       ?SetWindowPlacement@@YAXPAVCWnd@@ABUtagWINDOWPLACEMENT@@@Z 00429545 f   WndUtility.obj
 0001:00028553       ?GetWindowPlacement@@YAXPAVCWnd@@AAUtagWINDOWPLACEMENT@@@Z 00429553 f   WndUtility.obj
 0001:0002857d       ?LoadWindowPlacementFromReg@@YAHPBD0AAUtagWINDOWPLACEMENT@@@Z 0042957d f   WndUtility.obj
 0001:000285b9       ?SaveWindowPlacementToReg@@YAXPBD0ABUtagWINDOWPLACEMENT@@@Z 004295b9 f   WndUtility.obj
 0001:00028607       ?GetActiveView@@YAPAVCView@@XZ 00429607 f   WndUtility.obj
 0001:00028635       ?GetKeyStillDown@@YAHH@Z   00429635 f   WndUtility.obj
 0001:00028645       ?DrawTab@@YAXAAVCDC@@ABVCRect@@HPBDAAVCImageList@@HH@Z 00429645 f   WndUtility.obj
 0001:000286cb       ?DrawTabText@@YAXAAVCDC@@ABVCRect@@PBDHH@Z 004296cb f   WndUtility.obj
 0001:0002874d       ?DrawTabRect@@YAXAAVCDC@@ABVCRect@@H@Z 0042974d f   WndUtility.obj
 0001:0002899e       ?GetListCtrlCurSel@@YAHABVCListCtrl@@@Z 0042999e f   WndUtility.obj
 0001:000289c4       ?GetVirtualLMouseButton@@YAHXZ 004299c4 f   WndUtility.obj
 0001:000289d7       ?GetVirtualRMouseButton@@YAHXZ 004299d7 f   WndUtility.obj
 0001:000289e6       ?IsToStartDrag@@YAHPAVCWnd@@VCPoint@@H@Z 004299e6 f   WndUtility.obj
 0001:00028afd       ?NormalizeHit@@YAHABVCRect@@H@Z 00429afd f   WndUtility.obj
 0001:00028b3c       ?GetHandleRect@@YAXABVCRect@@HAAV1@HH@Z 00429b3c f   WndUtility.obj
 0001:00028bfa       ?GetMessageString@@YA?AVCString@@I@Z 00429bfa f   WndUtility.obj
 0001:00028c83       ?GetParentClientRect@@YAXABVCWnd@@AAVCRect@@@Z 00429c83 f   WndUtility.obj
 0001:00028cb5       ?GetWindowHeight@@YAHABVCWnd@@@Z 00429cb5 f   WndUtility.obj
 0001:00028cd3       ?GetWindowWidth@@YAHABVCWnd@@@Z 00429cd3 f   WndUtility.obj
 0001:00028cf1       ?GetChildWindowLeft@@YAHABVCWnd@@@Z 00429cf1 f   WndUtility.obj
 0001:00028d0a       ?GetChildWindowTop@@YAHABVCWnd@@@Z 00429d0a f   WndUtility.obj
 0001:00028d23       ?GetChildWindowBottom@@YAHABVCWnd@@@Z 00429d23 f   WndUtility.obj
 0001:00028d3c       ?MoveChildWindowToTop@@YAXAAVCWnd@@H@Z 00429d3c f   WndUtility.obj
 0001:00028d67       ?MoveChildWindowToBottom@@YAXAAVCWnd@@H@Z 00429d67 f   WndUtility.obj
 0001:00028da9       ?MoveChildWindowToRight@@YAXAAVCWnd@@H@Z 00429da9 f   WndUtility.obj
 0001:00028deb       ?MoveChildWindowToLeftNext@@YAXAAVCWnd@@ABV1@@Z 00429deb f   WndUtility.obj
 0001:00028e32       ?StretchChildWindowWidth@@YAXAAVCWnd@@H@Z 00429e32 f   WndUtility.obj
 0001:00028e61       ?StretchChildWindowHeight@@YAXAAVCWnd@@H@Z 00429e61 f   WndUtility.obj
 0001:00028e90       ?StretchChildWindowToBottom@@YAXAAVCWnd@@H@Z 00429e90 f   WndUtility.obj
 0001:00028eb6       ?StretchChildWindowToRight@@YAXAAVCWnd@@H@Z 00429eb6 f   WndUtility.obj
 0001:00028edc       ?MoveRectTo@@YAXAAVCRect@@HH@Z 00429edc f   WndUtility.obj
 0001:00028f13       ?TrackDlgBtnPopupMenu@@YAXPAVCDialog@@IIH@Z 00429f13 f   WndUtility.obj
 0001:00028f59       ?TrackNewPopupMenu@@YAXUtagPOINT@@PAVCWnd@@IH@Z 00429f59 f   WndUtility.obj
 0001:00028fdc       ?TrackNewPopupMenu@@YAXPAVCWnd@@IH@Z 00429fdc f   WndUtility.obj
 0001:00029004       ?EnableDescendantWindows@@YAXPAUHWND__@@H@Z 0042a004 f   WndUtility.obj
 0001:0002903f       ?EnableDescendantWindows@@YAXPAVCWnd@@H@Z 0042a03f f   WndUtility.obj
 0001:00029052       ?EnableDlgItem@@YAXPAVCWnd@@IH@Z 0042a052 f   WndUtility.obj
 0001:00029074       ??_GCMenu@@UAEPAXI@Z       0042a074 f i WndUtility.obj
 0001:00029074       ??_ECMenu@@UAEPAXI@Z       0042a074 f i WndUtility.obj
 0001:00029090       ??1CMenu@@UAE@XZ           0042a090 f i WndUtility.obj
 0001:000290c3       ?LoadMenuA@CMenu@@QAEHI@Z  0042a0c3 f i WndUtility.obj
 0001:000290e7       ?GetFirstSelectedItemPosition@CListCtrl@@QBEPAU__POSITION@@XZ 0042a0e7 f i WndUtility.obj
 0001:000290fb       ?GetNextSelectedItem@CListCtrl@@QBEHAAPAU__POSITION@@@Z 0042a0fb f i WndUtility.obj
 0001:0002911f       ??0AttachLayerCharCmd@@QAE@PAVLayer@@PAVChar@@@Z 0042a11f f   AttachLayerCharCmd.obj
 0001:00029169       ??_GAttachLayerCharCmd@@UAEPAXI@Z 0042a169 f i AttachLayerCharCmd.obj
 0001:00029169       ??_EAttachLayerCharCmd@@UAEPAXI@Z 0042a169 f i AttachLayerCharCmd.obj
 0001:00029169       ??_EMovLayerCmd@@UAEPAXI@Z 0042a169 f i AttachLayerCharCmd.obj
 0001:00029169       ??_GInsFramesCmd@@UAEPAXI@Z 0042a169 f i AttachLayerCharCmd.obj
 0001:00029169       ??_GMovLayerCmd@@UAEPAXI@Z 0042a169 f i AttachLayerCharCmd.obj
 0001:00029169       ??_EPictSetCenterCmd@@UAEPAXI@Z 0042a169 f i AttachLayerCharCmd.obj
 0001:00029169       ??_GPictSetCenterCmd@@UAEPAXI@Z 0042a169 f i AttachLayerCharCmd.obj
 0001:00029169       ??_EInsFramesCmd@@UAEPAXI@Z 0042a169 f i AttachLayerCharCmd.obj
 0001:00029185       ??1MovLayerCmd@@UAE@XZ     0042a185 f i AttachLayerCharCmd.obj
 0001:00029185       ??1InsFramesCmd@@UAE@XZ    0042a185 f i AttachLayerCharCmd.obj
 0001:00029185       ??1PictSetCenterCmd@@UAE@XZ 0042a185 f i AttachLayerCharCmd.obj
 0001:00029185       ??1AttachLayerCharCmd@@UAE@XZ 0042a185 f i AttachLayerCharCmd.obj
 0001:0002918a       ?Undo@AttachLayerCharCmd@@UAEXXZ 0042a18a f   AttachLayerCharCmd.obj
 0001:0002918a       ?Do@AttachLayerCharCmd@@UAEXXZ 0042a18a f   AttachLayerCharCmd.obj
 0001:00029196       ??0DelFramesCmd@@QAE@PAVLayer@@HH@Z 0042a196 f   DelFramesCmd.obj
 0001:000291e6       ??_GDelFramesCmd@@UAEPAXI@Z 0042a1e6 f i DelFramesCmd.obj
 0001:000291e6       ??_EDelFramesCmd@@UAEPAXI@Z 0042a1e6 f i DelFramesCmd.obj
 0001:00029202       ??1DelFramesCmd@@UAE@XZ    0042a202 f i DelFramesCmd.obj
 0001:00029237       ?Do@DelFramesCmd@@UAEXXZ   0042a237 f   DelFramesCmd.obj
 0001:0002926a       ?Undo@DelFramesCmd@@UAEXXZ 0042a26a f   DelFramesCmd.obj
 0001:0002929a       ??0DelKeyFrameLabelCmd@@QAE@PAVKeyFrame@@@Z 0042a29a f   DelKeyFrameLabelCmd.obj
 0001:000292fb       ??_EDelKeyFrameLabelCmd@@UAEPAXI@Z 0042a2fb f i DelKeyFrameLabelCmd.obj
 0001:000292fb       ??_GDelKeyFrameLabelCmd@@UAEPAXI@Z 0042a2fb f i DelKeyFrameLabelCmd.obj
 0001:00029317       ??1DelKeyFrameLabelCmd@@UAE@XZ 0042a317 f i DelKeyFrameLabelCmd.obj
 0001:00029383       ?Do@DelKeyFrameLabelCmd@@UAEXXZ 0042a383 f   DelKeyFrameLabelCmd.obj
 0001:000293d7       ??0DelLayerCmd@@QAE@PAVStage@@H@Z 0042a3d7 f   DelLayerCmd.obj
 0001:00029421       ??_EDelLayerCmd@@UAEPAXI@Z 0042a421 f i DelLayerCmd.obj
 0001:00029421       ??_GDelLayerCmd@@UAEPAXI@Z 0042a421 f i DelLayerCmd.obj
 0001:0002943d       ??1DelLayerCmd@@UAE@XZ     0042a43d f i DelLayerCmd.obj
 0001:00029472       ?Do@DelLayerCmd@@UAEXXZ    0042a472 f   DelLayerCmd.obj
 0001:000294be       ?Undo@DelLayerCmd@@UAEXXZ  0042a4be f   DelLayerCmd.obj
 0001:000294e0       ??0DelSubStageCmd@@QAE@PAVSubStages@@H@Z 0042a4e0 f   DelSubStageCmd.obj
 0001:0002952d       ??_GDelSubStageCmd@@UAEPAXI@Z 0042a52d f i DelSubStageCmd.obj
 0001:0002952d       ??_EDelSubStageCmd@@UAEPAXI@Z 0042a52d f i DelSubStageCmd.obj
 0001:00029549       ??1DelSubStageCmd@@UAE@XZ  0042a549 f i DelSubStageCmd.obj
 0001:0002957e       ?Undo@InsSubStageCmd@@UAEXXZ 0042a57e f   DelSubStageCmd.obj
 0001:0002957e       ?Do@DelSubStageCmd@@UAEXXZ 0042a57e f   DelSubStageCmd.obj
 0001:00029592       ??0InsFramesCmd@@QAE@PAVLayer@@HH@Z 0042a592 f   InsFramesCmd.obj
 0001:0002960e       ?Do@InsFramesCmd@@UAEXXZ   0042a60e f   InsFramesCmd.obj
 0001:0002963a       ?Undo@InsFramesCmd@@UAEXXZ 0042a63a f   InsFramesCmd.obj
 0001:0002966a       ??0InsKeyFrameCmd@@QAE@PAVLayer@@HPAVKeyFrame@@@Z 0042a66a f   InsKeyFrameCmd.obj
 0001:0002971e       ??_EInsKeyFrameCmd@@UAEPAXI@Z 0042a71e f i InsKeyFrameCmd.obj
 0001:0002971e       ??_GInsKeyFrameCmd@@UAEPAXI@Z 0042a71e f i InsKeyFrameCmd.obj
 0001:0002973a       ??1InsKeyFrameCmd@@UAE@XZ  0042a73a f i InsKeyFrameCmd.obj
 0001:0002976f       ?Do@InsKeyFrameCmd@@UAEXXZ 0042a76f f   InsKeyFrameCmd.obj
 0001:000297b5       ?Undo@InsKeyFrameCmd@@UAEXXZ 0042a7b5 f   InsKeyFrameCmd.obj
 0001:000297fc       ??0InsKeyFrameLabelCmd@@QAE@PAVKeyFrame@@PBVKeyFrameLabel@@@Z 0042a7fc f   InsKeyFrameLabelCmd.obj
 0001:0002986b       ??_GInsKeyFrameLabelCmd@@UAEPAXI@Z 0042a86b f i InsKeyFrameLabelCmd.obj
 0001:0002986b       ??_EInsKeyFrameLabelCmd@@UAEPAXI@Z 0042a86b f i InsKeyFrameLabelCmd.obj
 0001:00029887       ??1InsKeyFrameLabelCmd@@UAE@XZ 0042a887 f i InsKeyFrameLabelCmd.obj
 0001:000298f3       ??0InsLayerCmd@@QAE@PAVStage@@HPAVLayer@@@Z 0042a8f3 f   InsLayerCmd.obj
 0001:0002994f       ??_GInsLayerCmd@@UAEPAXI@Z 0042a94f f i InsLayerCmd.obj
 0001:0002994f       ??_EInsLayerCmd@@UAEPAXI@Z 0042a94f f i InsLayerCmd.obj
 0001:0002996b       ??1InsLayerCmd@@UAE@XZ     0042a96b f i InsLayerCmd.obj
 0001:000299a0       ?Do@InsLayerCmd@@UAEXXZ    0042a9a0 f   InsLayerCmd.obj
 0001:000299bc       ?Undo@InsLayerCmd@@UAEXXZ  0042a9bc f   InsLayerCmd.obj
 0001:000299da       ??0InsSubStageCmd@@QAE@PAVSubStages@@HPAVSubStage@@@Z 0042a9da f   InsSubStageCmd.obj
 0001:00029a45       ??_GInsSubStageCmd@@UAEPAXI@Z 0042aa45 f i InsSubStageCmd.obj
 0001:00029a45       ??_EInsSubStageCmd@@UAEPAXI@Z 0042aa45 f i InsSubStageCmd.obj
 0001:00029a61       ??1InsSubStageCmd@@UAE@XZ  0042aa61 f i InsSubStageCmd.obj
 0001:00029a96       ?Undo@DelSubStageCmd@@UAEXXZ 0042aa96 f   InsSubStageCmd.obj
 0001:00029a96       ?Do@InsSubStageCmd@@UAEXXZ 0042aa96 f   InsSubStageCmd.obj
 0001:00029aa8       ??0ModKeyFrameCmd@@QAE@PAVKeyFrame@@PBVKeyFrameState@@@Z 0042aaa8 f   ModKeyFrameCmd.obj
 0001:00029b1a       ??_EModKeyFrameCmd@@UAEPAXI@Z 0042ab1a f i ModKeyFrameCmd.obj
 0001:00029b1a       ??_GModKeyFrameCmd@@UAEPAXI@Z 0042ab1a f i ModKeyFrameCmd.obj
 0001:00029b36       ??1ModKeyFrameCmd@@UAE@XZ  0042ab36 f i ModKeyFrameCmd.obj
 0001:00029b49       ?Do@ModKeyFrameCmd@@UAEXXZ 0042ab49 f   ModKeyFrameCmd.obj
 0001:00029b56       ?Undo@ModKeyFrameCmd@@UAEXXZ 0042ab56 f   ModKeyFrameCmd.obj
 0001:00029b66       ??0ModKeyFrameLabelCmd@@QAE@PAVKeyFrame@@PBVKeyFrameLabel@@@Z 0042ab66 f   ModKeyFrameLabelCmd.obj
 0001:00029bd5       ??_EModKeyFrameLabelCmd@@UAEPAXI@Z 0042abd5 f i ModKeyFrameLabelCmd.obj
 0001:00029bd5       ??_GModKeyFrameLabelCmd@@UAEPAXI@Z 0042abd5 f i ModKeyFrameLabelCmd.obj
 0001:00029bf1       ??1ModKeyFrameLabelCmd@@UAE@XZ 0042abf1 f i ModKeyFrameLabelCmd.obj
 0001:00029c5d       ?Do@ModKeyFrameLabelCmd@@UAEXXZ 0042ac5d f   ModKeyFrameLabelCmd.obj
 0001:00029c5d       ?Do@InsKeyFrameLabelCmd@@UAEXXZ 0042ac5d f   ModKeyFrameLabelCmd.obj
 0001:00029c6a       ?Undo@InsKeyFrameLabelCmd@@UAEXXZ 0042ac6a f   ModKeyFrameLabelCmd.obj
 0001:00029c6a       ?Undo@DelKeyFrameLabelCmd@@UAEXXZ 0042ac6a f   ModKeyFrameLabelCmd.obj
 0001:00029c6a       ?Undo@ModKeyFrameLabelCmd@@UAEXXZ 0042ac6a f   ModKeyFrameLabelCmd.obj
 0001:00029c77       ??0MovLayerCmd@@QAE@PAVStage@@HH@Z 0042ac77 f   MovLayerCmd.obj
 0001:00029caf       ?Do@MovLayerCmd@@UAEXXZ    0042acaf f   MovLayerCmd.obj
 0001:00029ccb       ?Undo@MovLayerCmd@@UAEXXZ  0042accb f   MovLayerCmd.obj
 0001:00029ce7       ??0RenLayerCmd@@QAE@PAVLayer@@PBD@Z 0042ace7 f   RenLayerCmd.obj
 0001:00029d71       ??_ERenLayerCmd@@UAEPAXI@Z 0042ad71 f i RenLayerCmd.obj
 0001:00029d71       ??_GRenLayerCmd@@UAEPAXI@Z 0042ad71 f i RenLayerCmd.obj
 0001:00029d8d       ??1RenLayerCmd@@UAE@XZ     0042ad8d f i RenLayerCmd.obj
 0001:00029dd1       ?Do@RenLayerCmd@@UAEXXZ    0042add1 f   RenLayerCmd.obj
 0001:00029dde       ?Undo@RenLayerCmd@@UAEXXZ  0042adde f   RenLayerCmd.obj
 0001:00029deb       ??0RenSubStageCmd@@QAE@PAVSubStage@@PBD@Z 0042adeb f   RenSubStageCmd.obj
 0001:00029e43       ??_ERenSubStageCmd@@UAEPAXI@Z 0042ae43 f i RenSubStageCmd.obj
 0001:00029e43       ??_GRenSubStageCmd@@UAEPAXI@Z 0042ae43 f i RenSubStageCmd.obj
 0001:00029e5f       ??1RenSubStageCmd@@UAE@XZ  0042ae5f f i RenSubStageCmd.obj
 0001:00029ea3       ?Do@RenSubStageCmd@@UAEXXZ 0042aea3 f   RenSubStageCmd.obj
 0001:00029eaf       ?Undo@RenSubStageCmd@@UAEXXZ 0042aeaf f   RenSubStageCmd.obj
 0001:00029ebb       ??0DelCharCmd@@QAE@PAVCharList@@H@Z 0042aebb f   DelCharCmd.obj
 0001:00029f05       ??_GDelCharCmd@@UAEPAXI@Z  0042af05 f i DelCharCmd.obj
 0001:00029f05       ??_EDelCharCmd@@UAEPAXI@Z  0042af05 f i DelCharCmd.obj
 0001:00029f21       ??1DelCharCmd@@UAE@XZ      0042af21 f i DelCharCmd.obj
 0001:00029f56       ?Do@InsCharCmd@@UAEXXZ     0042af56 f   DelCharCmd.obj
 0001:00029f56       ?Do@DupCharCmd@@UAEXXZ     0042af56 f   DelCharCmd.obj
 0001:00029f56       ?Undo@DelCharCmd@@UAEXXZ   0042af56 f   DelCharCmd.obj
 0001:00029f6c       ??0DupCharCmd@@QAE@PAVCharList@@HPAVChar@@@Z 0042af6c f   DupCharCmd.obj
 0001:00029fc8       ??_GDupCharCmd@@UAEPAXI@Z  0042afc8 f i DupCharCmd.obj
 0001:00029fc8       ??_EDupCharCmd@@UAEPAXI@Z  0042afc8 f i DupCharCmd.obj
 0001:00029fe4       ??1DupCharCmd@@UAE@XZ      0042afe4 f i DupCharCmd.obj
 0001:0002a019       ?Do@DelCharCmd@@UAEXXZ     0042b019 f   DupCharCmd.obj
 0001:0002a019       ?Undo@InsCharCmd@@UAEXXZ   0042b019 f   DupCharCmd.obj
 0001:0002a019       ?Undo@DupCharCmd@@UAEXXZ   0042b019 f   DupCharCmd.obj
 0001:0002a031       ??0InsCharCmd@@QAE@PAVCharList@@HPAVChar@@@Z 0042b031 f   InsCharCmd.obj
 0001:0002a09a       ??_GInsCharCmd@@UAEPAXI@Z  0042b09a f i InsCharCmd.obj
 0001:0002a09a       ??_EInsCharCmd@@UAEPAXI@Z  0042b09a f i InsCharCmd.obj
 0001:0002a0b6       ??1InsCharCmd@@UAE@XZ      0042b0b6 f i InsCharCmd.obj
 0001:0002a0eb       ??0ModBtnCharCmd@@QAE@PAVBtnChar@@ABVBtnCharState@@ABVActionList@@@Z 0042b0eb f   ModBtnCharCmd.obj
 0001:0002a19a       ??_EModBtnCharCmd@@UAEPAXI@Z 0042b19a f i ModBtnCharCmd.obj
 0001:0002a19a       ??_GModBtnCharCmd@@UAEPAXI@Z 0042b19a f i ModBtnCharCmd.obj
 0001:0002a1b6       ??1ModBtnCharCmd@@UAE@XZ   0042b1b6 f i ModBtnCharCmd.obj
 0001:0002a21b       ?Do@ModBtnCharCmd@@UAEXXZ  0042b21b f   ModBtnCharCmd.obj
 0001:0002a244       ?Undo@ModBtnCharCmd@@UAEXXZ 0042b244 f   ModBtnCharCmd.obj
 0001:0002a26a       ??0ModSndCharCmd@@QAE@PAVSndChar@@PAX@Z 0042b26a f   ModSndCharCmd.obj
 0001:0002a2bb       ??_EModSndCharCmd@@UAEPAXI@Z 0042b2bb f i ModSndCharCmd.obj
 0001:0002a2bb       ??_GModSndCharCmd@@UAEPAXI@Z 0042b2bb f i ModSndCharCmd.obj
 0001:0002a2d7       ?DestroyHandle@@YAXPAX@Z   0042b2d7 f   ModSndCharCmd.obj
 0001:0002a2e9       ??1ModSndCharCmd@@UAE@XZ   0042b2e9 f   ModSndCharCmd.obj
 0001:0002a30f       ?Do@ModSndCharCmd@@UAEXXZ  0042b30f f   ModSndCharCmd.obj
 0001:0002a323       ?Undo@ModSndCharCmd@@UAEXXZ 0042b323 f   ModSndCharCmd.obj
 0001:0002a33a       ??0ModTextCharCmd@@QAE@PAVTextChar@@ABVTextCharState@@@Z 0042b33a f   ModTextCharCmd.obj
 0001:0002a39b       ??_GModTextCharCmd@@UAEPAXI@Z 0042b39b f i ModTextCharCmd.obj
 0001:0002a39b       ??_EModTextCharCmd@@UAEPAXI@Z 0042b39b f i ModTextCharCmd.obj
 0001:0002a3b7       ??0TextCharState@@QAE@ABV0@@Z 0042b3b7 f i ModTextCharCmd.obj
 0001:0002a402       ??1ModTextCharCmd@@UAE@XZ  0042b402 f i ModTextCharCmd.obj
 0001:0002a446       ?Do@ModTextCharCmd@@UAEXXZ 0042b446 f   ModTextCharCmd.obj
 0001:0002a453       ?Undo@ModTextCharCmd@@UAEXXZ 0042b453 f   ModTextCharCmd.obj
 0001:0002a5f3       ??0PictSetCenterCmd@@QAE@PAVPictChar@@VCPoint@@@Z 0042b5f3 f   PictCharCmd.obj
 0001:0002a64f       ?Do@PictSetCenterCmd@@UAEXXZ 0042b64f f   PictCharCmd.obj
 0001:0002a65e       ?Undo@PictSetCenterCmd@@UAEXXZ 0042b65e f   PictCharCmd.obj
 0001:0002a66d       ??0PictSetOptParamCmd@@QAE@PAVPictChar@@ABVPictQuantizeParam@@@Z 0042b66d f   PictCharCmd.obj
 0001:0002a6dc       ??_GPictSetOptParamCmd@@UAEPAXI@Z 0042b6dc f i PictCharCmd.obj
 0001:0002a6dc       ??_EPictSetOptParamCmd@@UAEPAXI@Z 0042b6dc f i PictCharCmd.obj
 0001:0002a6f8       ??1PictSetOptParamCmd@@UAE@XZ 0042b6f8 f i PictCharCmd.obj
 0001:0002a70b       ?Do@PictSetOptParamCmd@@UAEXXZ 0042b70b f   PictCharCmd.obj
 0001:0002a71b       ?Undo@PictSetOptParamCmd@@UAEXXZ 0042b71b f   PictCharCmd.obj
 0001:0002a728       ??0PictModDataCmd@@QAE@IPAVPictChar@@ABVPictData@@@Z 0042b728 f   PictCharCmd.obj
 0001:0002a7ad       ??_EPictModDataCmd@@UAEPAXI@Z 0042b7ad f i PictCharCmd.obj
 0001:0002a7ad       ??_GPictModDataCmd@@UAEPAXI@Z 0042b7ad f i PictCharCmd.obj
 0001:0002a7c9       ??1PictModDataCmd@@UAE@XZ  0042b7c9 f i PictCharCmd.obj
 0001:0002a83f       ?Do@PictModDataCmd@@UAEXXZ 0042b83f f   PictCharCmd.obj
 0001:0002a84c       ?Undo@PictModDataCmd@@UAEXXZ 0042b84c f   PictCharCmd.obj
 0001:0002a86e       ??0RenCharCmd@@QAE@PAVChar@@PBD@Z 0042b86e f   RenCharCmd.obj
 0001:0002a8f5       ??_GRenCharCmd@@UAEPAXI@Z  0042b8f5 f i RenCharCmd.obj
 0001:0002a8f5       ??_ERenCharCmd@@UAEPAXI@Z  0042b8f5 f i RenCharCmd.obj
 0001:0002a911       ??1RenCharCmd@@UAE@XZ      0042b911 f i RenCharCmd.obj
 0001:0002a955       ?Do@RenCharCmd@@UAEXXZ     0042b955 f   RenCharCmd.obj
 0001:0002a961       ?Undo@RenCharCmd@@UAEXXZ   0042b961 f   RenCharCmd.obj
 0001:0002a96d       ??0Cmd@@IAE@I@Z            0042b96d f   Cmd.obj
 0001:0002a9b5       ??_GCmd@@UAEPAXI@Z         0042b9b5 f i Cmd.obj
 0001:0002a9b5       ??_ECmd@@UAEPAXI@Z         0042b9b5 f i Cmd.obj
 0001:0002a9d1       ?GetName@Cmd@@QBE?AVCString@@XZ 0042b9d1 f   Cmd.obj
 0001:0002a9ec       ?IsPlaying@Player@@QBEHXZ  0042b9ec f   Cmd.obj
 0001:0002a9ec       ?GetBuildStep@Builder@@QBE?AW4BUILDSTEP@1@XZ 0042b9ec f   Cmd.obj
 0001:0002a9ec       ?GetIconIndex@Cmd@@QBEHXZ  0042b9ec f   Cmd.obj
 0001:0002a9ec       ?GetIcon@ViewSwitchInfo@@QBEIXZ 0042b9ec f   Cmd.obj
 0001:0002a9ec       ?GetCount@Act@@QBEHXZ      0042b9ec f   Cmd.obj
 0001:0002a9ec       ?GetProbability@RandomJumpCase@@QBEHXZ 0042b9ec f   Cmd.obj
 0001:0002a9f0       ??1Cmd@@UAE@XZ             0042b9f0 f   Cmd.obj
 0001:0002a9fe       ?SetCmdName@Cmd@@QAAXIZZ   0042b9fe f   Cmd.obj
 0001:0002aa60       ??0CmdHistory@@QAE@XZ      0042ba60 f   CmdHistory.obj
 0001:0002aa92       ?GetMaxUndoCmd@CmdHistory@@MBEHXZ 0042ba92 f i CmdHistory.obj
 0001:0002aa96       ?DoCmd@CmdHistory@@UAEXPAVCmd@@@Z 0042ba96 f   CmdHistory.obj
 0001:0002ab41       ?RedoCmd@CmdHistory@@UAEXXZ 0042bb41 f   CmdHistory.obj
 0001:0002ab58       ?UndoCmd@CmdHistory@@UAEXXZ 0042bb58 f   CmdHistory.obj
 0001:0002ab69       ?GetCmd@CmdHistory@@QBEPBVCmd@@H@Z 0042bb69 f   CmdHistory.obj
 0001:0002ab91       ?GetCurCmdPos@CmdHistory@@QBEHXZ 0042bb91 f   CmdHistory.obj
 0001:0002aba8       ?Jump2Cmd@CmdHistory@@QAEXH@Z 0042bba8 f   CmdHistory.obj
 0001:0002abd5       ?ClearCmdHistory@CmdHistory@@UAEXXZ 0042bbd5 f   CmdHistory.obj
 0001:0002abea       ?CanRedoCmd@CmdHistory@@IBEHXZ 0042bbea f   CmdHistory.obj
 0001:0002abf7       ?CanUndoCmd@CmdHistory@@IBEHXZ 0042bbf7 f   CmdHistory.obj
 0001:0002ac06       ?erase@?$list@V?$auto_ptr@VCmd@@@std@@V?$allocator@V?$auto_ptr@VCmd@@@std@@@2@@std@@QAE?AViterator@12@V312@@Z 0042bc06 f i CmdHistory.obj
 0001:0002ac3e       ?clear@?$list@V?$auto_ptr@VCmd@@@std@@V?$allocator@V?$auto_ptr@VCmd@@@std@@@2@@std@@QAEXXZ 0042bc3e f i CmdHistory.obj
 0001:0002ac65       ??1?$auto_ptr@VCmd@@@std@@QAE@XZ 0042bc65 f i CmdHistory.obj
 0001:0002ac79       ??0CmdSet@@QAE@I@Z         0042bc79 f   CmdSet.obj
 0001:0002acd0       ??_GCmdSet@@UAEPAXI@Z      0042bcd0 f i CmdSet.obj
 0001:0002acd0       ??_ECmdSet@@UAEPAXI@Z      0042bcd0 f i CmdSet.obj
 0001:0002acec       ??1CmdSet@@UAE@XZ          0042bcec f i CmdSet.obj
 0001:0002ad21       ?AddCommand@CmdSet@@UAEXPAVCmd@@@Z 0042bd21 f   CmdSet.obj
 0001:0002ad6d       ?Do@CmdSet@@UAEXXZ         0042bd6d f   CmdSet.obj
 0001:0002ad8f       ?Undo@CmdSet@@UAEXXZ       0042bd8f f   CmdSet.obj
 0001:0002adb6       ??1?$list@V?$auto_ptr@VCmd@@@std@@V?$allocator@V?$auto_ptr@VCmd@@@std@@@2@@std@@QAE@XZ 0042bdb6 f i CmdSet.obj
 0001:0002adee       ??0ModActionListCmd@@QAE@PAVActionList@@PBV1@@Z 0042bdee f   ModActionListCmd.obj
 0001:0002ae5c       ??_GModActionListCmd@@UAEPAXI@Z 0042be5c f i ModActionListCmd.obj
 0001:0002ae5c       ??_EModActionListCmd@@UAEPAXI@Z 0042be5c f i ModActionListCmd.obj
 0001:0002ae78       ??1ModActionListCmd@@UAE@XZ 0042be78 f i ModActionListCmd.obj
 0001:0002aebc       ?Do@ModActionListCmd@@EAEXXZ 0042bebc f   ModActionListCmd.obj
 0001:0002aec9       ?Undo@ModActionListCmd@@EAEXXZ 0042bec9 f   ModActionListCmd.obj
 0001:0002aed6       ?CreateObject@ActionDlg@@SGPAVCObject@@XZ 0042bed6 f   ActionDlg.obj
 0001:0002af08       ??0ActionDlg@@QAE@XZ       0042bf08 f   ActionDlg.obj
 0001:0002af22       ??_EActionDlg@@UAEPAXI@Z   0042bf22 f i ActionDlg.obj
 0001:0002af22       ??_GActionDlg@@UAEPAXI@Z   0042bf22 f i ActionDlg.obj
 0001:0002af3e       ??1ActionDlg@@UAE@XZ       0042bf3e f   ActionDlg.obj
 0001:0002af49       ?SetAction@ActionDlg@@UAEXPAVAppli@@PAVAction@@@Z 0042bf49 f   ActionDlg.obj
 0001:0002af5a       ?GetMessageMap@ActionListDlg@@MBEPBUAFX_MSGMAP@@XZ 0042bf5a f   ActionListDlg.obj
 0001:0002af60       ??0ActionListDlg@@QAE@XZ   0042bf60 f   ActionListDlg.obj
 0001:0002b00e       ??_GActionListDlg@@UAEPAXI@Z 0042c00e f i ActionListDlg.obj
 0001:0002b00e       ??_EActionListDlg@@UAEPAXI@Z 0042c00e f i ActionListDlg.obj
 0001:0002b02a       ??1ActionListDlg@@UAE@XZ   0042c02a f   ActionListDlg.obj
 0001:0002b0b3       ?GetEditActionList@ActionListDlg@@QBEABVActionList@@XZ 0042c0b3 f   ActionListDlg.obj
 0001:0002b0b7       ?Create@ActionListDlg@@UAEHPAVAppli@@PBVActionList@@PAVCWnd@@PBUtagRECT@@@Z 0042c0b7 f   ActionListDlg.obj
 0001:0002b126       ?DoDataExchange@ActionListDlg@@EAEXPAVCDataExchange@@@Z 0042c126 f   ActionListDlg.obj
 0001:0002b17b       ?UpdateCtrls@ActionListDlg@@AAEXXZ 0042c17b f   ActionListDlg.obj
 0001:0002b1c0       ?IsValidActUp@ActionListDlg@@ABEHXZ 0042c1c0 f   ActionListDlg.obj
 0001:0002b1e5       ?IsValidActDown@ActionListDlg@@ABEHXZ 0042c1e5 f   ActionListDlg.obj
 0001:0002b229       ?IsSelected@ActionListDlg@@ABEHXZ 0042c229 f   ActionListDlg.obj
 0001:0002b249       ?UpdateCurrentData@ActionListDlg@@QAEXXZ 0042c249 f   ActionListDlg.obj
 0001:0002b26d       ?HidePrevPropDlg@ActionListDlg@@AAEXXZ 0042c26d f   ActionListDlg.obj
 0001:0002b2c8       ?DisplayPropDlg@ActionListDlg@@AAEXXZ 0042c2c8 f   ActionListDlg.obj
 0001:0002b3b0       ?DisplayNonePropDlg@ActionListDlg@@AAEXXZ 0042c3b0 f   ActionListDlg.obj
 0001:0002b3be       ?OnSelchangeAction@ActionListDlg@@AAEXXZ 0042c3be f   ActionListDlg.obj
 0001:0002b488       ?OnActAdd@ActionListDlg@@AAEXXZ 0042c488 f   ActionListDlg.obj
 0001:0002b4a9       ?OnActDel@ActionListDlg@@AAEXXZ 0042c4a9 f   ActionListDlg.obj
 0001:0002b4ea       ?OnActDown@ActionListDlg@@AAEXXZ 0042c4ea f   ActionListDlg.obj
 0001:0002b53a       ?OnActUp@ActionListDlg@@AAEXXZ 0042c53a f   ActionListDlg.obj
 0001:0002b589       ?ChangeActionOrder@ActionListDlg@@AAEXHH@Z 0042c589 f   ActionListDlg.obj
 0001:0002b5ae       ?OnInsPlay@ActionListDlg@@AAEXXZ 0042c5ae f   ActionListDlg.obj
 0001:0002b5c0       ?OnInsStop@ActionListDlg@@AAEXXZ 0042c5c0 f   ActionListDlg.obj
 0001:0002b5d2       ?OnInsSoundPlay@ActionListDlg@@AAEXXZ 0042c5d2 f   ActionListDlg.obj
 0001:0002b5e4       ?OnInsSoundStop@ActionListDlg@@AAEXXZ 0042c5e4 f   ActionListDlg.obj
 0001:0002b5f6       ?OnInsJump@ActionListDlg@@AAEXXZ 0042c5f6 f   ActionListDlg.obj
 0001:0002b608       ?OnInsQuit@ActionListDlg@@AAEXXZ 0042c608 f   ActionListDlg.obj
 0001:0002b61a       ?OnInsSetBacklight@ActionListDlg@@AAEXXZ 0042c61a f   ActionListDlg.obj
 0001:0002b62c       ?OnInsSetBackgroundColor@ActionListDlg@@AAEXXZ 0042c62c f   ActionListDlg.obj
 0001:0002b63e       ?OnInsSetVibration@ActionListDlg@@AAEXXZ 0042c63e f   ActionListDlg.obj
 0001:0002b650       ?OnInsSetSoftkey@ActionListDlg@@AAEXXZ 0042c650 f   ActionListDlg.obj
 0001:0002b662       ?OnInsDelayJump@ActionListDlg@@AAEXXZ 0042c662 f   ActionListDlg.obj
 0001:0002b674       ?OnInsRandomJump@ActionListDlg@@AAEXXZ 0042c674 f   ActionListDlg.obj
 0001:0002b686       ?InsAction@ActionListDlg@@AAEXPAVAction@@@Z 0042c686 f   ActionListDlg.obj
 0001:0002b716       ?UpdateActionList@ActionListDlg@@AAEXXZ 0042c716 f   ActionListDlg.obj
 0001:0002b7ed       ?OnInitDialog@ActionListDlg@@EAEHXZ 0042c7ed f   ActionListDlg.obj
 0001:0002b808       ?OnDestroy@ActionListDlg@@AAEXXZ 0042c808 f   ActionListDlg.obj
 0001:0002b819       ??_GCButton@@UAEPAXI@Z     0042c819 f i ActionListDlg.obj
 0001:0002b819       ??_ECButton@@UAEPAXI@Z     0042c819 f i ActionListDlg.obj
 0001:0002b835       ??_ECListBox@@UAEPAXI@Z    0042c835 f i ActionListDlg.obj
 0001:0002b835       ??_GCListBox@@UAEPAXI@Z    0042c835 f i ActionListDlg.obj
 0001:0002b851       ?GetMessageMap@DelayJumpActionDlg@@MBEPBUAFX_MSGMAP@@XZ 0042c851 f   DelayJumpActionDlg.obj
 0001:0002b857       ?CreateObject@DelayJumpActionDlg@@SGPAVCObject@@XZ 0042c857 f   DelayJumpActionDlg.obj
 0001:0002b88c       ??0DelayJumpActionDlg@@QAE@XZ 0042c88c f   DelayJumpActionDlg.obj
 0001:0002b8f5       ??_EDelayJumpActionDlg@@UAEPAXI@Z 0042c8f5 f i DelayJumpActionDlg.obj
 0001:0002b8f5       ??_GDelayJumpActionDlg@@UAEPAXI@Z 0042c8f5 f i DelayJumpActionDlg.obj
 0001:0002b911       ??1DelayJumpActionDlg@@UAE@XZ 0042c911 f i DelayJumpActionDlg.obj
 0001:0002b958       ?DoDataExchange@DelayJumpActionDlg@@EAEXPAVCDataExchange@@@Z 0042c958 f   DelayJumpActionDlg.obj
 0001:0002b986       ?Create@DelayJumpActionDlg@@EAEHPAVCWnd@@@Z 0042c986 f   DelayJumpActionDlg.obj
 0001:0002b997       ?SetAction@DelayJumpActionDlg@@EAEXPAVAppli@@PAVAction@@@Z 0042c997 f   DelayJumpActionDlg.obj
 0001:0002b9eb       ?Apply@DelayJumpActionDlg@@EAEXXZ 0042c9eb f   DelayJumpActionDlg.obj
 0001:0002ba4c       ?GetAction@DelayJumpActionDlg@@AAEPAVDelayJumpAction@@XZ 0042ca4c f   DelayJumpActionDlg.obj
 0001:0002ba66       ??_GCComboBox@@UAEPAXI@Z   0042ca66 f i DelayJumpActionDlg.obj
 0001:0002ba66       ??_ECComboBox@@UAEPAXI@Z   0042ca66 f i DelayJumpActionDlg.obj
 0001:0002ba82       ?GetMessageMap@JumpActionDlg@@MBEPBUAFX_MSGMAP@@XZ 0042ca82 f   JumpActionDlg.obj
 0001:0002ba88       ?CreateObject@JumpActionDlg@@SGPAVCObject@@XZ 0042ca88 f   JumpActionDlg.obj
 0001:0002babd       ??0JumpActionDlg@@QAE@XZ   0042cabd f   JumpActionDlg.obj
 0001:0002bb20       ??_EJumpActionDlg@@UAEPAXI@Z 0042cb20 f i JumpActionDlg.obj
 0001:0002bb20       ??_GJumpActionDlg@@UAEPAXI@Z 0042cb20 f i JumpActionDlg.obj
 0001:0002bb3c       ??1JumpActionDlg@@UAE@XZ   0042cb3c f i JumpActionDlg.obj
 0001:0002bb83       ?DoDataExchange@JumpActionDlg@@EAEXPAVCDataExchange@@@Z 0042cb83 f   JumpActionDlg.obj
 0001:0002bb98       ?SetAction@JumpActionDlg@@EAEXPAVAppli@@PAVAction@@@Z 0042cb98 f   JumpActionDlg.obj
 0001:0002bbc3       ?Apply@JumpActionDlg@@EAEXXZ 0042cbc3 f   JumpActionDlg.obj
 0001:0002bc18       ?Create@JumpActionDlg@@EAEHPAVCWnd@@@Z 0042cc18 f   JumpActionDlg.obj
 0001:0002bc29       ?GetAction@JumpActionDlg@@AAEPAVJumpAction@@XZ 0042cc29 f   JumpActionDlg.obj
 0001:0002bc43       ?UpdateLabelList@JumpActionDlg@@AAEXXZ 0042cc43 f   JumpActionDlg.obj
 0001:0002bc68       ?CreateObject@RandomJumpActionDlg@@SGPAVCObject@@XZ 0042cc68 f   RandomJumpActionDlg.obj
 0001:0002bc9d       ?GetDialogClass@RandomJumpAction@@MBEPAUCRuntimeClass@@XZ 0042cc9d f   RandomJumpActionDlg.obj
 0001:0002bc9d       ?GetRuntimeClass@RandomJumpActionDlg@@UBEPAUCRuntimeClass@@XZ 0042cc9d f   RandomJumpActionDlg.obj
 0001:0002bca3       ?GetMessageMap@RandomJumpActionDlg@@MBEPBUAFX_MSGMAP@@XZ 0042cca3 f   RandomJumpActionDlg.obj
 0001:0002bca9       ??0RandomJumpActionDlg@@QAE@XZ 0042cca9 f   RandomJumpActionDlg.obj
 0001:0002bcea       ??_GRandomJumpActionDlg@@UAEPAXI@Z 0042ccea f i RandomJumpActionDlg.obj
 0001:0002bcea       ??_ERandomJumpActionDlg@@UAEPAXI@Z 0042ccea f i RandomJumpActionDlg.obj
 0001:0002bd06       ??1RandomJumpActionDlg@@UAE@XZ 0042cd06 f i RandomJumpActionDlg.obj
 0001:0002bd3b       ?DoDataExchange@RandomJumpActionDlg@@MAEXPAVCDataExchange@@@Z 0042cd3b f   RandomJumpActionDlg.obj
 0001:0002bd50       ?Create@RandomJumpActionDlg@@MAEHPAVCWnd@@@Z 0042cd50 f   RandomJumpActionDlg.obj
 0001:0002bd61       ?SetAction@RandomJumpActionDlg@@MAEXPAVAppli@@PAVAction@@@Z 0042cd61 f   RandomJumpActionDlg.obj
 0001:0002bd85       ?GetAction@RandomJumpActionDlg@@IAEPAVRandomJumpAction@@XZ 0042cd85 f   RandomJumpActionDlg.obj
 0001:0002bd9f       ?GetCurSingleSel@@YAHABVCListCtrl@@@Z 0042cd9f f   RandomJumpActionDlg.obj
 0001:0002bddd       ?OnClickCases@RandomJumpActionDlg@@IAEXPAUtagNMHDR@@PAJ@Z 0042cddd f   RandomJumpActionDlg.obj
 0001:0002bdec       ?OnDel@RandomJumpActionDlg@@IAEXXZ 0042cdec f   RandomJumpActionDlg.obj
 0001:0002be16       ?OnIns@RandomJumpActionDlg@@IAEXXZ 0042ce16 f   RandomJumpActionDlg.obj
 0001:0002beac       ??1RandomJumpCaseDlg@@UAE@XZ 0042ceac f i RandomJumpActionDlg.obj
 0001:0002bef0       ?OnMod@RandomJumpActionDlg@@IAEXXZ 0042cef0 f   RandomJumpActionDlg.obj
 0001:0002bfa1       ?UpdateCtrls@RandomJumpActionDlg@@IAEXXZ 0042cfa1 f   RandomJumpActionDlg.obj
 0001:0002c016       ?OnUpdateDel@RandomJumpActionDlg@@IAEXPAVCCmdUI@@@Z 0042d016 f   RandomJumpActionDlg.obj
 0001:0002c04f       ?OnUpdateIns@RandomJumpActionDlg@@IAEXPAVCCmdUI@@@Z 0042d04f f   RandomJumpActionDlg.obj
 0001:0002c077       ?OnUpdateMod@RandomJumpActionDlg@@IAEXPAVCCmdUI@@@Z 0042d077 f   RandomJumpActionDlg.obj
 0001:0002c09b       ?UpdateList@RandomJumpActionDlg@@IAEXXZ 0042d09b f   RandomJumpActionDlg.obj
 0001:0002c27b       ?OnInitDialog@RandomJumpActionDlg@@MAEHXZ 0042d27b f   RandomJumpActionDlg.obj
 0001:0002c323       ??_ECListCtrl@@UAEPAXI@Z   0042d323 f i RandomJumpActionDlg.obj
 0001:0002c323       ??_GCListCtrl@@UAEPAXI@Z   0042d323 f i RandomJumpActionDlg.obj
 0001:0002c33f       ??0RandomJumpCaseDlg@@QAE@PAVAppli@@PAVRandomJumpCase@@PAVCWnd@@@Z 0042d33f f   RandomJumpCaseDlg.obj
 0001:0002c3c6       ??_GRandomJumpCaseDlg@@UAEPAXI@Z 0042d3c6 f i RandomJumpCaseDlg.obj
 0001:0002c3c6       ??_ERandomJumpCaseDlg@@UAEPAXI@Z 0042d3c6 f i RandomJumpCaseDlg.obj
 0001:0002c3e2       ?DoDataExchange@RandomJumpCaseDlg@@MAEXPAVCDataExchange@@@Z 0042d3e2 f   RandomJumpCaseDlg.obj
 0001:0002c410       ?_GetBaseMessageMap@PictResizeDlg@@KGPBUAFX_MSGMAP@@XZ 0042d410 f   RandomJumpCaseDlg.obj
 0001:0002c410       ?_GetBaseMessageMap@EditPictQuantizeDlg@@KGPBUAFX_MSGMAP@@XZ 0042d410 f   RandomJumpCaseDlg.obj
 0001:0002c410       ?_GetBaseMessageMap@RenSubStageDlg@@KGPBUAFX_MSGMAP@@XZ 0042d410 f   RandomJumpCaseDlg.obj
 0001:0002c410       ?_GetBaseMessageMap@RenCharName@@KGPBUAFX_MSGMAP@@XZ 0042d410 f   RandomJumpCaseDlg.obj
 0001:0002c410       ?_GetBaseMessageMap@ColorPaletteDlg@@KGPBUAFX_MSGMAP@@XZ 0042d410 f   RandomJumpCaseDlg.obj
 0001:0002c410       ?_GetBaseMessageMap@EditColoringSelectDlg@@KGPBUAFX_MSGMAP@@XZ 0042d410 f   RandomJumpCaseDlg.obj
 0001:0002c410       ?_GetBaseMessageMap@BtnCharView@@KGPBUAFX_MSGMAP@@XZ 0042d410 f   RandomJumpCaseDlg.obj
 0001:0002c410       ?_GetBaseMessageMap@AppBugDlg@@KGPBUAFX_MSGMAP@@XZ 0042d410 f   RandomJumpCaseDlg.obj
 0001:0002c410       ?_GetBaseMessageMap@TextCharView@@KGPBUAFX_MSGMAP@@XZ 0042d410 f   RandomJumpCaseDlg.obj
 0001:0002c410       ?_GetBaseMessageMap@KeyFrameActionDlg@@KGPBUAFX_MSGMAP@@XZ 0042d410 f   RandomJumpCaseDlg.obj
 0001:0002c410       ?_GetBaseMessageMap@SECNewToolBar@@KGPBUAFX_MSGMAP@@XZ 0042d410 f   RandomJumpCaseDlg.obj
 0001:0002c410       ?_GetBaseMessageMap@KeyFrameLabelDlg@@KGPBUAFX_MSGMAP@@XZ 0042d410 f   RandomJumpCaseDlg.obj
 0001:0002c410       ?_GetBaseMessageMap@EditColoringMeidoDlg@@KGPBUAFX_MSGMAP@@XZ 0042d410 f   RandomJumpCaseDlg.obj
 0001:0002c410       ?_GetBaseMessageMap@BtnCharScheduleEventDlg@@KGPBUAFX_MSGMAP@@XZ 0042d410 f   RandomJumpCaseDlg.obj
 0001:0002c410       ?_GetBaseMessageMap@PictTrimDlg@@KGPBUAFX_MSGMAP@@XZ 0042d410 f   RandomJumpCaseDlg.obj
 0001:0002c410       ?_GetBaseMessageMap@RandomJumpCaseDlg@@KGPBUAFX_MSGMAP@@XZ 0042d410 f   RandomJumpCaseDlg.obj
 0001:0002c410       ?_GetBaseMessageMap@EditColoringDlg@@KGPBUAFX_MSGMAP@@XZ 0042d410 f   RandomJumpCaseDlg.obj
 0001:0002c410       ?_GetBaseMessageMap@EditColoringCustomDlg@@KGPBUAFX_MSGMAP@@XZ 0042d410 f   RandomJumpCaseDlg.obj
 0001:0002c410       ?_GetBaseMessageMap@BtnCharTelEventDlg@@KGPBUAFX_MSGMAP@@XZ 0042d410 f   RandomJumpCaseDlg.obj
 0001:0002c410       ?_GetBaseMessageMap@UploadingDlg@@KGPBUAFX_MSGMAP@@XZ 0042d410 f   RandomJumpCaseDlg.obj
 0001:0002c410       ?_GetBaseMessageMap@BtnCharMailEventDlg@@KGPBUAFX_MSGMAP@@XZ 0042d410 f   RandomJumpCaseDlg.obj
 0001:0002c410       ?_GetBaseMessageMap@GridEditDlg@@KGPBUAFX_MSGMAP@@XZ 0042d410 f   RandomJumpCaseDlg.obj
 0001:0002c410       ?_GetBaseMessageMap@VersionDlg@@KGPBUAFX_MSGMAP@@XZ 0042d410 f   RandomJumpCaseDlg.obj
 0001:0002c410       ?_GetBaseMessageMap@PictEffectPictDlg@@KGPBUAFX_MSGMAP@@XZ 0042d410 f   RandomJumpCaseDlg.obj
 0001:0002c410       ?_GetBaseMessageMap@DialogBarDlg@@KGPBUAFX_MSGMAP@@XZ 0042d410 f   RandomJumpCaseDlg.obj
 0001:0002c410       ?_GetBaseMessageMap@ActionListDlg@@KGPBUAFX_MSGMAP@@XZ 0042d410 f   RandomJumpCaseDlg.obj
 0001:0002c410       ?_GetBaseMessageMap@SECToolBarsDlg@@KGPBUAFX_MSGMAP@@XZ 0042d410 f   RandomJumpCaseDlg.obj
 0001:0002c410       ?_GetBaseMessageMap@DelayJumpActionDlg@@KGPBUAFX_MSGMAP@@XZ 0042d410 f   RandomJumpCaseDlg.obj
 0001:0002c410       ?_GetBaseMessageMap@ViewADFDlg@@KGPBUAFX_MSGMAP@@XZ 0042d410 f   RandomJumpCaseDlg.obj
 0001:0002c410       ?_GetBaseMessageMap@EmuPlayDlg@@KGPBUAFX_MSGMAP@@XZ 0042d410 f   RandomJumpCaseDlg.obj
 0001:0002c410       ?_GetBaseMessageMap@RenLayerDlg@@KGPBUAFX_MSGMAP@@XZ 0042d410 f   RandomJumpCaseDlg.obj
 0001:0002c410       ?_GetBaseMessageMap@SndCharView@@KGPBUAFX_MSGMAP@@XZ 0042d410 f   RandomJumpCaseDlg.obj
 0001:0002c410       ?_GetBaseMessageMap@UploadedDlg@@KGPBUAFX_MSGMAP@@XZ 0042d410 f   RandomJumpCaseDlg.obj
 0001:0002c410       ?_GetBaseMessageMap@EditPlacingDlg@@KGPBUAFX_MSGMAP@@XZ 0042d410 f   RandomJumpCaseDlg.obj
 0001:0002c410       ?_GetBaseMessageMap@EditAnimatingDlg@@KGPBUAFX_MSGMAP@@XZ 0042d410 f   RandomJumpCaseDlg.obj
 0001:0002c410       ?_GetBaseMessageMap@UploadDlg@@KGPBUAFX_MSGMAP@@XZ 0042d410 f   RandomJumpCaseDlg.obj
 0001:0002c410       ?_GetBaseMessageMap@NewEmptyPictCharDlg@@KGPBUAFX_MSGMAP@@XZ 0042d410 f   RandomJumpCaseDlg.obj
 0001:0002c410       ?_GetBaseMessageMap@ActionDlg@@KGPBUAFX_MSGMAP@@XZ 0042d410 f   RandomJumpCaseDlg.obj
 0001:0002c416       ?GetMessageMap@RandomJumpCaseDlg@@MBEPBUAFX_MSGMAP@@XZ 0042d416 f   RandomJumpCaseDlg.obj
 0001:0002c41c       ?OnOK@RandomJumpCaseDlg@@MAEXXZ 0042d41c f   RandomJumpCaseDlg.obj
 0001:0002c48c       ?OnChanged@RandomJumpCaseDlg@@IAEXXZ 0042d48c f   RandomJumpCaseDlg.obj
 0001:0002c491       ?UpdateCtrls@RandomJumpCaseDlg@@IAEXXZ 0042d491 f   RandomJumpCaseDlg.obj
 0001:0002c4f2       ?OnInitDialog@RandomJumpCaseDlg@@MAEHXZ 0042d4f2 f   RandomJumpCaseDlg.obj
 0001:0002c51f       ?CreateObject@SetBackgroundColorActionDlg@@SGPAVCObject@@XZ 0042d51f f   SetBackgroundColorActionDlg.obj
 0001:0002c554       ?_GetBaseClass@JumpActionDlg@@KGPAUCRuntimeClass@@XZ 0042d554 f   SetBackgroundColorActionDlg.obj
 0001:0002c554       ?_GetBaseClass@RandomJumpActionDlg@@KGPAUCRuntimeClass@@XZ 0042d554 f   SetBackgroundColorActionDlg.obj
 0001:0002c554       ?GetRuntimeClass@ActionDlg@@UBEPAUCRuntimeClass@@XZ 0042d554 f   SetBackgroundColorActionDlg.obj
 0001:0002c554       ?_GetBaseClass@DelayJumpActionDlg@@KGPAUCRuntimeClass@@XZ 0042d554 f   SetBackgroundColorActionDlg.obj
 0001:0002c554       ?_GetBaseClass@SetBackgroundColorActionDlg@@KGPAUCRuntimeClass@@XZ 0042d554 f   SetBackgroundColorActionDlg.obj
 0001:0002c554       ?_GetBaseClass@SetBacklightActionDlg@@KGPAUCRuntimeClass@@XZ 0042d554 f   SetBackgroundColorActionDlg.obj
 0001:0002c554       ?_GetBaseClass@SoundPlayActionDlg@@KGPAUCRuntimeClass@@XZ 0042d554 f   SetBackgroundColorActionDlg.obj
 0001:0002c554       ?_GetBaseClass@SetVibrationActionDlg@@KGPAUCRuntimeClass@@XZ 0042d554 f   SetBackgroundColorActionDlg.obj
 0001:0002c554       ?_GetBaseClass@SetSoftkeyActionDlg@@KGPAUCRuntimeClass@@XZ 0042d554 f   SetBackgroundColorActionDlg.obj
 0001:0002c55a       ?GetRuntimeClass@SetBackgroundColorActionDlg@@UBEPAUCRuntimeClass@@XZ 0042d55a f   SetBackgroundColorActionDlg.obj
 0001:0002c55a       ?GetDialogClass@SetBackgroundColorAction@@EBEPAUCRuntimeClass@@XZ 0042d55a f   SetBackgroundColorActionDlg.obj
 0001:0002c560       ?_GetBaseMessageMap@JumpActionDlg@@KGPBUAFX_MSGMAP@@XZ 0042d560 f   SetBackgroundColorActionDlg.obj
 0001:0002c560       ?_GetBaseMessageMap@SetVibrationActionDlg@@KGPBUAFX_MSGMAP@@XZ 0042d560 f   SetBackgroundColorActionDlg.obj
 0001:0002c560       ?_GetBaseMessageMap@RandomJumpActionDlg@@KGPBUAFX_MSGMAP@@XZ 0042d560 f   SetBackgroundColorActionDlg.obj
 0001:0002c560       ?_GetBaseMessageMap@SetBacklightActionDlg@@KGPBUAFX_MSGMAP@@XZ 0042d560 f   SetBackgroundColorActionDlg.obj
 0001:0002c560       ?_GetBaseMessageMap@SetSoftkeyActionDlg@@KGPBUAFX_MSGMAP@@XZ 0042d560 f   SetBackgroundColorActionDlg.obj
 0001:0002c560       ?_GetBaseMessageMap@SoundPlayActionDlg@@KGPBUAFX_MSGMAP@@XZ 0042d560 f   SetBackgroundColorActionDlg.obj
 0001:0002c560       ?GetMessageMap@ActionDlg@@MBEPBUAFX_MSGMAP@@XZ 0042d560 f   SetBackgroundColorActionDlg.obj
 0001:0002c560       ?_GetBaseMessageMap@SetBackgroundColorActionDlg@@KGPBUAFX_MSGMAP@@XZ 0042d560 f   SetBackgroundColorActionDlg.obj
 0001:0002c566       ?GetMessageMap@SetBackgroundColorActionDlg@@MBEPBUAFX_MSGMAP@@XZ 0042d566 f   SetBackgroundColorActionDlg.obj
 0001:0002c56c       ??0SetBackgroundColorActionDlg@@QAE@XZ 0042d56c f   SetBackgroundColorActionDlg.obj
 0001:0002c5a3       ??_GSetBackgroundColorActionDlg@@UAEPAXI@Z 0042d5a3 f i SetBackgroundColorActionDlg.obj
 0001:0002c5a3       ??_ESetBackgroundColorActionDlg@@UAEPAXI@Z 0042d5a3 f i SetBackgroundColorActionDlg.obj
 0001:0002c5bf       ??1SetBackgroundColorActionDlg@@UAE@XZ 0042d5bf f i SetBackgroundColorActionDlg.obj
 0001:0002c5f4       ?DoDataExchange@SetBackgroundColorActionDlg@@EAEXPAVCDataExchange@@@Z 0042d5f4 f   SetBackgroundColorActionDlg.obj
 0001:0002c609       ?SetAction@SetBackgroundColorActionDlg@@EAEXPAVAppli@@PAVAction@@@Z 0042d609 f   SetBackgroundColorActionDlg.obj
 0001:0002c634       ?Apply@SetBackgroundColorActionDlg@@EAEXXZ 0042d634 f   SetBackgroundColorActionDlg.obj
 0001:0002c657       ?Create@SetBackgroundColorActionDlg@@EAEHPAVCWnd@@@Z 0042d657 f   SetBackgroundColorActionDlg.obj
 0001:0002c668       ?GetAction@SetBackgroundColorActionDlg@@AAEPAVSetBackgroundColorAction@@XZ 0042d668 f   SetBackgroundColorActionDlg.obj
 0001:0002c682       ?OnBkgnd@SetBackgroundColorActionDlg@@AAEXPAVCCmdUI@@@Z 0042d682 f   SetBackgroundColorActionDlg.obj
 0001:0002c682       ?OnUpdateTranslate@EditPlacingDlg@@IAEXPAVCCmdUI@@@Z 0042d682 f   SetBackgroundColorActionDlg.obj
 0001:0002c68f       ?CreateObject@SetBacklightActionDlg@@SGPAVCObject@@XZ 0042d68f f   SetBackLightActionDlg.obj
 0001:0002c6c1       ?GetRuntimeClass@SetBacklightActionDlg@@UBEPAUCRuntimeClass@@XZ 0042d6c1 f   SetBackLightActionDlg.obj
 0001:0002c6c1       ?GetDialogClass@SetBacklightAction@@MBEPAUCRuntimeClass@@XZ 0042d6c1 f   SetBackLightActionDlg.obj
 0001:0002c6c7       ?GetMessageMap@SetBacklightActionDlg@@MBEPBUAFX_MSGMAP@@XZ 0042d6c7 f   SetBackLightActionDlg.obj
 0001:0002c6cd       ??0SetBacklightActionDlg@@QAE@XZ 0042d6cd f   SetBackLightActionDlg.obj
 0001:0002c6e6       ??1SetVibrationActionDlg@@UAE@XZ 0042d6e6 f i SetBackLightActionDlg.obj
 0001:0002c6e6       ??1SetBacklightActionDlg@@UAE@XZ 0042d6e6 f i SetBackLightActionDlg.obj
 0001:0002c6eb       ?DoDataExchange@SetVibrationActionDlg@@MAEXPAVCDataExchange@@@Z 0042d6eb f   SetBackLightActionDlg.obj
 0001:0002c6eb       ?DoDataExchange@SetBacklightActionDlg@@EAEXPAVCDataExchange@@@Z 0042d6eb f   SetBackLightActionDlg.obj
 0001:0002c700       ?SetAction@SetBacklightActionDlg@@EAEXPAVAppli@@PAVAction@@@Z 0042d700 f   SetBackLightActionDlg.obj
 0001:0002c734       ?Apply@SetBacklightActionDlg@@EAEXXZ 0042d734 f   SetBackLightActionDlg.obj
 0001:0002c758       ?Create@SetBacklightActionDlg@@EAEHPAVCWnd@@@Z 0042d758 f   SetBackLightActionDlg.obj
 0001:0002c769       ?GetAction@SetBacklightActionDlg@@AAEPAVSetBacklightAction@@XZ 0042d769 f   SetBackLightActionDlg.obj
 0001:0002c783       ?CreateObject@SetSoftkeyActionDlg@@SGPAVCObject@@XZ 0042d783 f   SetSoftkeyActionDlg.obj
 0001:0002c7b5       ?GetDialogClass@SetSoftkeyAction@@EBEPAUCRuntimeClass@@XZ 0042d7b5 f   SetSoftkeyActionDlg.obj
 0001:0002c7b5       ?GetRuntimeClass@SetSoftkeyActionDlg@@UBEPAUCRuntimeClass@@XZ 0042d7b5 f   SetSoftkeyActionDlg.obj
 0001:0002c7bb       ?GetMessageMap@SetSoftkeyActionDlg@@MBEPBUAFX_MSGMAP@@XZ 0042d7bb f   SetSoftkeyActionDlg.obj
 0001:0002c7c1       ??0SetSoftkeyActionDlg@@QAE@XZ 0042d7c1 f   SetSoftkeyActionDlg.obj
 0001:0002c7f8       ??_GSetSoftkeyActionDlg@@UAEPAXI@Z 0042d7f8 f i SetSoftkeyActionDlg.obj
 0001:0002c7f8       ??_ESetSoftkeyActionDlg@@UAEPAXI@Z 0042d7f8 f i SetSoftkeyActionDlg.obj
 0001:0002c814       ??1SetSoftkeyActionDlg@@UAE@XZ 0042d814 f i SetSoftkeyActionDlg.obj
 0001:0002c849       ?DoDataExchange@SetSoftkeyActionDlg@@EAEXPAVCDataExchange@@@Z 0042d849 f   SetSoftkeyActionDlg.obj
 0001:0002c87f       ?SetAction@SetSoftkeyActionDlg@@EAEXPAVAppli@@PAVAction@@@Z 0042d87f f   SetSoftkeyActionDlg.obj
 0001:0002c8eb       ?Apply@SetSoftkeyActionDlg@@EAEXXZ 0042d8eb f   SetSoftkeyActionDlg.obj
 0001:0002c90b       ?Create@SetSoftkeyActionDlg@@EAEHPAVCWnd@@@Z 0042d90b f   SetSoftkeyActionDlg.obj
 0001:0002c91c       ?GetAction@SetSoftkeyActionDlg@@AAEPAVSetSoftkeyAction@@XZ 0042d91c f   SetSoftkeyActionDlg.obj
 0001:0002c936       ?CreateObject@SetVibrationActionDlg@@SGPAVCObject@@XZ 0042d936 f   SetVibrationActionDlg.obj
 0001:0002c968       ?GetDialogClass@SetVibrationAction@@EBEPAUCRuntimeClass@@XZ 0042d968 f   SetVibrationActionDlg.obj
 0001:0002c968       ?GetRuntimeClass@SetVibrationActionDlg@@UBEPAUCRuntimeClass@@XZ 0042d968 f   SetVibrationActionDlg.obj
 0001:0002c96e       ?GetMessageMap@SetVibrationActionDlg@@MBEPBUAFX_MSGMAP@@XZ 0042d96e f   SetVibrationActionDlg.obj
 0001:0002c974       ??0SetVibrationActionDlg@@QAE@XZ 0042d974 f   SetVibrationActionDlg.obj
 0001:0002c98d       ??_ESetBacklightActionDlg@@UAEPAXI@Z 0042d98d f i SetVibrationActionDlg.obj
 0001:0002c98d       ??_GSetVibrationActionDlg@@UAEPAXI@Z 0042d98d f i SetVibrationActionDlg.obj
 0001:0002c98d       ??_ESetVibrationActionDlg@@UAEPAXI@Z 0042d98d f i SetVibrationActionDlg.obj
 0001:0002c98d       ??_GSetBacklightActionDlg@@UAEPAXI@Z 0042d98d f i SetVibrationActionDlg.obj
 0001:0002c9a9       ?SetAction@SetVibrationActionDlg@@MAEXPAVAppli@@PAVAction@@@Z 0042d9a9 f   SetVibrationActionDlg.obj
 0001:0002c9dd       ?Apply@SetVibrationActionDlg@@MAEXXZ 0042d9dd f   SetVibrationActionDlg.obj
 0001:0002ca01       ?Create@SetVibrationActionDlg@@MAEHPAVCWnd@@@Z 0042da01 f   SetVibrationActionDlg.obj
 0001:0002ca12       ?GetAction@SetVibrationActionDlg@@IAEPAVSetVibrationAction@@XZ 0042da12 f   SetVibrationActionDlg.obj
 0001:0002ca2c       ?GetMessageMap@SoundPlayActionDlg@@MBEPBUAFX_MSGMAP@@XZ 0042da2c f   SoundPlayActionDlg.obj
 0001:0002ca32       ?CreateObject@SoundPlayActionDlg@@SGPAVCObject@@XZ 0042da32 f   SoundPlayActionDlg.obj
 0001:0002ca67       ?GetRuntimeClass@SoundPlayActionDlg@@UBEPAUCRuntimeClass@@XZ 0042da67 f   SoundPlayActionDlg.obj
 0001:0002ca67       ?GetDialogClass@SoundPlayAction@@EBEPAUCRuntimeClass@@XZ 0042da67 f   SoundPlayActionDlg.obj
 0001:0002ca6d       ??0SoundPlayActionDlg@@QAE@XZ 0042da6d f   SoundPlayActionDlg.obj
 0001:0002cac6       ??_GSoundPlayActionDlg@@UAEPAXI@Z 0042dac6 f i SoundPlayActionDlg.obj
 0001:0002cac6       ??_ESoundPlayActionDlg@@UAEPAXI@Z 0042dac6 f i SoundPlayActionDlg.obj
 0001:0002cae2       ??1SoundPlayActionDlg@@UAE@XZ 0042dae2 f i SoundPlayActionDlg.obj
 0001:0002cb29       ?DoDataExchange@SoundPlayActionDlg@@EAEXPAVCDataExchange@@@Z 0042db29 f   SoundPlayActionDlg.obj
 0001:0002cb3e       ?SetAction@SoundPlayActionDlg@@EAEXPAVAppli@@PAVAction@@@Z 0042db3e f   SoundPlayActionDlg.obj
 0001:0002cb5d       ?Apply@SoundPlayActionDlg@@EAEXXZ 0042db5d f   SoundPlayActionDlg.obj
 0001:0002cb97       ?Create@SoundPlayActionDlg@@EAEHPAVCWnd@@@Z 0042db97 f   SoundPlayActionDlg.obj
 0001:0002cba8       ?GetAction@SoundPlayActionDlg@@AAEPAVSoundPlayAction@@XZ 0042dba8 f   SoundPlayActionDlg.obj
 0001:0002cbc2       ?UpdateSndCharList@SoundPlayActionDlg@@AAEXPBVAppli@@@Z 0042dbc2 f   SoundPlayActionDlg.obj
 0001:0002ccff       ?push_back@?$vector@PBVChar@@V?$allocator@PBVChar@@@std@@@std@@QAEXABQBVChar@@@Z 0042dcff f i SoundPlayActionDlg.obj
 0001:0002ccff       ?push_back@?$vector@PBVSndChar@@V?$allocator@PBVSndChar@@@std@@@std@@QAEXABQBVSndChar@@@Z 0042dcff f i SoundPlayActionDlg.obj
 0001:0002cd10       ?erase@?$vector@PBVSndChar@@V?$allocator@PBVSndChar@@@std@@@std@@QAEPAPBVSndChar@@PAPBV3@0@Z 0042dd10 f i SoundPlayActionDlg.obj
 0001:0002cd10       ?erase@?$vector@HV?$allocator@H@std@@@std@@QAEPAHPAH0@Z 0042dd10 f i SoundPlayActionDlg.obj
 0001:0002cd42       ?_GetBaseMessageMap@AppliConfCanvasPage@@KGPBUAFX_MSGMAP@@XZ 0042dd42 f   AppliConfCanvasPage.obj
 0001:0002cd42       ?_GetBaseMessageMap@SECToolBarsPage@@KGPBUAFX_MSGMAP@@XZ 0042dd42 f   AppliConfCanvasPage.obj
 0001:0002cd42       ?_GetBaseMessageMap@AppliConfTitlePage@@KGPBUAFX_MSGMAP@@XZ 0042dd42 f   AppliConfCanvasPage.obj
 0001:0002cd42       ?_GetBaseMessageMap@AppliConfTypePage@@KGPBUAFX_MSGMAP@@XZ 0042dd42 f   AppliConfCanvasPage.obj
 0001:0002cd42       ?_GetBaseMessageMap@AppliConfPlayPage@@KGPBUAFX_MSGMAP@@XZ 0042dd42 f   AppliConfCanvasPage.obj
 0001:0002cd42       ?_GetBaseMessageMap@PrefEmuPage@@KGPBUAFX_MSGMAP@@XZ 0042dd42 f   AppliConfCanvasPage.obj
 0001:0002cd42       ?_GetBaseMessageMap@AppliConfMachiukePage@@KGPBUAFX_MSGMAP@@XZ 0042dd42 f   AppliConfCanvasPage.obj
 0001:0002cd42       ?_GetBaseMessageMap@PrefEtcPage@@KGPBUAFX_MSGMAP@@XZ 0042dd42 f   AppliConfCanvasPage.obj
 0001:0002cd42       ?_GetBaseMessageMap@AppliConfWizDonePage@@KGPBUAFX_MSGMAP@@XZ 0042dd42 f   AppliConfCanvasPage.obj
 0001:0002cd42       ?_GetBaseMessageMap@AppliConfWizHomePage@@KGPBUAFX_MSGMAP@@XZ 0042dd42 f   AppliConfCanvasPage.obj
 0001:0002cd42       ?_GetBaseMessageMap@PrefUploadPage@@KGPBUAFX_MSGMAP@@XZ 0042dd42 f   AppliConfCanvasPage.obj
 0001:0002cd42       ?_GetBaseMessageMap@SECToolBarCmdPage@@KGPBUAFX_MSGMAP@@XZ 0042dd42 f   AppliConfCanvasPage.obj
 0001:0002cd48       ?GetMessageMap@AppliConfCanvasPage@@MBEPBUAFX_MSGMAP@@XZ 0042dd48 f   AppliConfCanvasPage.obj
 0001:0002cd4e       ??0AppliConfCanvasPage@@QAE@PAVAppliConf@@@Z 0042dd4e f   AppliConfCanvasPage.obj
 0001:0002cd76       ??_GAppliConfCanvasPage@@UAEPAXI@Z 0042dd76 f i AppliConfCanvasPage.obj
 0001:0002cd76       ??_EAppliConfCanvasPage@@UAEPAXI@Z 0042dd76 f i AppliConfCanvasPage.obj
 0001:0002cd92       ??1AppliConfCanvasPage@@UAE@XZ 0042dd92 f   AppliConfCanvasPage.obj
 0001:0002cd9d       ??1CPropertyPageEx@@UAE@XZ 0042dd9d f i AppliConfCanvasPage.obj
 0001:0002cde7       ?DoDataExchange@AppliConfCanvasPage@@MAEXPAVCDataExchange@@@Z 0042dde7 f   AppliConfCanvasPage.obj
 0001:0002ce1e       ?OnApply@AppliConfCanvasPage@@MAEHXZ 0042de1e f   AppliConfCanvasPage.obj
 0001:0002ce1e       ?OnApply@AppliConfTitlePage@@MAEHXZ 0042de1e f   AppliConfCanvasPage.obj
 0001:0002ce3c       ?OnSetActive@AppliConfTypePage@@MAEHXZ 0042de3c f   AppliConfCanvasPage.obj
 0001:0002ce3c       ?OnSetActive@AppliConfCanvasPage@@MAEHXZ 0042de3c f   AppliConfCanvasPage.obj
 0001:0002ce3c       ?OnSetActive@AppliConfMachiukePage@@MAEHXZ 0042de3c f   AppliConfCanvasPage.obj
 0001:0002ce4f       ?OnKillActive@AppliConfCanvasPage@@MAEHXZ 0042de4f f   AppliConfCanvasPage.obj
 0001:0002ce6a       ?OnChanged@AppliConfCanvasPage@@IAEXXZ 0042de6a f   AppliConfCanvasPage.obj
 0001:0002ce7d       ?_GetBaseMessageMap@PrefDlg@@KGPBUAFX_MSGMAP@@XZ 0042de7d f   AppliConfDlg.obj
 0001:0002ce7d       ?_GetBaseMessageMap@AppliConfDlg@@KGPBUAFX_MSGMAP@@XZ 0042de7d f   AppliConfDlg.obj
 0001:0002ce7d       ?_GetBaseMessageMap@SECToolBarSheet@@KGPBUAFX_MSGMAP@@XZ 0042de7d f   AppliConfDlg.obj
 0001:0002ce83       ?GetMessageMap@AppliConfDlg@@MBEPBUAFX_MSGMAP@@XZ 0042de83 f   AppliConfDlg.obj
 0001:0002ce89       ??0AppliConfDlg@@QAE@W4MODE@0@AAVAppliConf@@@Z 0042de89 f   AppliConfDlg.obj
 0001:0002d17f       ??_EAppliConfDlg@@UAEPAXI@Z 0042e17f f i AppliConfDlg.obj
 0001:0002d17f       ??_GAppliConfDlg@@UAEPAXI@Z 0042e17f f i AppliConfDlg.obj
 0001:0002d19b       ?AddAppliConfPage@AppliConfDlg@@IAEXPAVCPropertyPageEx@@@Z 0042e19b f   AppliConfDlg.obj
 0001:0002d1fb       ??1AppliConfDlg@@UAE@XZ    0042e1fb f   AppliConfDlg.obj
 0001:0002d239       ?GetAppliConfDlg@AppliConfDlg@@SAPAV1@PAVCPropertyPageEx@@@Z 0042e239 f   AppliConfDlg.obj
 0001:0002d264       ??1?$list@V?$auto_ptr@VCPropertyPageEx@@@std@@V?$allocator@V?$auto_ptr@VCPropertyPageEx@@@std@@@2@@std@@QAE@XZ 0042e264 f i AppliConfDlg.obj
 0001:0002d29c       ?insert@?$list@V?$auto_ptr@UCHARVIEW@AppliFrameWnd@@@std@@V?$allocator@V?$auto_ptr@UCHARVIEW@AppliFrameWnd@@@std@@@2@@std@@QAE?AViterator@12@V312@ABV?$auto_ptr@UCHARVIEW@AppliFrameWnd@@@2@@Z 0042e29c f i AppliConfDlg.obj
 0001:0002d29c       ?insert@?$list@V?$auto_ptr@VCPropertyPageEx@@@std@@V?$allocator@V?$auto_ptr@VCPropertyPageEx@@@std@@@2@@std@@QAE?AViterator@12@V312@ABV?$auto_ptr@VCPropertyPageEx@@@2@@Z 0042e29c f i AppliConfDlg.obj
 0001:0002d29c       ?insert@?$list@V?$auto_ptr@VCmd@@@std@@V?$allocator@V?$auto_ptr@VCmd@@@std@@@2@@std@@QAE?AViterator@12@V312@ABV?$auto_ptr@VCmd@@@2@@Z 0042e29c f i AppliConfDlg.obj
 0001:0002d2dd       ?erase@?$list@V?$auto_ptr@VCPropertyPageEx@@@std@@V?$allocator@V?$auto_ptr@VCPropertyPageEx@@@std@@@2@@std@@QAE?AViterator@12@V312@@Z 0042e2dd f i AppliConfDlg.obj
 0001:0002d315       ??0AppliConfMachiukePage@@QAE@PAVAppliConf@@@Z 0042e315 f   AppliConfMachiukePage.obj
 0001:0002d425       ??_GAppliConfMachiukePage@@UAEPAXI@Z 0042e425 f i AppliConfMachiukePage.obj
 0001:0002d425       ??_EAppliConfMachiukePage@@UAEPAXI@Z 0042e425 f i AppliConfMachiukePage.obj
 0001:0002d441       ??1AppliConfMachiukePage@@UAE@XZ 0042e441 f   AppliConfMachiukePage.obj
 0001:0002d491       ?DoDataExchange@AppliConfMachiukePage@@MAEXPAVCDataExchange@@@Z 0042e491 f   AppliConfMachiukePage.obj
 0001:0002d4c4       ?GetMessageMap@AppliConfMachiukePage@@MBEPBUAFX_MSGMAP@@XZ 0042e4c4 f   AppliConfMachiukePage.obj
 0001:0002d4ca       ?OnInitDialog@AppliConfMachiukePage@@MAEHXZ 0042e4ca f   AppliConfMachiukePage.obj
 0001:0002d563       ?OnCheckRepeat@SndCharView@@AAEXXZ 0042e563 f   AppliConfMachiukePage.obj
 0001:0002d563       ?OnKillActive@AppliConfPlayPage@@MAEHXZ 0042e563 f   AppliConfMachiukePage.obj
 0001:0002d563       ?OnKillActive@AppliConfTypePage@@MAEHXZ 0042e563 f   AppliConfMachiukePage.obj
 0001:0002d563       ?OnKillActive@AppliConfTitlePage@@MAEHXZ 0042e563 f   AppliConfMachiukePage.obj
 0001:0002d563       ?OnApply@AppliConfMachiukePage@@MAEHXZ 0042e563 f   AppliConfMachiukePage.obj
 0001:0002d563       ?OnKillActive@AppliConfMachiukePage@@MAEHXZ 0042e563 f   AppliConfMachiukePage.obj
 0001:0002d563       ?OnApply@AppliConfTypePage@@MAEHXZ 0042e563 f   AppliConfMachiukePage.obj
 0001:0002d56b       ??1?$list@VCString@@V?$allocator@VCString@@@std@@@std@@QAE@XZ 0042e56b f i AppliConfMachiukePage.obj
 0001:0002d5a3       ?insert@?$list@VCString@@V?$allocator@VCString@@@std@@@std@@QAE?AViterator@12@V312@ABVCString@@@Z 0042e5a3 f i AppliConfMachiukePage.obj
 0001:0002d5dd       ?erase@?$list@VCString@@V?$allocator@VCString@@@std@@@std@@QAE?AViterator@12@V312@@Z 0042e5dd f i AppliConfMachiukePage.obj
 0001:0002d615       ?GetMessageMap@AppliConfPlayPage@@MBEPBUAFX_MSGMAP@@XZ 0042e615 f   AppliConfPlayPage.obj
 0001:0002d61b       ??0AppliConfPlayPage@@QAE@PAVAppliConf@@@Z 0042e61b f   AppliConfPlayPage.obj
 0001:0002d691       ??_GAppliConfPlayPage@@UAEPAXI@Z 0042e691 f i AppliConfPlayPage.obj
 0001:0002d691       ??_EAppliConfPlayPage@@UAEPAXI@Z 0042e691 f i AppliConfPlayPage.obj
 0001:0002d6ad       ??1AppliConfPlayPage@@UAE@XZ 0042e6ad f   AppliConfPlayPage.obj
 0001:0002d70c       ?DoDataExchange@AppliConfPlayPage@@MAEXPAVCDataExchange@@@Z 0042e70c f   AppliConfPlayPage.obj
 0001:0002d7cb       ?OnInitDialog@AppliConfPlayPage@@MAEHXZ 0042e7cb f   AppliConfPlayPage.obj
 0001:0002d7f0       ?OnColorBoxDown@AppliConfPlayPage@@IAEJIJ@Z 0042e7f0 f   AppliConfPlayPage.obj
 0001:0002d88d       ??1ColorPaletteDlg@@UAE@XZ 0042e88d f i AppliConfPlayPage.obj
 0001:0002d93f       ??1ColorPickerListener@@UAE@XZ 0042e93f f i AppliConfPlayPage.obj
 0001:0002d946       ??_GColorPickerListener@@UAEPAXI@Z 0042e946 f i AppliConfPlayPage.obj
 0001:0002d946       ??_EColorPickerListener@@UAEPAXI@Z 0042e946 f i AppliConfPlayPage.obj
 0001:0002d963       ?OnApply@AppliConfPlayPage@@MAEHXZ 0042e963 f   AppliConfPlayPage.obj
 0001:0002d98e       ??_GCSpinButtonCtrl@@UAEPAXI@Z 0042e98e f i AppliConfPlayPage.obj
 0001:0002d98e       ??_ECSpinButtonCtrl@@UAEPAXI@Z 0042e98e f i AppliConfPlayPage.obj
 0001:0002d9aa       ?GetMessageMap@AppliConfTitlePage@@MBEPBUAFX_MSGMAP@@XZ 0042e9aa f   AppliConfTitlePage.obj
 0001:0002d9b0       ??0AppliConfTitlePage@@QAE@PAVAppliConf@@@Z 0042e9b0 f   AppliConfTitlePage.obj
 0001:0002da2a       ??_EAppliConfTitlePage@@UAEPAXI@Z 0042ea2a f i AppliConfTitlePage.obj
 0001:0002da2a       ??_GAppliConfTitlePage@@UAEPAXI@Z 0042ea2a f i AppliConfTitlePage.obj
 0001:0002da46       ??1AppliConfTitlePage@@UAE@XZ 0042ea46 f   AppliConfTitlePage.obj
 0001:0002daa1       ?DoDataExchange@AppliConfTitlePage@@MAEXPAVCDataExchange@@@Z 0042eaa1 f   AppliConfTitlePage.obj
 0001:0002db5a       ?OnInitDialog@AppliConfTitlePage@@MAEHXZ 0042eb5a f   AppliConfTitlePage.obj
 0001:0002dc72       ?OnSetActive@AppliConfTitlePage@@MAEHXZ 0042ec72 f   AppliConfTitlePage.obj
 0001:0002dc72       ?OnInitDialog@BtnCharMailEventDlg@@EAEHXZ 0042ec72 f   AppliConfTitlePage.obj
 0001:0002dc72       ?OnSetActive@AppliConfPlayPage@@MAEHXZ 0042ec72 f   AppliConfTitlePage.obj
 0001:0002dc7d       ?OnOK@AppliConfTypePage@@MAEXXZ 0042ec7d f   AppliConfTitlePage.obj
 0001:0002dc7d       ?OnOK@AppliConfPlayPage@@MAEXXZ 0042ec7d f   AppliConfTitlePage.obj
 0001:0002dc7d       ?OnOK@AppliConfTitlePage@@MAEXXZ 0042ec7d f   AppliConfTitlePage.obj
 0001:0002dc7d       ?OnOK@AppliConfMachiukePage@@MAEXXZ 0042ec7d f   AppliConfTitlePage.obj
 0001:0002dc7d       ?OnOK@AppliConfCanvasPage@@MAEXXZ 0042ec7d f   AppliConfTitlePage.obj
 0001:0002dc94       ?OnChanged@AppliConfTitlePage@@IAEXXZ 0042ec94 f   AppliConfTitlePage.obj
 0001:0002dcc4       ?LoadIconBitmap@AppliConfTitlePage@@KAXABVLBuffer@@AAVLBitmap@@@Z 0042ecc4 f   AppliConfTitlePage.obj
 0001:0002df57       ??0LoadIconException@@QAE@I@Z 0042ef57 f i AppliConfTitlePage.obj
 0001:0002dfb4       ??0LoadIconException@@QAE@IH@Z 0042efb4 f i AppliConfTitlePage.obj
 0001:0002e016       ??_GLoadIconException@@UAEPAXI@Z 0042f016 f i AppliConfTitlePage.obj
 0001:0002e016       ??_ELoadIconException@@UAEPAXI@Z 0042f016 f i AppliConfTitlePage.obj
 0001:0002e032       ??1LoadIconException@@UAE@XZ 0042f032 f i AppliConfTitlePage.obj
 0001:0002e065       ?LoadIconA@AppliConfTitlePage@@KAXPBDAAVLBuffer@@AAVLBitmap@@@Z 0042f065 f   AppliConfTitlePage.obj
 0001:0002e1c1       ??0LoadIconException@@QAE@IPAVCException@@@Z 0042f1c1 f i AppliConfTitlePage.obj
 0001:0002e26b       ?OnLoadIcon@AppliConfTitlePage@@IAEXXZ 0042f26b f   AppliConfTitlePage.obj
 0001:0002e3a5       ??1CFileDialog@@UAE@XZ     0042f3a5 f i AppliConfTitlePage.obj
 0001:0002e3dd       ?OnClearIcon@AppliConfTitlePage@@IAEXXZ 0042f3dd f   AppliConfTitlePage.obj
 0001:0002e411       ?OnPSPaint@AppliConfTitlePage@@MAEXAAVPreviewStatic@@@Z 0042f411 f   AppliConfTitlePage.obj
 0001:0002e4a6       ?OnPSEraseBkgnd@AppliConfTitlePage@@MAEHAAVPreviewStatic@@AAVCDC@@@Z 0042f4a6 f   AppliConfTitlePage.obj
 0001:0002e4a6       ?OnPSEraseBkgnd@EditPictQuantizeDlg@@EAEHAAVPreviewStatic@@AAVCDC@@@Z 0042f4a6 f   AppliConfTitlePage.obj
 0001:0002e4a6       ?OnNcHitTest@SECToolBar@@IAEIVCPoint@@@Z 0042f4a6 f   AppliConfTitlePage.obj
 0001:0002e4a6       ?OnPSEraseBkgnd@ColorPaletteDlg@@EAEHAAVPreviewStatic@@AAVCDC@@@Z 0042f4a6 f   AppliConfTitlePage.obj
 0001:0002e4a6       ?OnPSEraseBkgnd@EditColoringDlg@@EAEHAAVPreviewStatic@@AAVCDC@@@Z 0042f4a6 f   AppliConfTitlePage.obj
 0001:0002e4a6       ?OnPSEraseBkgnd@PictEffectPictDlg@@MAEHAAVPreviewStatic@@AAVCDC@@@Z 0042f4a6 f   AppliConfTitlePage.obj
 0001:0002e4ac       ??1Coloring@@UAE@XZ        0042f4ac f i AppliConfTitlePage.obj
 0001:0002e4ac       ??1ClientEdge@SECDockBar@@UAE@XZ 0042f4ac f i AppliConfTitlePage.obj
 0001:0002e4ac       ??1CObject@@UAE@XZ         0042f4ac f i AppliConfTitlePage.obj
 0001:0002e4ac       ??1SDOMException@@UAE@XZ   0042f4ac f i AppliConfTitlePage.obj
 0001:0002e4ac       ??1Splitter@SECDockBar@@UAE@XZ 0042f4ac f i AppliConfTitlePage.obj
 0001:0002e4ac       ??1Act@@UAE@XZ             0042f4ac f i AppliConfTitlePage.obj
 0001:0002e4ac       ??1SECControlBarInfoEx@@UAE@XZ 0042f4ac f i AppliConfTitlePage.obj
 0001:0002e4ac       ??1CException@@UAE@XZ      0042f4ac f i AppliConfTitlePage.obj
 0001:0002e4ac       ??1CSimpleException@@UAE@XZ 0042f4ac f i AppliConfTitlePage.obj
 0001:0002e4b3       ??_ECSimpleException@@UAEPAXI@Z 0042f4b3 f i AppliConfTitlePage.obj
 0001:0002e4b3       ??_EClientEdge@SECDockBar@@UAEPAXI@Z 0042f4b3 f i AppliConfTitlePage.obj
 0001:0002e4b3       ??_GColoring@@UAEPAXI@Z    0042f4b3 f i AppliConfTitlePage.obj
 0001:0002e4b3       ??_GAct@@UAEPAXI@Z         0042f4b3 f i AppliConfTitlePage.obj
 0001:0002e4b3       ??_GSDOMException@@UAEPAXI@Z 0042f4b3 f i AppliConfTitlePage.obj
 0001:0002e4b3       ??_GSplitter@SECDockBar@@UAEPAXI@Z 0042f4b3 f i AppliConfTitlePage.obj
 0001:0002e4b3       ??_ESECControlBarInfoEx@@UAEPAXI@Z 0042f4b3 f i AppliConfTitlePage.obj
 0001:0002e4b3       ??_GSECControlBarInfoEx@@UAEPAXI@Z 0042f4b3 f i AppliConfTitlePage.obj
 0001:0002e4b3       ??_EColoring@@UAEPAXI@Z    0042f4b3 f i AppliConfTitlePage.obj
 0001:0002e4b3       ??_ESplitter@SECDockBar@@UAEPAXI@Z 0042f4b3 f i AppliConfTitlePage.obj
 0001:0002e4b3       ??_GClientEdge@SECDockBar@@UAEPAXI@Z 0042f4b3 f i AppliConfTitlePage.obj
 0001:0002e4b3       ??_ESDOMException@@UAEPAXI@Z 0042f4b3 f i AppliConfTitlePage.obj
 0001:0002e4b3       ??_GCSimpleException@@UAEPAXI@Z 0042f4b3 f i AppliConfTitlePage.obj
 0001:0002e4b3       ??_EAct@@UAEPAXI@Z         0042f4b3 f i AppliConfTitlePage.obj
 0001:0002e4cf       ??_ECFileException@@UAEPAXI@Z 0042f4cf f i AppliConfTitlePage.obj
 0001:0002e4cf       ??_GCFileException@@UAEPAXI@Z 0042f4cf f i AppliConfTitlePage.obj
 0001:0002e4eb       ??1CFileException@@UAE@XZ  0042f4eb f i AppliConfTitlePage.obj
 0001:0002e521       ??1UploadingDlg@@UAE@XZ    0042f521 f i AppliConfTitlePage.obj
 0001:0002e521       ??1CColorDialog@@UAE@XZ    0042f521 f i AppliConfTitlePage.obj
 0001:0002e521       ??1CCommonDialog@@UAE@XZ   0042f521 f i AppliConfTitlePage.obj
 0001:0002e526       ??0AppliConfTypePage@@QAE@PAVAppliConf@@@Z 0042f526 f   AppliConfTypePage.obj
 0001:0002e608       ??_EAppliConfTypePage@@UAEPAXI@Z 0042f608 f i AppliConfTypePage.obj
 0001:0002e608       ??_GAppliConfTypePage@@UAEPAXI@Z 0042f608 f i AppliConfTypePage.obj
 0001:0002e624       ?AddType@AppliConfTypePage@@IAEXPBDI@Z 0042f624 f   AppliConfTypePage.obj
 0001:0002e6af       ??1AppliConfTypePage@@UAE@XZ 0042f6af f   AppliConfTypePage.obj
 0001:0002e70e       ?DoDataExchange@AppliConfTypePage@@MAEXPAVCDataExchange@@@Z 0042f70e f   AppliConfTypePage.obj
 0001:0002e751       ?GetMessageMap@AppliConfTypePage@@MBEPBUAFX_MSGMAP@@XZ 0042f751 f   AppliConfTypePage.obj
 0001:0002e757       ?GetMessageMap@AppliConfWizDonePage@@MBEPBUAFX_MSGMAP@@XZ 0042f757 f   AppliConfWizDonePage.obj
 0001:0002e75d       ??0AppliConfWizDonePage@@QAE@XZ 0042f75d f   AppliConfWizDonePage.obj
 0001:0002e779       ??_EAppliConfWizDonePage@@UAEPAXI@Z 0042f779 f i AppliConfWizDonePage.obj
 0001:0002e779       ??_GAppliConfWizDonePage@@UAEPAXI@Z 0042f779 f i AppliConfWizDonePage.obj
 0001:0002e795       ??1AppliConfWizDonePage@@UAE@XZ 0042f795 f   AppliConfWizDonePage.obj
 0001:0002e7a0       ?OnSetActive@AppliConfWizDonePage@@MAEHXZ 0042f7a0 f   AppliConfWizDonePage.obj
 0001:0002e7c5       ?OnKillActive@AppliConfWizDonePage@@MAEHXZ 0042f7c5 f   AppliConfWizDonePage.obj
 0001:0002e7c5       ?OnKillActive@AppliConfWizHomePage@@MAEHXZ 0042f7c5 f   AppliConfWizDonePage.obj
 0001:0002e7ea       ??0AppliConfWizHomePage@@QAE@XZ 0042f7ea f   AppliConfWizHomePage.obj
 0001:0002e82f       ??_GAppliConfWizHomePage@@UAEPAXI@Z 0042f82f f i AppliConfWizHomePage.obj
 0001:0002e82f       ??_EAppliConfWizHomePage@@UAEPAXI@Z 0042f82f f i AppliConfWizHomePage.obj
 0001:0002e84b       ??1AppliConfWizHomePage@@UAE@XZ 0042f84b f   AppliConfWizHomePage.obj
 0001:0002e889       ?DoDataExchange@AppliConfWizHomePage@@MAEXPAVCDataExchange@@@Z 0042f889 f   AppliConfWizHomePage.obj
 0001:0002e8a1       ?GetMessageMap@AppliConfWizHomePage@@MBEPBUAFX_MSGMAP@@XZ 0042f8a1 f   AppliConfWizHomePage.obj
 0001:0002e8a7       ?OnSetActive@AppliConfWizHomePage@@MAEHXZ 0042f8a7 f   AppliConfWizHomePage.obj
 0001:0002e8cc       ?CreateObject@BuildOutputDlg@@SGPAVCObject@@XZ 0042f8cc f   BuildOutputDlg.obj
 0001:0002e901       ?GetRuntimeClass@BuildOutputDlg@@UBEPAUCRuntimeClass@@XZ 0042f901 f   BuildOutputDlg.obj
 0001:0002e907       ?GetMessageMap@BuildOutputDlg@@MBEPBUAFX_MSGMAP@@XZ 0042f907 f   BuildOutputDlg.obj
 0001:0002e90d       ??0BuildOutputDlg@@QAE@XZ  0042f90d f   BuildOutputDlg.obj
 0001:0002e97c       ??_EBuildOutputDlg@@UAEPAXI@Z 0042f97c f i BuildOutputDlg.obj
 0001:0002e97c       ??_GBuildOutputDlg@@UAEPAXI@Z 0042f97c f i BuildOutputDlg.obj
 0001:0002e998       ??1BuildOutputDlg@@UAE@XZ  0042f998 f   BuildOutputDlg.obj
 0001:0002e9ec       ?DoDataExchange@BuildOutputDlg@@MAEXPAVCDataExchange@@@Z 0042f9ec f   BuildOutputDlg.obj
 0001:0002ea01       ?OnInitDialog@BuildOutputDlg@@MAEHXZ 0042fa01 f   BuildOutputDlg.obj
 0001:0002ea51       ?InsertColumn@@YAXAAVCListCtrl@@HIHH@Z 0042fa51 f   BuildOutputDlg.obj
 0001:0002eaa6       ?SetupList@BuildOutputDlg@@IAEXXZ 0042faa6 f   BuildOutputDlg.obj
 0001:0002eb39       ?OnDocumentActivated@BuildOutputDlg@@MAEXPAVCDocument@@@Z 0042fb39 f   BuildOutputDlg.obj
 0001:0002eb6e       ?OnNotify@BuildOutputDlg@@MAEXKPAVCDocument@@JPAX@Z 0042fb6e f   BuildOutputDlg.obj
 0001:0002ed2f       ?SortListCallback@BuildOutputDlg@@KGHJJJ@Z 0042fd2f f   BuildOutputDlg.obj
 0001:0002ed4c       ?Compare@@YAHHH@Z          0042fd4c f   BuildOutputDlg.obj
 0001:0002ed5b       ?OnSortList@BuildOutputDlg@@IAEHHH@Z 0042fd5b f   BuildOutputDlg.obj
 0001:0002edc1       ?OnSize@BuildOutputDlg@@IAEXIHH@Z 0042fdc1 f   BuildOutputDlg.obj
 0001:0002edf0       ?OnColumnclickOutput@BuildOutputDlg@@IAEXPAUtagNMHDR@@PAJ@Z 0042fdf0 f   BuildOutputDlg.obj
 0001:0002ee1e       ??_EBuildOutputDlg@@WGA@AEPAXI@Z 0042fe1e f i BuildOutputDlg.obj
 0001:0002ef16       ?GetMessageMap@EmuPlayDlg@@MBEPBUAFX_MSGMAP@@XZ 0042ff16 f   EmuPlayDlg.obj
 0001:0002ef1c       ??0EmuPlayDlg@@QAE@PBDPAVBuilder@@H@Z 0042ff1c f   EmuPlayDlg.obj
 0001:0002efc5       ??_GEmuPlayDlg@@UAEPAXI@Z  0042ffc5 f i EmuPlayDlg.obj
 0001:0002efc5       ??_EEmuPlayDlg@@UAEPAXI@Z  0042ffc5 f i EmuPlayDlg.obj
 0001:0002efe1       ??1EmuPlayDlg@@UAE@XZ      0042ffe1 f i EmuPlayDlg.obj
 0001:0002f068       ?DoDataExchange@EmuPlayDlg@@MAEXPAVCDataExchange@@@Z 00430068 f   EmuPlayDlg.obj
 0001:0002f0a6       ?OnCancel@EmuPlayDlg@@MAEXXZ 004300a6 f   EmuPlayDlg.obj
 0001:0002f0c5       ?IsRunning@EmuPlayDlg@@IBEHXZ 004300c5 f   EmuPlayDlg.obj
 0001:0002f0d0       ?OnOutput@EmuPlayDlg@@MAEXPBD@Z 004300d0 f   EmuPlayDlg.obj
 0001:0002f10b       ?OnEmuTerm@EmuPlayDlg@@IAEXXZ 0043010b f   EmuPlayDlg.obj
 0001:0002f113       ?OnTerm@EmuPlayDlg@@MAEXH@Z 00430113 f   EmuPlayDlg.obj
 0001:0002f149       ?OnBrowse@EmuPlayDlg@@IAEXXZ 00430149 f   EmuPlayDlg.obj
 0001:0002f179       ?OnDetect@EmuPlayDlg@@IAEXXZ 00430179 f   EmuPlayDlg.obj
 0001:0002f1b9       ?OnCtlColor@EmuPlayDlg@@IAEPAUHBRUSH__@@PAVCDC@@PAVCWnd@@I@Z 004301b9 f   EmuPlayDlg.obj
 0001:0002f1ef       ?OnClear@EmuPlayDlg@@IAEXXZ 004301ef f   EmuPlayDlg.obj
 0001:0002f206       ?OnRun@EmuPlayDlg@@IAEXXZ  00430206 f   EmuPlayDlg.obj
 0001:0002f228       ?UpdateCtrlEx@EmuPlayDlg@@IAEXH@Z 00430228 f   EmuPlayDlg.obj
 0001:0002f2bf       ?OnInitDialog@EmuPlayDlg@@MAEHXZ 004302bf f   EmuPlayDlg.obj
 0001:0002f2bf       ?OnInitDialog@AppliConfTypePage@@MAEHXZ 004302bf f   EmuPlayDlg.obj
 0001:0002f2d5       ?GetJavaPath@@YA?AVCString@@XZ 004302d5 f   EmuPlayDlg.obj
 0001:0002f421       ?Run@EmuPlayDlg@@IAEXXZ    00430421 f   EmuPlayDlg.obj
 0001:0002f5fa       ??1DOS_EXEC_PARAM@@QAE@XZ  004305fa f i EmuPlayDlg.obj
 0001:0002f630       ??_GCEdit@@UAEPAXI@Z       00430630 f i EmuPlayDlg.obj
 0001:0002f630       ??_ECEdit@@UAEPAXI@Z       00430630 f i EmuPlayDlg.obj
 0001:0002f64c       ?GetMessageMap@UploadDlg@@MBEPBUAFX_MSGMAP@@XZ 0043064c f   UploadDlg.obj
 0001:0002f652       ??0UploadDlg@@QAE@PAVCWnd@@@Z 00430652 f   UploadDlg.obj
 0001:0002f693       ??_GUploadDlg@@UAEPAXI@Z   00430693 f i UploadDlg.obj
 0001:0002f693       ??_EUploadDlg@@UAEPAXI@Z   00430693 f i UploadDlg.obj
 0001:0002f6af       ??0SpicydogPref@@QAE@XZ    004306af f i UploadDlg.obj
 0001:0002f710       ??1UploadDlg@@UAE@XZ       00430710 f i UploadDlg.obj
 0001:0002f745       ??1SpicydogPref@@QAE@XZ    00430745 f i UploadDlg.obj
 0001:0002f7ad       ?OnOK@UploadDlg@@EAEXXZ    004307ad f   UploadDlg.obj
 0001:0002f7d2       ??4SpicydogPref@@QAEAAV0@ABV0@@Z 004307d2 f i UploadDlg.obj
 0001:0002f859       ?OnInitDialog@UploadDlg@@EAEHXZ 00430859 f   UploadDlg.obj
 0001:0002f889       ?DoDataExchange@UploadDlg@@EAEXPAVCDataExchange@@@Z 00430889 f   UploadDlg.obj
 0001:0002f93c       ?UpdateControls@UploadDlg@@AAEXXZ 0043093c f   UploadDlg.obj
 0001:0002f98d       ?OnChanged@UploadDlg@@AAEXXZ 0043098d f   UploadDlg.obj
 0001:0002f992       ?GetMessageMap@UploadedDlg@@MBEPBUAFX_MSGMAP@@XZ 00430992 f   UploadedDlg.obj
 0001:0002f998       ??0UploadedDlg@@QAE@PBD@Z  00430998 f   UploadedDlg.obj
 0001:0002f9f8       ??_EUploadedDlg@@UAEPAXI@Z 004309f8 f i UploadedDlg.obj
 0001:0002f9f8       ??_GUploadedDlg@@UAEPAXI@Z 004309f8 f i UploadedDlg.obj
 0001:0002fa14       ??1UploadedDlg@@UAE@XZ     00430a14 f i UploadedDlg.obj
 0001:0002fa6c       ?OnInitDialog@UploadedDlg@@EAEHXZ 00430a6c f   UploadedDlg.obj
 0001:0002fa8e       ?OnSetClipboard@UploadedDlg@@AAEXXZ 00430a8e f   UploadedDlg.obj
 0001:0002faa6       ?OnCtlColor@UploadedDlg@@AAEPAUHBRUSH__@@PAVCDC@@PAVCWnd@@I@Z 00430aa6 f   UploadedDlg.obj
 0001:0002fadc       ?GetMessageMap@UploadingDlg@@MBEPBUAFX_MSGMAP@@XZ 00430adc f   UploadingDlg.obj
 0001:0002fae2       ??0UploadingDlg@@QAE@XZ    00430ae2 f   UploadingDlg.obj
 0001:0002faf4       ??_GUploadingDlg@@UAEPAXI@Z 00430af4 f i UploadingDlg.obj
 0001:0002faf4       ??_EUploadingDlg@@UAEPAXI@Z 00430af4 f i UploadingDlg.obj
 0001:0002fb10       ?Create@UploadingDlg@@QAEXXZ 00430b10 f   UploadingDlg.obj
 0001:0002fb48       ?SetProgress@UploadingDlg@@QAEXI@Z 00430b48 f   UploadingDlg.obj
 0001:0002fb99       ?GetMessageMap@ViewADFDlg@@MBEPBUAFX_MSGMAP@@XZ 00430b99 f   ViewADFDlg.obj
 0001:0002fb9f       ??0ViewADFDlg@@QAE@PAVCWnd@@@Z 00430b9f f   ViewADFDlg.obj
 0001:0002fc0e       ??_GViewADFDlg@@UAEPAXI@Z  00430c0e f i ViewADFDlg.obj
 0001:0002fc0e       ??_EViewADFDlg@@UAEPAXI@Z  00430c0e f i ViewADFDlg.obj
 0001:0002fc2a       ??1ViewADFDlg@@UAE@XZ      00430c2a f i ViewADFDlg.obj
 0001:0002fc91       ?DoDataExchange@ViewADFDlg@@MAEXPAVCDataExchange@@@Z 00430c91 f   ViewADFDlg.obj
 0001:0002fca6       ?OnSize@ViewADFDlg@@IAEXIHH@Z 00430ca6 f   ViewADFDlg.obj
 0001:0002fcd2       ?OnCtlColor@ViewADFDlg@@IAEPAUHBRUSH__@@PAVCDC@@PAVCWnd@@I@Z 00430cd2 f   ViewADFDlg.obj
 0001:0002fcdf       ?OnInitDialog@ViewADFDlg@@MAEHXZ 00430cdf f   ViewADFDlg.obj
 0001:0002fd20       ?GetMessageMap@BtnCharMailEventDlg@@MBEPBUAFX_MSGMAP@@XZ 00430d20 f   BtnCharMailEventDlg.obj
 0001:0002fd26       ??0BtnCharMailEventDlg@@QAE@PBVJphoneMailEvent@@@Z 00430d26 f   BtnCharMailEventDlg.obj
 0001:0002fd6f       ??_GBtnCharMailEventDlg@@UAEPAXI@Z 00430d6f f i BtnCharMailEventDlg.obj
 0001:0002fd6f       ??_EBtnCharMailEventDlg@@UAEPAXI@Z 00430d6f f i BtnCharMailEventDlg.obj
 0001:0002fd8b       ??1BtnCharMailEventDlg@@UAE@XZ 00430d8b f   BtnCharMailEventDlg.obj
 0001:0002fd96       ?DoDataExchange@BtnCharMailEventDlg@@EAEXPAVCDataExchange@@@Z 00430d96 f   BtnCharMailEventDlg.obj
 0001:0002fe0f       ??_9@$BMM@AE               00430e0f f i BtnCharMailEventDlg.obj
 0001:0002fe17       ?GetMessageMap@BtnCharScheduleEventDlg@@MBEPBUAFX_MSGMAP@@XZ 00430e17 f   BtnCharScheduleEventDlg.obj
 0001:0002fe1d       ??0BtnCharScheduleEventDlg@@QAE@PBVJphoneScheduleEvent@@@Z 00430e1d f   BtnCharScheduleEventDlg.obj
 0001:0002fe8a       ??_EBtnCharScheduleEventDlg@@UAEPAXI@Z 00430e8a f i BtnCharScheduleEventDlg.obj
 0001:0002fe8a       ??_GBtnCharScheduleEventDlg@@UAEPAXI@Z 00430e8a f i BtnCharScheduleEventDlg.obj
 0001:0002fea6       ??1BtnCharScheduleEventDlg@@UAE@XZ 00430ea6 f   BtnCharScheduleEventDlg.obj
 0001:0002fee1       ?DoDataExchange@BtnCharScheduleEventDlg@@EAEXPAVCDataExchange@@@Z 00430ee1 f   BtnCharScheduleEventDlg.obj
 0001:0002ff2d       ?OnInitDialog@BtnCharScheduleEventDlg@@EAEHXZ 00430f2d f   BtnCharScheduleEventDlg.obj
 0001:0002ff4a       ?GetMessageMap@BtnCharTelEventDlg@@MBEPBUAFX_MSGMAP@@XZ 00430f4a f   BtnCharTelEventDlg.obj
 0001:0002ff50       ??0BtnCharTelEventDlg@@QAE@PBVJphoneTelEvent@@@Z 00430f50 f   BtnCharTelEventDlg.obj
 0001:0002ffbd       ??_GBtnCharTelEventDlg@@UAEPAXI@Z 00430fbd f i BtnCharTelEventDlg.obj
 0001:0002ffbd       ??_EBtnCharTelEventDlg@@UAEPAXI@Z 00430fbd f i BtnCharTelEventDlg.obj
 0001:0002ffd9       ??1BtnCharTelEventDlg@@UAE@XZ 00430fd9 f   BtnCharTelEventDlg.obj
 0001:00030014       ?DoDataExchange@BtnCharTelEventDlg@@EAEXPAVCDataExchange@@@Z 00431014 f   BtnCharTelEventDlg.obj
 0001:00030060       ?OnInitDialog@BtnCharTelEventDlg@@EAEHXZ 00431060 f   BtnCharTelEventDlg.obj
 0001:00030074       ?OnChanged@BtnCharScheduleEventDlg@@AAEXXZ 00431074 f   BtnCharTelEventDlg.obj
 0001:00030074       ?OnChanged@BtnCharTelEventDlg@@AAEXXZ 00431074 f   BtnCharTelEventDlg.obj
 0001:00030079       ?UpdateControls@BtnCharScheduleEventDlg@@AAEXXZ 00431079 f   BtnCharTelEventDlg.obj
 0001:00030079       ?UpdateControls@BtnCharTelEventDlg@@AAEXXZ 00431079 f   BtnCharTelEventDlg.obj
 0001:00030239       ?GetMessageMap@CharListDlg@@MBEPBUAFX_MSGMAP@@XZ 00431239 f   CharListDlg.obj
 0001:0003023f       ?CreateObject@CharListDlg@@SGPAVCObject@@XZ 0043123f f   CharListDlg.obj
 0001:00030274       ?GetRuntimeClass@CharListDlg@@UBEPAUCRuntimeClass@@XZ 00431274 f   CharListDlg.obj
 0001:0003027a       ??0CharListDlg@@QAE@XZ     0043127a f   CharListDlg.obj
 0001:00030352       ??_ECharListDlg@@UAEPAXI@Z 00431352 f i CharListDlg.obj
 0001:00030352       ??_GCharListDlg@@UAEPAXI@Z 00431352 f i CharListDlg.obj
 0001:0003036e       ??1CharListDlg@@UAE@XZ     0043136e f   CharListDlg.obj
 0001:00030448       ?DoDataExchange@CharListDlg@@EAEXPAVCDataExchange@@@Z 00431448 f   CharListDlg.obj
 0001:000304a0       ?OnInitDialog@CharListDlg@@EAEHXZ 004314a0 f   CharListDlg.obj
 0001:000304f6       ?SetupResources@CharListDlg@@AAEXXZ 004314f6 f   CharListDlg.obj
 0001:00030578       ?InsertColumnToListCtrl@@YAXAAVCListCtrl@@HIHH@Z 00431578 f   CharListDlg.obj
 0001:000305c3       ?SetupListListCtrl@CharListDlg@@AAEXXZ 004315c3 f   CharListDlg.obj
 0001:00030680       ?SetupPreviewListCtrl@CharListDlg@@AAEXXZ 00431680 f   CharListDlg.obj
 0001:000306c9       ?SetupPreviewStatic@CharListDlg@@AAEXXZ 004316c9 f   CharListDlg.obj
 0001:000306e1       ?OnSplitVMove@CharListDlg@@AAEXXZ 004316e1 f   CharListDlg.obj
 0001:000306f2       ?AdjustSize@CharListDlg@@AAEXXZ 004316f2 f   CharListDlg.obj
 0001:000307fa       ?ListCtrllUnselectAll@@YAXAAVCListCtrl@@@Z 004317fa f   CharListDlg.obj
 0001:0003082b       ?ListCtrlSelectOne@@YAXAAVCListCtrl@@H@Z 0043182b f   CharListDlg.obj
 0001:00030844       ?ListCtrlGetSingleSelection@@YAHABVCListCtrl@@@Z 00431844 f   CharListDlg.obj
 0001:0003086a       ?SwitchActiveListCtrl@@YAXAAVCListCtrl@@0@Z 0043186a f   CharListDlg.obj
 0001:0003089f       ?SwitchViewMode@CharListDlg@@AAEXW4VIEW_MODE@1@H@Z 0043189f f   CharListDlg.obj
 0001:000308f6       ?InvalidateView@CharListDlg@@AAEXXZ 004318f6 f   CharListDlg.obj
 0001:00030946       ?OnSize@CharListDlg@@AAEXIHH@Z 00431946 f   CharListDlg.obj
 0001:00030960       ?EnableWindowEx@@YAXPAVCWnd@@H@Z 00431960 f   CharListDlg.obj
 0001:00030990       ?OnDocumentActivated@CharListDlg@@EAEXPAVCDocument@@@Z 00431990 f   CharListDlg.obj
 0001:00030a3a       ?OnDocumentUpdated@CharListDlg@@EAEXPAVCDocument@@JPAVCObject@@@Z 00431a3a f   CharListDlg.obj
 0001:00030aa0       ?UpdateList@@YAXAAVCListCtrl@@@Z 00431aa0 f   CharListDlg.obj
 0001:00030ad9       ?OnNotify@CharListDlg@@EAEXKPAVCDocument@@JPAX@Z 00431ad9 f   CharListDlg.obj
 0001:00030b01       ?OnPSPaint@CharListDlg@@EAEXAAVPreviewStatic@@@Z 00431b01 f   CharListDlg.obj
 0001:00030bda       ?GetActiveList@CharListDlg@@ABEABVCListCtrl@@XZ 00431bda f   CharListDlg.obj
 0001:00030bea       ?GetSelectedChars@CharListDlg@@AAEHAAV?$list@PAVChar@@V?$allocator@PAVChar@@@std@@@std@@@Z 00431bea f   CharListDlg.obj
 0001:00030c4c       ?GetSingleSelection@CharListDlg@@ABEHXZ 00431c4c f   CharListDlg.obj
 0001:00030c59       ?IsSingleSelected@CharListDlg@@ABEHXZ 00431c59 f   CharListDlg.obj
 0001:00030c77       ?IsSelected@CharListDlg@@ABEHXZ 00431c77 f   CharListDlg.obj
 0001:00030c97       ?InvalidatePreview@CharListDlg@@AAEXXZ 00431c97 f   CharListDlg.obj
 0001:00030cb4       ?OnInsCharMenu@CharListDlg@@AAEXXZ 00431cb4 f   CharListDlg.obj
 0001:00030d19       ?GetAppliFrameWnd@CharListDlg@@AAEPAVAppliFrameWnd@@XZ 00431d19 f   CharListDlg.obj
 0001:00030d33       ?InsChar@CharListDlg@@AAEHPAVChar@@@Z 00431d33 f   CharListDlg.obj
 0001:00030e10       ?ModChar@CharListDlg@@AAEXH@Z 00431e10 f   CharListDlg.obj
 0001:00030e3e       ?OnClickCharList@CharListDlg@@AAEXPAUtagNMHDR@@PAJ@Z 00431e3e f   CharListDlg.obj
 0001:00030e78       ?OnDblclkCharList@CharListDlg@@AAEXPAUtagNMHDR@@PAJ@Z 00431e78 f   CharListDlg.obj
 0001:00030eb4       ?OnRclickCharList@CharListDlg@@AAEXPAUtagNMHDR@@PAJ@Z 00431eb4 f   CharListDlg.obj
 0001:00030eed       ?OnReturnCharList@CharListDlg@@AAEXPAUtagNMHDR@@PAJ@Z 00431eed f   CharListDlg.obj
 0001:00030f1e       ?OnSelChanged@CharListDlg@@AAEXPAUtagNMHDR@@PAJ@Z 00431f1e f   CharListDlg.obj
 0001:00030f47       ?OnInsEmptyPictChar@CharListDlg@@AAEXXZ 00431f47 f   CharListDlg.obj
 0001:00031032       ??1NewEmptyPictCharDlg@@UAE@XZ 00432032 f i CharListDlg.obj
 0001:00031079       ?OnInsPictChar@CharListDlg@@AAEXXZ 00432079 f   CharListDlg.obj
 0001:00031200       ??1ImportPictCharDlg@@UAE@XZ 00432200 f i CharListDlg.obj
 0001:0003124a       ?OnInsTextChar@CharListDlg@@AAEXXZ 0043224a f   CharListDlg.obj
 0001:0003130f       ?OnInsBtnChar@CharListDlg@@AAEXXZ 0043230f f   CharListDlg.obj
 0001:000313a2       ?OnInsSndChar@CharListDlg@@AAEXXZ 004323a2 f   CharListDlg.obj
 0001:0003156c       ?OnRenameChar@CharListDlg@@AAEXXZ 0043256c f   CharListDlg.obj
 0001:0003169f       ??1RenCharName@@UAE@XZ     0043269f f i CharListDlg.obj
 0001:000316d4       ?OnEditChar@CharListDlg@@AAEXXZ 004326d4 f   CharListDlg.obj
 0001:00031707       ?OnAttachChar@CharListDlg@@AAEXXZ 00432707 f   CharListDlg.obj
 0001:00031856       ?OnUpdateAttachChar@CharListDlg@@AAEXPAVCCmdUI@@@Z 00432856 f   CharListDlg.obj
 0001:0003186d       ?CanAttachChar@CharListDlg@@AAEHXZ 0043286d f   CharListDlg.obj
 0001:000318c1       ?OnUpdateRequireSingleSelected@CharListDlg@@AAEXPAVCCmdUI@@@Z 004328c1 f   CharListDlg.obj
 0001:000318d8       ?OnUpdateRequireSelected@CharListDlg@@AAEXPAVCCmdUI@@@Z 004328d8 f   CharListDlg.obj
 0001:000318ef       ?OnDupChar@CharListDlg@@AAEXXZ 004328ef f   CharListDlg.obj
 0001:000319e5       ?OnEditClear@CharListDlg@@AAEXXZ 004329e5 f   CharListDlg.obj
 0001:00031a6f       ?OnEditCut@CharListDlg@@AAEXXZ 00432a6f f   CharListDlg.obj
 0001:00031b00       ?OnEditCopy@CharListDlg@@AAEXXZ 00432b00 f   CharListDlg.obj
 0001:00031b9c       ?OnEditPaste@CharListDlg@@AAEXXZ 00432b9c f   CharListDlg.obj
 0001:00031c04       ?OnUpdateEditPaste@CharListDlg@@AAEXPAVCCmdUI@@@Z 00432c04 f   CharListDlg.obj
 0001:00031c78       ?OnMeasureItem@CharListDlg@@AAEXHPAUtagMEASUREITEMSTRUCT@@@Z 00432c78 f   CharListDlg.obj
 0001:00031c86       ?OnDrawItem@CharListDlg@@AAEXHPAUtagDRAWITEMSTRUCT@@@Z 00432c86 f   CharListDlg.obj
 0001:00031f8c       ?OnPreviewView@CharListDlg@@AAEXXZ 00432f8c f   CharListDlg.obj
 0001:00031f96       ?OnListView@CharListDlg@@AAEXXZ 00432f96 f   CharListDlg.obj
 0001:00031fa0       ?OnUpdateView@CharListDlg@@AAEXPAVCCmdUI@@@Z 00432fa0 f   CharListDlg.obj
 0001:00031fdc       ?OnGetCharInfo@CharListDlg@@AAEXPAUtagNMHDR@@PAJ@Z 00432fdc f   CharListDlg.obj
 0001:0003215e       ?GetRuntimeClass@RenCharName@@UBEPAUCRuntimeClass@@XZ 0043315e f   CharListDlg.obj
 0001:00032164       ?GetMessageMap@RenCharName@@MBEPBUAFX_MSGMAP@@XZ 00433164 f   CharListDlg.obj
 0001:0003216a       ??0RenCharName@@QAE@PBDPAVCWnd@@@Z 0043316a f   CharListDlg.obj
 0001:000321bd       ??_GRenCharName@@UAEPAXI@Z 004331bd f i CharListDlg.obj
 0001:000321bd       ??_ERenCharName@@UAEPAXI@Z 004331bd f i CharListDlg.obj
 0001:000321d9       ?GetNewName@RenCharName@@QBE?AVCString@@XZ 004331d9 f   CharListDlg.obj
 0001:000321f4       ?DoDataExchange@RenCharName@@MAEXPAVCDataExchange@@@Z 004331f4 f   CharListDlg.obj
 0001:00032225       ?AcceptOle@CharListDlg@@AAEHPAVCOleDataObject@@HKVCPoint@@@Z 00433225 f   CharListDlg.obj
 0001:00032268       ?SubmitOle@CharListDlg@@AAEHPAVCOleDataSource@@H@Z 00433268 f   CharListDlg.obj
 0001:0003230b       ??1?$CArray@DAAD@@UAE@XZ   0043330b f i CharListDlg.obj
 0001:0003232a       ?Serialize@?$CArray@DAAD@@UAEXAAVCArchive@@@Z 0043332a f i CharListDlg.obj
 0001:0003237d       ??_E?$CArray@DAAD@@UAEPAXI@Z 0043337d f i CharListDlg.obj
 0001:0003237d       ??_G?$CArray@DAAD@@UAEPAXI@Z 0043337d f i CharListDlg.obj
 0001:00032399       ?SetSize@?$CArray@DAAD@@QAEXHH@Z 00433399 f i CharListDlg.obj
 0001:00032490       ??_ECharListDlg@@WGA@AEPAXI@Z 00433490 f i CharListDlg.obj
 0001:00032498       ??1COleDataObject@@QAE@XZ  00433498 f i CharListDlg.obj
 0001:00032630       ?GetMessageMap@EditPictQuantizeDlg@@MBEPBUAFX_MSGMAP@@XZ 00433630 f   EditPictQuantizeDlg.obj
 0001:00032636       ??0EditPictQuantizeDlg@@QAE@PAVPictChar@@@Z 00433636 f   EditPictQuantizeDlg.obj
 0001:000327b2       ??_GEditPictQuantizeDlg@@UAEPAXI@Z 004337b2 f i EditPictQuantizeDlg.obj
 0001:000327b2       ??_EEditPictQuantizeDlg@@UAEPAXI@Z 004337b2 f i EditPictQuantizeDlg.obj
 0001:000327ce       ??1EditPictQuantizeDlg@@UAE@XZ 004337ce f   EditPictQuantizeDlg.obj
 0001:000328de       ?DoDataExchange@EditPictQuantizeDlg@@EAEXPAVCDataExchange@@@Z 004338de f   EditPictQuantizeDlg.obj
 0001:00032973       ?GetQuantizeParam@EditPictQuantizeDlg@@QBEABVPictQuantizeParam@@XZ 00433973 f   EditPictQuantizeDlg.obj
 0001:0003297a       ?OnInitDialog@EditPictQuantizeDlg@@EAEHXZ 0043397a f   EditPictQuantizeDlg.obj
 0001:000329c9       ?UpdateCtrls@EditPictQuantizeDlg@@AAEXXZ 004339c9 f   EditPictQuantizeDlg.obj
 0001:00032af0       ?DoOptimize@EditPictQuantizeDlg@@AAEXXZ 00433af0 f   EditPictQuantizeDlg.obj
 0001:00032b0e       ?GetValueFromComboBox@@YAHABVCComboBox@@HHH@Z 00433b0e f   EditPictQuantizeDlg.obj
 0001:00032b66       ?OnParamUpdated@EditPictQuantizeDlg@@AAEXXZ 00433b66 f   EditPictQuantizeDlg.obj
 0001:00032b82       ?SaveData@EditPictQuantizeDlg@@AAEHXZ 00433b82 f   EditPictQuantizeDlg.obj
 0001:00032cd3       ?OnBuildTypeChanged@EditPictQuantizeDlg@@AAEXXZ 00433cd3 f   EditPictQuantizeDlg.obj
 0001:00032cd3       ?OnClickDither@EditPictQuantizeDlg@@AAEXXZ 00433cd3 f   EditPictQuantizeDlg.obj
 0001:00032cd3       ?OnSelchangeActtype@EditPictQuantizeDlg@@AAEXXZ 00433cd3 f   EditPictQuantizeDlg.obj
 0001:00032cd3       ?OnTransparencyColor@EditPictQuantizeDlg@@AAEXXZ 00433cd3 f   EditPictQuantizeDlg.obj
 0001:00032cd3       ?OnTransparency@EditPictQuantizeDlg@@AAEXXZ 00433cd3 f   EditPictQuantizeDlg.obj
 0001:00032cd8       ?UpdateTextBySelChange@@YAHAAVCComboBox@@@Z 00433cd8 f   EditPictQuantizeDlg.obj
 0001:00032d7f       ?OnSelchangeColorbits@EditPictQuantizeDlg@@AAEXXZ 00433d7f f   EditPictQuantizeDlg.obj
 0001:00032d99       ?OnHScroll@EditPictQuantizeDlg@@AAEXIIPAVCScrollBar@@@Z 00433d99 f   EditPictQuantizeDlg.obj
 0001:00032da1       ?OnReset@EditPictQuantizeDlg@@AAEXXZ 00433da1 f   EditPictQuantizeDlg.obj
 0001:00032dc6       ?OnClrBoxDropdown@EditPictQuantizeDlg@@AAEJIJ@Z 00433dc6 f   EditPictQuantizeDlg.obj
 0001:00032e5d       ?CalcScale@@YANVCSize@@0@Z 00433e5d f   EditPictQuantizeDlg.obj
 0001:00032e7e       ?CalcRect@@YAXAAVCRect@@VCSize@@V1@@Z 00433e7e f   EditPictQuantizeDlg.obj
 0001:00032ef9       ?DrawPreview@EditPictQuantizeDlg@@AAEXPAVCDC@@@Z 00433ef9 f   EditPictQuantizeDlg.obj
 0001:00032fae       ?OnPSPaint@EditPictQuantizeDlg@@EAEXAAVPreviewStatic@@@Z 00433fae f   EditPictQuantizeDlg.obj
 0001:00033000       ?LoadData@EditPictQuantizeDlg@@AAEXXZ 00434000 f   EditPictQuantizeDlg.obj
 0001:000332b7       ??_GCScrollBar@@UAEPAXI@Z  004342b7 f i EditPictQuantizeDlg.obj
 0001:000332b7       ??_ECScrollBar@@UAEPAXI@Z  004342b7 f i EditPictQuantizeDlg.obj
 0001:000332d3       ??_ECSliderCtrl@@UAEPAXI@Z 004342d3 f i EditPictQuantizeDlg.obj
 0001:000332d3       ??_GCSliderCtrl@@UAEPAXI@Z 004342d3 f i EditPictQuantizeDlg.obj
 0001:000332ef       ?_GetBaseMessageMap@ImportPictCharDlg@@KGPBUAFX_MSGMAP@@XZ 004342ef f   ImportPictCharDlg.obj
 0001:000332f5       ?GetMessageMap@ImportPictCharDlg@@MBEPBUAFX_MSGMAP@@XZ 004342f5 f   ImportPictCharDlg.obj
 0001:000332fb       ??0ImportPictCharDlg@@QAE@PAVCWnd@@@Z 004342fb f   ImportPictCharDlg.obj
 0001:000333d8       ??_GImportPictCharDlg@@UAEPAXI@Z 004343d8 f i ImportPictCharDlg.obj
 0001:000333d8       ??_EImportPictCharDlg@@UAEPAXI@Z 004343d8 f i ImportPictCharDlg.obj
 0001:000333f4       ?DoDataExchange@ImportPictCharDlg@@MAEXPAVCDataExchange@@@Z 004343f4 f   ImportPictCharDlg.obj
 0001:0003340c       ?OnFileNameOK@ImportPictCharDlg@@MAEHXZ 0043440c f   ImportPictCharDlg.obj
 0001:00033419       ?GetMessageMap@NewEmptyPictCharDlg@@MBEPBUAFX_MSGMAP@@XZ 00434419 f   NewEmptyPictCharDlg.obj
 0001:0003341f       ??0NewEmptyPictCharDlg@@QAE@PAVCWnd@@@Z 0043441f f   NewEmptyPictCharDlg.obj
 0001:0003348f       ??_GNewEmptyPictCharDlg@@UAEPAXI@Z 0043448f f i NewEmptyPictCharDlg.obj
 0001:0003348f       ??_ENewEmptyPictCharDlg@@UAEPAXI@Z 0043448f f i NewEmptyPictCharDlg.obj
 0001:000334ab       ?DoDataExchange@NewEmptyPictCharDlg@@MAEXPAVCDataExchange@@@Z 004344ab f   NewEmptyPictCharDlg.obj
 0001:00033517       ?OnInitDialog@NewEmptyPictCharDlg@@MAEHXZ 00434517 f   NewEmptyPictCharDlg.obj
 0001:00033552       ?GetNewSize@PictResizeDlg@@QBE?AVCSize@@XZ 00434552 f   NewEmptyPictCharDlg.obj
 0001:00033552       ?GetSize@NewEmptyPictCharDlg@@QBE?AVCSize@@XZ 00434552 f   NewEmptyPictCharDlg.obj
 0001:000336fd       ?GetMessageMap@PictEffectPictDlg@@MBEPBUAFX_MSGMAP@@XZ 004346fd f   PictEffectPictDlg.obj
 0001:00033703       ??0PictEffectPictDlg@@QAE@ABVLBitmapBase@@IIIHHHP6GHPAUstruct_LEAD_Bitmap@@H@ZPAVCWnd@@@Z 00434703 f   PictEffectPictDlg.obj
 0001:00033836       ??_GPictEffectPictDlg@@UAEPAXI@Z 00434836 f i PictEffectPictDlg.obj
 0001:00033836       ??_EPictEffectPictDlg@@UAEPAXI@Z 00434836 f i PictEffectPictDlg.obj
 0001:00033852       ??1PictEffectPictDlg@@UAE@XZ 00434852 f i PictEffectPictDlg.obj
 0001:000338e6       ?DoDataExchange@PictEffectPictDlg@@MAEXPAVCDataExchange@@@Z 004348e6 f   PictEffectPictDlg.obj
 0001:0003395c       ?OnHScroll@PictEffectPictDlg@@IAEXIIPAVCScrollBar@@@Z 0043495c f   PictEffectPictDlg.obj
 0001:0003399f       ?OnInitDialog@PictEffectPictDlg@@MAEHXZ 0043499f f   PictEffectPictDlg.obj
 0001:00033a17       ?UpdatePreview@PictEffectPictDlg@@IAEXXZ 00434a17 f   PictEffectPictDlg.obj
 0001:00033aa4       ?GetEffectParam@PictEffectPictDlg@@QBEHXZ 00434aa4 f   PictEffectPictDlg.obj
 0001:00033aab       ?OnPSPaint@PictEffectPictDlg@@MAEXAAVPreviewStatic@@@Z 00434aab f   PictEffectPictDlg.obj
 0001:00033d53       ??0PictResizeDlg@@QAE@ABVLBitmapBase@@PAVCWnd@@@Z 00434d53 f   PictResizeDlg.obj
 0001:00033e07       ??_GPictResizeDlg@@UAEPAXI@Z 00434e07 f i PictResizeDlg.obj
 0001:00033e07       ??_EPictResizeDlg@@UAEPAXI@Z 00434e07 f i PictResizeDlg.obj
 0001:00033e23       ??1PictResizeDlg@@UAE@XZ   00434e23 f i PictResizeDlg.obj
 0001:00033e6a       ?DoDataExchange@PictResizeDlg@@EAEXPAVCDataExchange@@@Z 00434e6a f   PictResizeDlg.obj
 0001:00033edb       ?UpdateCtrls@PictResizeDlg@@AAEXXZ 00434edb f   PictResizeDlg.obj
 0001:00033f67       ?GetMessageMap@PictResizeDlg@@MBEPBUAFX_MSGMAP@@XZ 00434f67 f   PictResizeDlg.obj
 0001:00033f6d       ?IsToKeepRatio@PictResizeDlg@@ABEHXZ 00434f6d f   PictResizeDlg.obj
 0001:00033f78       ?OnUpdateH@PictResizeDlg@@AAEXXZ 00434f78 f   PictResizeDlg.obj
 0001:00033f9b       ?OnUpdateW@PictResizeDlg@@AAEXXZ 00434f9b f   PictResizeDlg.obj
 0001:00033fc1       ?OnKeep@PictResizeDlg@@AAEXXZ 00434fc1 f   PictResizeDlg.obj
 0001:00033fdd       ?OnInitDialog@PictResizeDlg@@EAEHXZ 00434fdd f   PictResizeDlg.obj
 0001:00034034       ?KeepRatio@PictResizeDlg@@AAEXXZ 00435034 f   PictResizeDlg.obj
 0001:00034121       ?OnReset@PictResizeDlg@@AAEXXZ 00435121 f   PictResizeDlg.obj
 0001:000342df       ??0PictTrimDlg@@QAE@HHPAVCWnd@@@Z 004352df f   PictTrimDlg.obj
 0001:0003436f       ??_GPictTrimDlg@@UAEPAXI@Z 0043536f f i PictTrimDlg.obj
 0001:0003436f       ??_EPictTrimDlg@@UAEPAXI@Z 0043536f f i PictTrimDlg.obj
 0001:0003438b       ??1PictTrimDlg@@UAE@XZ     0043538b f i PictTrimDlg.obj
 0001:000343d2       ?UpdateCtrls@PictTrimDlg@@AAEXXZ 004353d2 f   PictTrimDlg.obj
 0001:0003445e       ?GetTrimParam@PictTrimDlg@@QBEXAAH00@Z 0043545e f   PictTrimDlg.obj
 0001:00034485       ?DoDataExchange@PictTrimDlg@@EAEXPAVCDataExchange@@@Z 00435485 f   PictTrimDlg.obj
 0001:00034509       ?GetMessageMap@PictTrimDlg@@MBEPBUAFX_MSGMAP@@XZ 00435509 f   PictTrimDlg.obj
 0001:0003450f       ?OnInitDialog@PictTrimDlg@@EAEHXZ 0043550f f   PictTrimDlg.obj
 0001:000345f1       ?SetButtonIcon@PictTrimDlg@@AAEXII@Z 004355f1 f   PictTrimDlg.obj
 0001:00034641       ?OnUpdate@PictTrimDlg@@AAEXXZ 00435641 f   PictTrimDlg.obj
 0001:00034646       ?OnReset@PictTrimDlg@@AAEXXZ 00435646 f   PictTrimDlg.obj
 0001:00034671       ?GetMessageMap@GridEditDlg@@MBEPBUAFX_MSGMAP@@XZ 00435671 f   GridEditDlg.obj
 0001:00034677       ??0GridEditDlg@@QAE@PAVCWnd@@@Z 00435677 f   GridEditDlg.obj
 0001:000346ef       ??_EGridEditDlg@@UAEPAXI@Z 004356ef f i GridEditDlg.obj
 0001:000346ef       ??_GGridEditDlg@@UAEPAXI@Z 004356ef f i GridEditDlg.obj
 0001:0003470b       ??1GridEditDlg@@UAE@XZ     0043570b f i GridEditDlg.obj
 0001:00034770       ?DoDataExchange@GridEditDlg@@MAEXPAVCDataExchange@@@Z 00435770 f   GridEditDlg.obj
 0001:000348f6       ?OnOK@GridEditDlg@@MAEXXZ  004358f6 f   GridEditDlg.obj
 0001:000348fb       ?OnInitDialog@GridEditDlg@@MAEHXZ 004358fb f   GridEditDlg.obj
 0001:00034920       ?GetMessageMap@PrefDlg@@MBEPBUAFX_MSGMAP@@XZ 00435920 f   PrefDlg.obj
 0001:00034926       ??0PrefDlg@@QAE@PBVSpicydogPref@@PAVCWnd@@@Z 00435926 f   PrefDlg.obj
 0001:00034ac8       ??_GPrefDlg@@UAEPAXI@Z     00435ac8 f i PrefDlg.obj
 0001:00034ac8       ??_EPrefDlg@@UAEPAXI@Z     00435ac8 f i PrefDlg.obj
 0001:00034ae4       ??1PrefDlg@@UAE@XZ         00435ae4 f   PrefDlg.obj
 0001:00034b52       ??1?$auto_ptr@VActionDlg@@@std@@QAE@XZ 00435b52 f i PrefDlg.obj
 0001:00034b52       ??1?$auto_ptr@VCHttpConnection@@@std@@QAE@XZ 00435b52 f i PrefDlg.obj
 0001:00034b52       ??1?$auto_ptr@VCHttpFile@@@std@@QAE@XZ 00435b52 f i PrefDlg.obj
 0001:00034b52       ??1?$auto_ptr@VCPropertyPage@@@std@@QAE@XZ 00435b52 f i PrefDlg.obj
 0001:00034b52       ??1?$auto_ptr@VSubStages@@@std@@QAE@XZ 00435b52 f i PrefDlg.obj
 0001:00034b52       ??1?$auto_ptr@VCharList@@@std@@QAE@XZ 00435b52 f i PrefDlg.obj
 0001:00034b52       ??1?$auto_ptr@VCharDialog@@@std@@QAE@XZ 00435b52 f i PrefDlg.obj
 0001:00034b52       ??1?$auto_ptr@VSECToolBarManager@@@std@@QAE@XZ 00435b52 f i PrefDlg.obj
 0001:00034b52       ??1?$auto_ptr@VAppliConf@@@std@@QAE@XZ 00435b52 f i PrefDlg.obj
 0001:00034b52       ??1?$auto_ptr@VCFont@@@std@@QAE@XZ 00435b52 f i PrefDlg.obj
 0001:00034b52       ??1?$auto_ptr@VAct@@@std@@QAE@XZ 00435b52 f i PrefDlg.obj
 0001:00034b52       ??1?$auto_ptr@VSMAFPlayer@@@std@@QAE@XZ 00435b52 f i PrefDlg.obj
 0001:00034b52       ??1?$auto_ptr@VCInternetSession@@@std@@QAE@XZ 00435b52 f i PrefDlg.obj
 0001:00034b52       ??1?$auto_ptr@VAppli@@@std@@QAE@XZ 00435b52 f i PrefDlg.obj
 0001:00034b52       ??1?$auto_ptr@VDialogSizingBar@@@std@@QAE@XZ 00435b52 f i PrefDlg.obj
 0001:00034b52       ??1?$auto_ptr@VCPropertyPageEx@@@std@@QAE@XZ 00435b52 f i PrefDlg.obj
 0001:00034b52       ??1?$auto_ptr@VSECMDIMenuBar@@@std@@QAE@XZ 00435b52 f i PrefDlg.obj
 0001:00034b52       ??1?$auto_ptr@VCnt@@@std@@QAE@XZ 00435b52 f i PrefDlg.obj
 0001:00034b66       ?GetMessageMap@PrefEmuPage@@MBEPBUAFX_MSGMAP@@XZ 00435b66 f   PrefEmuPage.obj
 0001:00034b6c       ??0PrefEmuPage@@QAE@PAVSpicydogPref@@@Z 00435b6c f   PrefEmuPage.obj
 0001:00034b91       ??_GPrefEmuPage@@UAEPAXI@Z 00435b91 f i PrefEmuPage.obj
 0001:00034b91       ??_EPrefEmuPage@@UAEPAXI@Z 00435b91 f i PrefEmuPage.obj
 0001:00034bad       ??1PrefEmuPage@@UAE@XZ     00435bad f   PrefEmuPage.obj
 0001:00034bb8       ?DoDataExchange@PrefEmuPage@@MAEXPAVCDataExchange@@@Z 00435bb8 f   PrefEmuPage.obj
 0001:00034bcf       ?OnInitDialog@PrefEmuPage@@MAEHXZ 00435bcf f   PrefEmuPage.obj
 0001:00034be5       ?OnChanged@AppliConfPlayPage@@IAEXXZ 00435be5 f   PrefEmuPage.obj
 0001:00034be5       ?OnChanged@PrefEtcPage@@IAEXXZ 00435be5 f   PrefEmuPage.obj
 0001:00034be5       ?OnChanged@PrefEmuPage@@IAEXXZ 00435be5 f   PrefEmuPage.obj
 0001:00034be5       ?OnSelchangePlatforms@AppliConfTypePage@@IAEXXZ 00435be5 f   PrefEmuPage.obj
 0001:00034be5       ?OnSelchangePlatforms@AppliConfMachiukePage@@IAEXXZ 00435be5 f   PrefEmuPage.obj
 0001:00034bed       ?OnBrowser@PrefEmuPage@@IAEXXZ 00435bed f   PrefEmuPage.obj
 0001:00034c1b       ?OnDetect@PrefEmuPage@@IAEXXZ 00435c1b f   PrefEmuPage.obj
 0001:00034c59       ?GetMessageMap@PrefEtcPage@@MBEPBUAFX_MSGMAP@@XZ 00435c59 f   PrefEtcPage.obj
 0001:00034c5f       ??0PrefEtcPage@@QAE@PAVSpicydogPref@@@Z 00435c5f f   PrefEtcPage.obj
 0001:00034cb5       ??_EPrefEtcPage@@UAEPAXI@Z 00435cb5 f i PrefEtcPage.obj
 0001:00034cb5       ??_GPrefEtcPage@@UAEPAXI@Z 00435cb5 f i PrefEtcPage.obj
 0001:00034cd1       ??1PrefEtcPage@@UAE@XZ     00435cd1 f   PrefEtcPage.obj
 0001:00034d0f       ?DoDataExchange@PrefEtcPage@@MAEXPAVCDataExchange@@@Z 00435d0f f   PrefEtcPage.obj
 0001:00034d5b       ?OnInitDialog@PrefEtcPage@@MAEHXZ 00435d5b f   PrefEtcPage.obj
 0001:00034d89       ?OnReset@PrefEmuPage@@MAEXXZ 00435d89 f   PrefEtcPage.obj
 0001:00034d89       ?OnReset@PrefUploadPage@@MAEXXZ 00435d89 f   PrefEtcPage.obj
 0001:00034d89       ?OnReset@PrefEtcPage@@MAEXXZ 00435d89 f   PrefEtcPage.obj
 0001:00034d9c       ?OnApply@PrefUploadPage@@MAEHXZ 00435d9c f   PrefEtcPage.obj
 0001:00034d9c       ?OnApply@PrefEtcPage@@MAEHXZ 00435d9c f   PrefEtcPage.obj
 0001:00034d9c       ?OnApply@PrefEmuPage@@MAEHXZ 00435d9c f   PrefEtcPage.obj
 0001:00034daf       ?GetMessageMap@PrefUploadPage@@MBEPBUAFX_MSGMAP@@XZ 00435daf f   PrefUploadPage.obj
 0001:00034db5       ??0PrefUploadPage@@QAE@PAVSpicydogPref@@@Z 00435db5 f   PrefUploadPage.obj
 0001:00034dda       ??_EPrefUploadPage@@UAEPAXI@Z 00435dda f i PrefUploadPage.obj
 0001:00034dda       ??_GPrefUploadPage@@UAEPAXI@Z 00435dda f i PrefUploadPage.obj
 0001:00034df6       ??1PrefUploadPage@@UAE@XZ  00435df6 f   PrefUploadPage.obj
 0001:00034e01       ?DoDataExchange@PrefUploadPage@@MAEXPAVCDataExchange@@@Z 00435e01 f   PrefUploadPage.obj
 0001:00034ee7       ?OnInitDialog@PrefUploadPage@@MAEHXZ 00435ee7 f   PrefUploadPage.obj
 0001:00034f04       ?OnChanged@PrefUploadPage@@IAEXXZ 00435f04 f   PrefUploadPage.obj
 0001:00034f17       ?UpdateControls@PrefUploadPage@@IAEXXZ 00435f17 f   PrefUploadPage.obj
 0001:00034f6e       ?GetMessageMap@EditAnimatingDlg@@MBEPBUAFX_MSGMAP@@XZ 00435f6e f   EditAnimatingDlg.obj
 0001:00034f74       ??0EditAnimatingDlg@@QAE@HPAVAnimating@@PAVCWnd@@@Z 00435f74 f   EditAnimatingDlg.obj
 0001:00035033       ??_GEditAnimatingDlg@@UAEPAXI@Z 00436033 f i EditAnimatingDlg.obj
 0001:00035033       ??_EEditAnimatingDlg@@UAEPAXI@Z 00436033 f i EditAnimatingDlg.obj
 0001:0003504f       ??1EditAnimatingDlg@@UAE@XZ 0043604f f i EditAnimatingDlg.obj
 0001:000350b4       ?DoDataExchange@EditAnimatingDlg@@EAEXPAVCDataExchange@@@Z 004360b4 f   EditAnimatingDlg.obj
 0001:00035159       ?OnOK@EditAnimatingDlg@@EAEXXZ 00436159 f   EditAnimatingDlg.obj
 0001:00035159       ?OnOK@KeyFrameLabelDlg@@MAEXXZ 00436159 f   EditAnimatingDlg.obj
 0001:00035159       ?OnOK@PictTrimDlg@@EAEXXZ  00436159 f   EditAnimatingDlg.obj
 0001:00035159       ?OnOK@BtnCharMailEventDlg@@EAEXXZ 00436159 f   EditAnimatingDlg.obj
 0001:00035159       ?OnOK@BtnCharScheduleEventDlg@@EAEXXZ 00436159 f   EditAnimatingDlg.obj
 0001:00035159       ?OnOK@BtnCharTelEventDlg@@EAEXXZ 00436159 f   EditAnimatingDlg.obj
 0001:00035159       ?OnOK@EditColoringDlg@@EAEXXZ 00436159 f   EditAnimatingDlg.obj
 0001:00035159       ?OnOK@NewEmptyPictCharDlg@@MAEXXZ 00436159 f   EditAnimatingDlg.obj
 0001:00035159       ?OnOK@RenCharName@@MAEXXZ  00436159 f   EditAnimatingDlg.obj
 0001:00035159       ?OnOK@PictResizeDlg@@EAEXXZ 00436159 f   EditAnimatingDlg.obj
 0001:00035170       ?OnInitDialog@EditAnimatingDlg@@EAEHXZ 00436170 f   EditAnimatingDlg.obj
 0001:000351bc       ?OnHScroll@EditAnimatingDlg@@AAEXIIPAVCScrollBar@@@Z 004361bc f   EditAnimatingDlg.obj
 0001:0003522a       ?GetMessageMap@EditColoringCustomDlg@@MBEPBUAFX_MSGMAP@@XZ 0043622a f   EditColoringCustomDlg.obj
 0001:00035230       ??0EditColoringCustomDlg@@QAE@PAVColoring@@@Z 00436230 f   EditColoringCustomDlg.obj
 0001:000352f3       ??_EEditColoringCustomDlg@@UAEPAXI@Z 004362f3 f i EditColoringCustomDlg.obj
 0001:000352f3       ??_GEditColoringCustomDlg@@UAEPAXI@Z 004362f3 f i EditColoringCustomDlg.obj
 0001:0003530f       ??1EditColoringCustomDlg@@UAE@XZ 0043630f f i EditColoringCustomDlg.obj
 0001:00035392       ?DoDataExchange@EditColoringCustomDlg@@MAEXPAVCDataExchange@@@Z 00436392 f   EditColoringCustomDlg.obj
 0001:000355aa       ?OnInitDialog@EditColoringCustomDlg@@MAEHXZ 004365aa f   EditColoringCustomDlg.obj
 0001:00035629       ?OnUpdateValue@EditColoringCustomDlg@@IAEXXZ 00436629 f   EditColoringCustomDlg.obj
 0001:00035691       ?GetMessageMap@EditColoringDlg@@MBEPBUAFX_MSGMAP@@XZ 00436691 f   EditColoringDlg.obj
 0001:00035697       ?GetRuntimeClass@EditColoringDlg@@UBEPAUCRuntimeClass@@XZ 00436697 f   EditColoringDlg.obj
 0001:0003569d       ??0EditColoringDlg@@QAE@PAVChar@@PAVColoring@@PAVCWnd@@@Z 0043669d f   EditColoringDlg.obj
 0001:00035794       ??_EEditColoringDlg@@UAEPAXI@Z 00436794 f i EditColoringDlg.obj
 0001:00035794       ??_GEditColoringDlg@@UAEPAXI@Z 00436794 f i EditColoringDlg.obj
 0001:000357b0       ??1EditColoringMeidoDlg@@UAE@XZ 004367b0 f i EditColoringDlg.obj
 0001:000357f7       ??1EditColoringSelectDlg@@UAE@XZ 004367f7 f i EditColoringDlg.obj
 0001:0003583e       ??1EditColoringDlg@@UAE@XZ 0043683e f i EditColoringDlg.obj
 0001:000358bc       ?DoDataExchange@EditColoringDlg@@EAEXPAVCDataExchange@@@Z 004368bc f   EditColoringDlg.obj
 0001:0003595a       ?OnDefault@EditColoringDlg@@AAEXXZ 0043695a f   EditColoringDlg.obj
 0001:000359cb       ?OnReset@EditColoringDlg@@AAEXXZ 004369cb f   EditColoringDlg.obj
 0001:00035a1d       ?OnPSPaint@EditColoringDlg@@EAEXAAVPreviewStatic@@@Z 00436a1d f   EditColoringDlg.obj
 0001:00035af8       ?Invalidate@EditColoringDlg@@SAXPAVCDialog@@@Z 00436af8 f   EditColoringDlg.obj
 0001:00035b36       ?OnInitDialog@EditColoringDlg@@EAEHXZ 00436b36 f   EditColoringDlg.obj
 0001:00035b93       ?InitChildDialog@EditColoringDlg@@AAEXAAVCDialog@@I@Z 00436b93 f   EditColoringDlg.obj
 0001:00035c05       ?OnSelchangeSeltype@EditColoringDlg@@AAEXXZ 00436c05 f   EditColoringDlg.obj
 0001:00035c1e       ?ChangeSelectType@EditColoringDlg@@AAEXH@Z 00436c1e f   EditColoringDlg.obj
 0001:00035c91       ?ShowChildDialog@EditColoringDlg@@AAEXXZ 00436c91 f   EditColoringDlg.obj
 0001:00035cbe       ?ShowChildDialog@EditColoringDlg@@AAEXPAVCDialog@@@Z 00436cbe f   EditColoringDlg.obj
 0001:00035cf6       ?GetMessageMap@EditColoringMeidoDlg@@MBEPBUAFX_MSGMAP@@XZ 00436cf6 f   EditColoringMeidoDlg.obj
 0001:00035cfc       ??0EditColoringMeidoDlg@@QAE@PAVColoring@@@Z 00436cfc f   EditColoringMeidoDlg.obj
 0001:00035d7e       ??_EEditColoringMeidoDlg@@UAEPAXI@Z 00436d7e f i EditColoringMeidoDlg.obj
 0001:00035d7e       ??_GEditColoringMeidoDlg@@UAEPAXI@Z 00436d7e f i EditColoringMeidoDlg.obj
 0001:00035d9a       ?DoDataExchange@EditColoringMeidoDlg@@MAEXPAVCDataExchange@@@Z 00436d9a f   EditColoringMeidoDlg.obj
 0001:00035f8c       ?OnInitDialog@EditColoringMeidoDlg@@MAEHXZ 00436f8c f   EditColoringMeidoDlg.obj
 0001:00035fe6       ?OnHScroll@EditColoringMeidoDlg@@IAEXIIPAVCScrollBar@@@Z 00436fe6 f   EditColoringMeidoDlg.obj
 0001:00036015       ?UpdateMeidoText@EditColoringMeidoDlg@@IAEXXZ 00437015 f   EditColoringMeidoDlg.obj
 0001:000360af       ?GetMessageMap@EditColoringSelectDlg@@MBEPBUAFX_MSGMAP@@XZ 004370af f   EditColoringSelectDlg.obj
 0001:000360b5       ??0EditColoringSelectDlg@@QAE@PAVColoring@@@Z 004370b5 f   EditColoringSelectDlg.obj
 0001:00036117       ??_GEditColoringSelectDlg@@UAEPAXI@Z 00437117 f i EditColoringSelectDlg.obj
 0001:00036117       ??_EEditColoringSelectDlg@@UAEPAXI@Z 00437117 f i EditColoringSelectDlg.obj
 0001:00036133       ?DoDataExchange@EditColoringSelectDlg@@MAEXPAVCDataExchange@@@Z 00437133 f   EditColoringSelectDlg.obj
 0001:00036311       ?OnInitDialog@EditColoringSelectDlg@@MAEHXZ 00437311 f   EditColoringSelectDlg.obj
 0001:00036351       ?OnSelect@EditColoringSelectDlg@@IAEJIJ@Z 00437351 f   EditColoringSelectDlg.obj
 0001:000363ed       ?OnHScroll@EditColoringSelectDlg@@IAEXIIPAVCScrollBar@@@Z 004373ed f   EditColoringSelectDlg.obj
 0001:00036415       ?GetMessageMap@EditPlacingDlg@@MBEPBUAFX_MSGMAP@@XZ 00437415 f   EditPlacingDlg.obj
 0001:0003641b       ??0EditPlacingDlg@@QAE@HAAVPlacing@@PAVCWnd@@@Z 0043741b f   EditPlacingDlg.obj
 0001:000364a0       ??_EEditPlacingDlg@@UAEPAXI@Z 004374a0 f i EditPlacingDlg.obj
 0001:000364a0       ??_GEditPlacingDlg@@UAEPAXI@Z 004374a0 f i EditPlacingDlg.obj
 0001:000364bc       ??1EditPlacingDlg@@UAE@XZ  004374bc f i EditPlacingDlg.obj
 0001:00036503       ?DoDataExchange@EditPlacingDlg@@UAEXPAVCDataExchange@@@Z 00437503 f   EditPlacingDlg.obj
 0001:0003657a       ?OnUpdateSizing@EditPlacingDlg@@IAEXPAVCCmdUI@@@Z 0043757a f   EditPlacingDlg.obj
 0001:0003658d       ?OnKickIdle@EditPlacingDlg@@IAEXXZ 0043758d f   EditPlacingDlg.obj
 0001:00036596       ?OnOK@EditPlacingDlg@@MAEXXZ 00437596 f   EditPlacingDlg.obj
 0001:000365c1       ?OnInitDialog@EditPlacingDlg@@MAEHXZ 004375c1 f   EditPlacingDlg.obj
 0001:00036602       ?GetMessageMap@KeyFrameActionDlg@@MBEPBUAFX_MSGMAP@@XZ 00437602 f   KeyFrameActionDlg.obj
 0001:00036608       ??0KeyFrameActionDlg@@QAE@PAVAppli@@PBVActionList@@PAVCWnd@@@Z 00437608 f   KeyFrameActionDlg.obj
 0001:00036655       ??_GKeyFrameActionDlg@@UAEPAXI@Z 00437655 f i KeyFrameActionDlg.obj
 0001:00036655       ??_EKeyFrameActionDlg@@UAEPAXI@Z 00437655 f i KeyFrameActionDlg.obj
 0001:00036671       ??1KeyFrameActionDlg@@UAE@XZ 00437671 f i KeyFrameActionDlg.obj
 0001:000366a6       ?DoDataExchange@KeyFrameActionDlg@@MAEXPAVCDataExchange@@@Z 004376a6 f   KeyFrameActionDlg.obj
 0001:000366ba       ?OnInitDialog@KeyFrameActionDlg@@MAEHXZ 004376ba f   KeyFrameActionDlg.obj
 0001:00036713       ?GetEditActionList@KeyFrameActionDlg@@QBEPBVActionList@@XZ 00437713 f   KeyFrameActionDlg.obj
 0001:0003671b       ?GetMessageMap@KeyFrameLabelDlg@@MBEPBUAFX_MSGMAP@@XZ 0043771b f   KeyFrameLabelDlg.obj
 0001:00036721       ??0KeyFrameLabelDlg@@QAE@PBVAppli@@PBVKeyFrameLabel@@PAVCWnd@@@Z 00437721 f   KeyFrameLabelDlg.obj
 0001:0003677e       ??_GKeyFrameLabelDlg@@UAEPAXI@Z 0043777e f i KeyFrameLabelDlg.obj
 0001:0003677e       ??_EKeyFrameLabelDlg@@UAEPAXI@Z 0043777e f i KeyFrameLabelDlg.obj
 0001:0003679a       ??1KeyFrameLabelDlg@@UAE@XZ 0043779a f i KeyFrameLabelDlg.obj
 0001:000367e8       ?DoDataExchange@KeyFrameLabelDlg@@MAEXPAVCDataExchange@@@Z 004377e8 f   KeyFrameLabelDlg.obj
 0001:00036829       ?OnInitDialog@KeyFrameLabelDlg@@MAEHXZ 00437829 f   KeyFrameLabelDlg.obj
 0001:0003684b       ?OnCancel@KeyFrameLabelDlg@@MAEXXZ 0043784b f   KeyFrameLabelDlg.obj
 0001:00036850       ??0RenLayerDlg@@QAE@PBDPAVCWnd@@@Z 00437850 f   RenLayerDlg.obj
 0001:000368ba       ??_ERenLayerDlg@@UAEPAXI@Z 004378ba f i RenLayerDlg.obj
 0001:000368ba       ??_GRenLayerDlg@@UAEPAXI@Z 004378ba f i RenLayerDlg.obj
 0001:000368d6       ??1RenLayerDlg@@UAE@XZ     004378d6 f i RenLayerDlg.obj
 0001:0003691d       ?GetName@RenLayerDlg@@QBE?AVCString@@XZ 0043791d f   RenLayerDlg.obj
 0001:0003693b       ?DoDataExchange@RenLayerDlg@@MAEXPAVCDataExchange@@@Z 0043793b f   RenLayerDlg.obj
 0001:00036968       ?GetMessageMap@RenLayerDlg@@MBEPBUAFX_MSGMAP@@XZ 00437968 f   RenLayerDlg.obj
 0001:0003696e       ?OnOK@RenLayerDlg@@MAEXXZ  0043796e f   RenLayerDlg.obj
 0001:00036981       ?OnUpdateOk@RenLayerDlg@@IAEXPAVCCmdUI@@@Z 00437981 f   RenLayerDlg.obj
 0001:000369af       ?OnInitDialog@RenLayerDlg@@MAEHXZ 004379af f   RenLayerDlg.obj
 0001:000369e9       ?GetMessageMap@RenSubStageDlg@@MBEPBUAFX_MSGMAP@@XZ 004379e9 f   RenSubStageDlg.obj
 0001:000369ef       ??0RenSubStageDlg@@QAE@PAVCWnd@@@Z 004379ef f   RenSubStageDlg.obj
 0001:00036a44       ??_GRenSubStageDlg@@UAEPAXI@Z 00437a44 f i RenSubStageDlg.obj
 0001:00036a44       ??_ERenSubStageDlg@@UAEPAXI@Z 00437a44 f i RenSubStageDlg.obj
 0001:00036a60       ??1RenSubStageDlg@@UAE@XZ  00437a60 f i RenSubStageDlg.obj
 0001:00036a95       ?DoDataExchange@RenSubStageDlg@@MAEXPAVCDataExchange@@@Z 00437a95 f   RenSubStageDlg.obj
 0001:00036aaa       ?OnOK@RenSubStageDlg@@MAEXXZ 00437aaa f   RenSubStageDlg.obj
 0001:00036abf       ?Save@RenSubStageDlg@@IAEHXZ 00437abf f   RenSubStageDlg.obj
 0001:00036ade       ?GetMessageMap@StagesDlg@@MBEPBUAFX_MSGMAP@@XZ 00437ade f   StagesDlg.obj
 0001:00036ae4       ?CreateObject@StagesDlg@@SGPAVCObject@@XZ 00437ae4 f   StagesDlg.obj
 0001:00036b19       ?GetRuntimeClass@StagesDlg@@UBEPAUCRuntimeClass@@XZ 00437b19 f   StagesDlg.obj
 0001:00036b1f       ??0StagesDlg@@QAE@XZ       00437b1f f   StagesDlg.obj
 0001:00036bc5       ??_EStagesDlg@@UAEPAXI@Z   00437bc5 f i StagesDlg.obj
 0001:00036bc5       ??_GStagesDlg@@UAEPAXI@Z   00437bc5 f i StagesDlg.obj
 0001:00036be1       ??1StagesDlg@@UAE@XZ       00437be1 f   StagesDlg.obj
 0001:00036c44       ?DoDataExchange@StagesDlg@@MAEXPAVCDataExchange@@@Z 00437c44 f   StagesDlg.obj
 0001:00036c66       ?OnUpdate_ReqActive@StagesDlg@@IAEXPAVCCmdUI@@@Z 00437c66 f   StagesDlg.obj
 0001:00036c66       ?OnUpdateExistActiveDocument@CharListDlg@@AAEXPAVCCmdUI@@@Z 00437c66 f   StagesDlg.obj
 0001:00036c7d       ?OnUpdate_ReqSel@StagesDlg@@IAEXPAVCCmdUI@@@Z 00437c7d f   StagesDlg.obj
 0001:00036cac       ?OnUpdate_ReqSelSub@StagesDlg@@IAEXPAVCCmdUI@@@Z 00437cac f   StagesDlg.obj
 0001:00036cda       ?GetSelStage@StagesDlg@@IAEPAVStage@@XZ 00437cda f   StagesDlg.obj
 0001:00036d36       ?OnDocumentActivated@StagesDlg@@MAEXPAVCDocument@@@Z 00437d36 f   StagesDlg.obj
 0001:00036d99       ?itos@@YA?AVCString@@H@Z   00437d99 f   StagesDlg.obj
 0001:00036db9       ?OnNotify@StagesDlg@@MAEXKPAVCDocument@@JPAX@Z 00437db9 f   StagesDlg.obj
 0001:00036dd3       ?OnDocumentUpdated@StagesDlg@@MAEXPAVCDocument@@JPAVCObject@@@Z 00437dd3 f   StagesDlg.obj
 0001:00037089       ?OnRclickStages@StagesDlg@@IAEXPAUtagNMHDR@@PAJ@Z 00438089 f   StagesDlg.obj
 0001:000370c2       ?OnDblclkStages@StagesDlg@@IAEXPAUtagNMHDR@@PAJ@Z 004380c2 f   StagesDlg.obj
 0001:00037108       ?OnEdit@StagesDlg@@IAEXXZ  00438108 f   StagesDlg.obj
 0001:0003710d       ?ActivateSelStage@StagesDlg@@IAEXXZ 0043810d f   StagesDlg.obj
 0001:00037153       ?OnInsSubStage@StagesDlg@@IAEXXZ 00438153 f   StagesDlg.obj
 0001:00037243       ?OnDelSubStage@StagesDlg@@IAEXXZ 00438243 f   StagesDlg.obj
 0001:0003732a       ?OnRenSubStage@StagesDlg@@IAEXXZ 0043832a f   StagesDlg.obj
 0001:00037430       ?OnSize@StagesDlg@@IAEXIHH@Z 00438430 f   StagesDlg.obj
 0001:00037479       ?InsertStageColumn@@YAXAAVCListCtrl@@HIHH@Z 00438479 f   StagesDlg.obj
 0001:000374d5       ?OnInitDialog@StagesDlg@@MAEHXZ 004384d5 f   StagesDlg.obj
 0001:000375a7       ??_EStagesDlg@@WGA@AEPAXI@Z 004385a7 f i StagesDlg.obj
 0001:00037790       ?_GetBaseMessageMap@StagesDlg@@KGPBUAFX_MSGMAP@@XZ 00438790 f   TimelineDlg.obj
 0001:00037790       ?_GetBaseMessageMap@BuildOutputDlg@@KGPBUAFX_MSGMAP@@XZ 00438790 f   TimelineDlg.obj
 0001:00037790       ?_GetBaseMessageMap@CharListDlg@@KGPBUAFX_MSGMAP@@XZ 00438790 f   TimelineDlg.obj
 0001:00037790       ?GetMessageMap@DialogBarDlg@@MBEPBUAFX_MSGMAP@@XZ 00438790 f   TimelineDlg.obj
 0001:00037790       ?_GetBaseMessageMap@HistoryDlg@@KGPBUAFX_MSGMAP@@XZ 00438790 f   TimelineDlg.obj
 0001:00037790       ?_GetBaseMessageMap@TimelineDlg@@KGPBUAFX_MSGMAP@@XZ 00438790 f   TimelineDlg.obj
 0001:00037796       ?GetMessageMap@TimelineDlg@@MBEPBUAFX_MSGMAP@@XZ 00438796 f   TimelineDlg.obj
 0001:000378ac       ?CreateObject@TimelineDlg@@SGPAVCObject@@XZ 004388ac f   TimelineDlg.obj
 0001:000378e1       ?_GetBaseClass@BuildOutputDlg@@KGPAUCRuntimeClass@@XZ 004388e1 f   TimelineDlg.obj
 0001:000378e1       ?_GetBaseClass@StagesDlg@@KGPAUCRuntimeClass@@XZ 004388e1 f   TimelineDlg.obj
 0001:000378e1       ?GetRuntimeClass@DialogBarDlg@@UBEPAUCRuntimeClass@@XZ 004388e1 f   TimelineDlg.obj
 0001:000378e1       ?_GetBaseClass@CharListDlg@@KGPAUCRuntimeClass@@XZ 004388e1 f   TimelineDlg.obj
 0001:000378e1       ?_GetBaseClass@HistoryDlg@@KGPAUCRuntimeClass@@XZ 004388e1 f   TimelineDlg.obj
 0001:000378e1       ?_GetBaseClass@TimelineDlg@@KGPAUCRuntimeClass@@XZ 004388e1 f   TimelineDlg.obj
 0001:000378e7       ?GetRuntimeClass@TimelineDlg@@UBEPAUCRuntimeClass@@XZ 004388e7 f   TimelineDlg.obj
 0001:000378ed       ??0TimelineDlg@@QAE@XZ     004388ed f   TimelineDlg.obj
 0001:00037a00       ??_GTimelineDlg@@UAEPAXI@Z 00438a00 f i TimelineDlg.obj
 0001:00037a00       ??_ETimelineDlg@@UAEPAXI@Z 00438a00 f i TimelineDlg.obj
 0001:00037a1c       ?clinit@TimelineDlg@@SAXXZ 00438a1c f   TimelineDlg.obj
 0001:00037a9a       ??1TimelineDlg@@UAE@XZ     00438a9a f   TimelineDlg.obj
 0001:00037b73       ?DoDataExchange@TimelineDlg@@EAEXPAVCDataExchange@@@Z 00438b73 f   TimelineDlg.obj
 0001:00037bb9       ?OnInitDialog@TimelineDlg@@EAEHXZ 00438bb9 f   TimelineDlg.obj
 0001:00037c0a       ?OnDocumentActivated@TimelineDlg@@UAEXPAVCDocument@@@Z 00438c0a f   TimelineDlg.obj
 0001:00037ca7       ?OnDocumentUpdated@TimelineDlg@@UAEXPAVCDocument@@JPAVCObject@@@Z 00438ca7 f   TimelineDlg.obj
 0001:00037cee       ?UpdateFrameScroll@TimelineDlg@@AAEXXZ 00438cee f   TimelineDlg.obj
 0001:00037dfb       ?UpdateLayerScroll@TimelineDlg@@AAEXXZ 00438dfb f   TimelineDlg.obj
 0001:00037f37       ?OnSize@TimelineDlg@@AAEXIHH@Z 00438f37 f   TimelineDlg.obj
 0001:00037f6e       ?OnSplitHMove@TimelineDlg@@AAEXXZ 00438f6e f   TimelineDlg.obj
 0001:00037f93       ?AdjustSize@TimelineDlg@@AAEXXZ 00438f93 f   TimelineDlg.obj
 0001:0003819b       ?GetDocument@TimelineDlg@@AAEPAVSpicydogDoc@@XZ 0043919b f   TimelineDlg.obj
 0001:000381a2       ?PreCreateWindow@TimelineDlg@@EAEHAAUtagCREATESTRUCTA@@@Z 004391a2 f   TimelineDlg.obj
 0001:000381bc       ?OnCreate@TimelineDlg@@AAEHPAUtagCREATESTRUCTA@@@Z 004391bc f   TimelineDlg.obj
 0001:0003824f       ?GetLayerIndexFromY@TimelineDlg@@ABEHH@Z 0043924f f   TimelineDlg.obj
 0001:00038288       ?GetFrameIndexFromX@TimelineDlg@@ABEHH@Z 00439288 f   TimelineDlg.obj
 0001:000382b8       ?GetDrawFrameCount@TimelineDlg@@ABEHXZ 004392b8 f   TimelineDlg.obj
 0001:000382e5       ?OnVScroll@TimelineDlg@@AAEXIIPAVCScrollBar@@@Z 004392e5 f   TimelineDlg.obj
 0001:00038340       ?OnHScroll@TimelineDlg@@AAEXIIPAVCScrollBar@@@Z 00439340 f   TimelineDlg.obj
 0001:0003838b       ?OnPaint@TimelineDlg@@EAEXPAVInWnd@@@Z 0043938b f   TimelineDlg.obj
 0001:0003844a       ?IsLayerWnd@TimelineDlg@@ABEHPAVCWnd@@@Z 0043944a f   TimelineDlg.obj
 0001:00038472       ?OnLButtonDblClk@TimelineDlg@@EAEXPAVInWnd@@IVCPoint@@@Z 00439472 f   TimelineDlg.obj
 0001:000385c4       ?OnRButtonDown@TimelineDlg@@EAEXPAVInWnd@@IVCPoint@@@Z 004395c4 f   TimelineDlg.obj
 0001:000386db       ?SelectFrame@TimelineDlg@@AAEHVCPoint@@H@Z 004396db f   TimelineDlg.obj
 0001:000387f4       ?GetLayerItemFromX@TimelineDlg@@ABE?AW4HIT_LAYER@1@H@Z 004397f4 f   TimelineDlg.obj
 0001:0003883b       ?SelectLayer@TimelineDlg@@AAEHVCPoint@@@Z 0043983b f   TimelineDlg.obj
 0001:0003896e       ?OnLButtonDown@TimelineDlg@@EAEXPAVInWnd@@IVCPoint@@@Z 0043996e f   TimelineDlg.obj
 0001:00038a58       ?GetTargetStage@TimelineDlg@@ABEPBVStage@@XZ 00439a58 f   TimelineDlg.obj
 0001:00038a58       ?GetTargetStage@TimelineDlg@@AAEPAVStage@@XZ 00439a58 f   TimelineDlg.obj
 0001:00038a65       ?CalcDragRect@TimelineDlg@@AAEXH@Z 00439a65 f   TimelineDlg.obj
 0001:00038ab2       ?DrawLayerHdr@TimelineDlg@@AAEXAAVCDC@@@Z 00439ab2 f   TimelineDlg.obj
 0001:00038d1e       ?Draw3dLine@@YAXAAVCDC@@HHHHHHKK@Z 00439d1e f   TimelineDlg.obj
 0001:00038e1e       ?Draw3dLine@@YAXAAVCDC@@VCPoint@@11KK@Z 00439e1e f   TimelineDlg.obj
 0001:00038e46       ?DrawLayerIcon@@YAXAAVCDC@@VCPoint@@H@Z 00439e46 f   TimelineDlg.obj
 0001:00038e7f       ?DrawLayerName@@YAXAAVCDC@@PBDPBUtagRECT@@@Z 00439e7f f   TimelineDlg.obj
 0001:00038ea7       ?DrawLayerEye@@YAXAAVCDC@@VCPoint@@H@Z 00439ea7 f   TimelineDlg.obj
 0001:00038f2f       ?DrawLayerLck@@YAXAAVCDC@@VCPoint@@HH@Z 00439f2f f   TimelineDlg.obj
 0001:00038fcf       ?DrawLayerList@TimelineDlg@@AAEXAAVCDC@@@Z 00439fcf f   TimelineDlg.obj
 0001:000391f2       ?DrawFrameHdr@TimelineDlg@@AAEXAAVCDC@@@Z 0043a1f2 f   TimelineDlg.obj
 0001:0003936a       ?FrameSolidRect@@YAXAAVCDC@@HHHHK@Z 0043a36a f   TimelineDlg.obj
 0001:000393d1       ?FrameSolidRect@@YAXAAVCDC@@PBUtagRECT@@K@Z 0043a3d1 f   TimelineDlg.obj
 0001:000393fb       ?DrawKey@@YAXAAVCDC@@VCPoint@@@Z 0043a3fb f   TimelineDlg.obj
 0001:00039442       ?DrawKeyE@@YAXAAVCDC@@VCPoint@@@Z 0043a442 f   TimelineDlg.obj
 0001:0003949d       ?DrawAct@@YAXAAVCDC@@VCPoint@@@Z 0043a49d f   TimelineDlg.obj
 0001:000394e7       ?DrawLab@@YAXAAVCDC@@VCPoint@@@Z 0043a4e7 f   TimelineDlg.obj
 0001:00039531       ?FillSolidPoint@@YAXAAVCDC@@VCPoint@@K@Z 0043a531 f   TimelineDlg.obj
 0001:0003955c       ?DrawEnd@@YAXAAVCDC@@VCPoint@@@Z 0043a55c f   TimelineDlg.obj
 0001:000395d5       ?GetCell@TimelineDlg@@AAEXAAVCPoint@@HH@Z 0043a5d5 f   TimelineDlg.obj
 0001:0003960f       ?DrawFrameList@TimelineDlg@@AAEXAAVCDC@@@Z 0043a60f f   TimelineDlg.obj
 0001:00039a92       ?OnDragLeave@TimelineDlg@@EAEXPAVCWnd@@@Z 0043aa92 f   TimelineDlg.obj
 0001:00039afb       ?TestDropEffect@@YAKPAVCOleDataObject@@K@Z 0043aafb f   TimelineDlg.obj
 0001:00039b3a       ?OnDragOver@TimelineDlg@@EAEKPAVCOleDataObject@@KVCPoint@@@Z 0043ab3a f   TimelineDlg.obj
 0001:00039be9       ?OnDragEnter@TimelineDlg@@EAEKPAVCOleDataObject@@KVCPoint@@@Z 0043abe9 f   TimelineDlg.obj
 0001:00039c75       ?OnDrop@TimelineDlg@@EAEHPAVCOleDataObject@@KVCPoint@@@Z 0043ac75 f   TimelineDlg.obj
 0001:00039d35       ??_ETimelineDlg@@WGA@AEPAXI@Z 0043ad35 f i TimelineDlg.obj
 0001:00039d3d       ??_ETimelineDlg@@WGM@AEPAXI@Z 0043ad3d f i TimelineDlg.obj
 0001:00039f26       ?OnTweenProperty@TimelineDlg@@AAEXXZ 0043af26 f   TimelineDlgFrame.obj
 0001:0003a070       ?OnUpdateTweenProperty@TimelineDlg@@AAEXPAVCCmdUI@@@Z 0043b070 f   TimelineDlgFrame.obj
 0001:0003a093       ?IsValidTweenProperty@TimelineDlg@@AAEHAAPBVKeyFrame@@@Z 0043b093 f   TimelineDlgFrame.obj
 0001:0003a0fe       ?OnUpdateActionsProp@TimelineDlg@@AAEXPAVCCmdUI@@@Z 0043b0fe f   TimelineDlgFrame.obj
 0001:0003a11c       ?OnActionsProp@TimelineDlg@@AAEXXZ 0043b11c f   TimelineDlgFrame.obj
 0001:0003a220       ?IsValidActionsProp@TimelineDlg@@AAEHAAPBVKeyFrame@@@Z 0043b220 f   TimelineDlgFrame.obj
 0001:0003a22c       ?OnTweenCreate@TimelineDlg@@AAEXXZ 0043b22c f   TimelineDlgFrame.obj
 0001:0003a2f0       ?OnUpdateTweenCreate@TimelineDlg@@AAEXPAVCCmdUI@@@Z 0043b2f0 f   TimelineDlgFrame.obj
 0001:0003a30e       ?IsValidTweenCreate@TimelineDlg@@AAEHAAPBVKeyFrame@@@Z 0043b30e f   TimelineDlgFrame.obj
 0001:0003a329       ?OnInsFrame@TimelineDlg@@AAEXXZ 0043b329 f   TimelineDlgFrame.obj
 0001:0003a3ea       ?OnUpdateInsFrame@TimelineDlg@@AAEXPAVCCmdUI@@@Z 0043b3ea f   TimelineDlgFrame.obj
 0001:0003a401       ?IsValidInsFrame@TimelineDlg@@AAEHXZ 0043b401 f   TimelineDlgFrame.obj
 0001:0003a41f       ?OnDelFrame@TimelineDlg@@AAEXXZ 0043b41f f   TimelineDlgFrame.obj
 0001:0003a501       ?OnUpdateDelFrame@TimelineDlg@@AAEXPAVCCmdUI@@@Z 0043b501 f   TimelineDlgFrame.obj
 0001:0003a518       ?IsValidDelFrame@TimelineDlg@@AAEHXZ 0043b518 f   TimelineDlgFrame.obj
 0001:0003a57d       ?OnInsKeyFrame@TimelineDlg@@AAEXXZ 0043b57d f   TimelineDlgFrame.obj
 0001:0003a64d       ?OnUpdateInsKeyFrame@TimelineDlg@@AAEXPAVCCmdUI@@@Z 0043b64d f   TimelineDlgFrame.obj
 0001:0003a664       ?IsValidInsKeyFrame@TimelineDlg@@AAEHXZ 0043b664 f   TimelineDlgFrame.obj
 0001:0003a688       ?OnInsEmptyKeyFrame@TimelineDlg@@AAEXXZ 0043b688 f   TimelineDlgFrame.obj
 0001:0003a754       ?OnUpdateInsEmptyKeyFrame@TimelineDlg@@AAEXPAVCCmdUI@@@Z 0043b754 f   TimelineDlgFrame.obj
 0001:0003a76b       ?IsValidInsEmptyKeyFrame@TimelineDlg@@AAEHXZ 0043b76b f   TimelineDlgFrame.obj
 0001:0003a782       ?OnInsLabel@TimelineDlg@@AAEXXZ 0043b782 f   TimelineDlgFrame.obj
 0001:0003a8a1       ?OnDelLabel@TimelineDlg@@AAEXXZ 0043b8a1 f   TimelineDlgFrame.obj
 0001:0003a932       ?OnModLabel@TimelineDlg@@AAEXXZ 0043b932 f   TimelineDlgFrame.obj
 0001:0003aa43       ?OnUpdateInsLabel@TimelineDlg@@AAEXPAVCCmdUI@@@Z 0043ba43 f   TimelineDlgFrame.obj
 0001:0003aa61       ?OnUpdateDelLabel@TimelineDlg@@AAEXPAVCCmdUI@@@Z 0043ba61 f   TimelineDlgFrame.obj
 0001:0003aa7f       ?OnUpdateModLabel@TimelineDlg@@AAEXPAVCCmdUI@@@Z 0043ba7f f   TimelineDlgFrame.obj
 0001:0003aa9d       ?GetSelKeyFrame@TimelineDlg@@ABEHAAPBVKeyFrame@@H@Z 0043ba9d f   TimelineDlgFrame.obj
 0001:0003ab1c       ?IsValidInsLabel@TimelineDlg@@ABEHAAPBVKeyFrame@@@Z 0043bb1c f   TimelineDlgFrame.obj
 0001:0003ab50       ?IsValidModLabel@TimelineDlg@@ABEHAAPBVKeyFrame@@@Z 0043bb50 f   TimelineDlgFrame.obj
 0001:0003ab50       ?IsValidDelLabel@TimelineDlg@@ABEHAAPBVKeyFrame@@@Z 0043bb50 f   TimelineDlgFrame.obj
 0001:0003ab7f       ?OnMoveDown@TimelineDlg@@AAEXXZ 0043bb7f f   TimelineDlgFrame.obj
 0001:0003abc9       ?OnMoveUp@TimelineDlg@@AAEXXZ 0043bbc9 f   TimelineDlgFrame.obj
 0001:0003ac13       ?OnMoveRight@TimelineDlg@@AAEXXZ 0043bc13 f   TimelineDlgFrame.obj
 0001:0003ac73       ?OnMoveLeft@TimelineDlg@@AAEXXZ 0043bc73 f   TimelineDlgFrame.obj
 0001:0003acd3       ?OnUpdateMoveDown@TimelineDlg@@AAEXPAVCCmdUI@@@Z 0043bcd3 f   TimelineDlgFrame.obj
 0001:0003acea       ?OnUpdateMoveUp@TimelineDlg@@AAEXPAVCCmdUI@@@Z 0043bcea f   TimelineDlgFrame.obj
 0001:0003ad01       ?OnUpdateMoveRight@TimelineDlg@@AAEXPAVCCmdUI@@@Z 0043bd01 f   TimelineDlgFrame.obj
 0001:0003ad18       ?OnUpdateMoveLeft@TimelineDlg@@AAEXPAVCCmdUI@@@Z 0043bd18 f   TimelineDlgFrame.obj
 0001:0003ad2f       ?IsValidMoveDown@TimelineDlg@@AAEHXZ 0043bd2f f   TimelineDlgFrame.obj
 0001:0003ad70       ?IsValidMoveUp@TimelineDlg@@AAEHXZ 0043bd70 f   TimelineDlgFrame.obj
 0001:0003ad9c       ?IsValidMoveRight@TimelineDlg@@AAEHXZ 0043bd9c f   TimelineDlgFrame.obj
 0001:0003add6       ?IsValidMoveLeft@TimelineDlg@@AAEHXZ 0043bdd6 f   TimelineDlgFrame.obj
 0001:0003afde       ?OnDelLayer@TimelineDlg@@AAEXXZ 0043bfde f   TimelineDlgLayer.obj
 0001:0003b08c       ?OnUpdateDelLayer@TimelineDlg@@AAEXPAVCCmdUI@@@Z 0043c08c f   TimelineDlgLayer.obj
 0001:0003b0a3       ?IsValidDelLayer@TimelineDlg@@ABEHXZ 0043c0a3 f   TimelineDlgLayer.obj
 0001:0003b0de       ?OnDupLayer@TimelineDlg@@AAEXXZ 0043c0de f   TimelineDlgLayer.obj
 0001:0003b212       ?OnInsLayer@TimelineDlg@@AAEXXZ 0043c212 f   TimelineDlgLayer.obj
 0001:0003b340       ?OnUpdateInsLayer@TimelineDlg@@AAEXPAVCCmdUI@@@Z 0043c340 f   TimelineDlgLayer.obj
 0001:0003b357       ?IsValidInsLayer@TimelineDlg@@ABEHXZ 0043c357 f   TimelineDlgLayer.obj
 0001:0003b363       ?OnRenLayer@TimelineDlg@@AAEXXZ 0043c363 f   TimelineDlgLayer.obj
 0001:0003b497       ?OnUpdateDupLayer@TimelineDlg@@AAEXPAVCCmdUI@@@Z 0043c497 f   TimelineDlgLayer.obj
 0001:0003b497       ?OnUpdateRenLayer@TimelineDlg@@AAEXPAVCCmdUI@@@Z 0043c497 f   TimelineDlgLayer.obj
 0001:0003b4ae       ?IsValidRenLayer@TimelineDlg@@ABEHXZ 0043c4ae f   TimelineDlgLayer.obj
 0001:0003b4ae       ?IsValidDupLayer@TimelineDlg@@ABEHXZ 0043c4ae f   TimelineDlgLayer.obj
 0001:0003b4d6       ?OnOrderDown@TimelineDlg@@AAEXXZ 0043c4d6 f   TimelineDlgLayer.obj
 0001:0003b57f       ?OnUpdateOrderDown@TimelineDlg@@AAEXPAVCCmdUI@@@Z 0043c57f f   TimelineDlgLayer.obj
 0001:0003b596       ?IsValidOrderDown@TimelineDlg@@ABEHXZ 0043c596 f   TimelineDlgLayer.obj
 0001:0003b5db       ?OnOrderUp@TimelineDlg@@AAEXXZ 0043c5db f   TimelineDlgLayer.obj
 0001:0003b684       ?OnUpdateOrderUp@TimelineDlg@@AAEXPAVCCmdUI@@@Z 0043c684 f   TimelineDlgLayer.obj
 0001:0003b69b       ?IsValidOrderUp@TimelineDlg@@ABEHXZ 0043c69b f   TimelineDlgLayer.obj
 0001:0003b6df       ?OnShowAllLayers@TimelineDlg@@AAEXXZ 0043c6df f   TimelineDlgLayer.obj
 0001:0003b72b       ?OnUpdateHideOtherLayers@TimelineDlg@@AAEXPAVCCmdUI@@@Z 0043c72b f   TimelineDlgLayer.obj
 0001:0003b72b       ?OnUpdateLockOtherLayers@TimelineDlg@@AAEXPAVCCmdUI@@@Z 0043c72b f   TimelineDlgLayer.obj
 0001:0003b72b       ?OnUpdateShowAllLayers@TimelineDlg@@AAEXPAVCCmdUI@@@Z 0043c72b f   TimelineDlgLayer.obj
 0001:0003b742       ?OnLockOtherLayers@TimelineDlg@@AAEXXZ 0043c742 f   TimelineDlgLayer.obj
 0001:0003b7a1       ?OnHideOtherLayers@TimelineDlg@@AAEXXZ 0043c7a1 f   TimelineDlgLayer.obj
 0001:0003b7f7       ?IsValidShowAllLayers@TimelineDlg@@ABEHXZ 0043c7f7 f   TimelineDlgLayer.obj
 0001:0003b7f7       ?IsValidLockOtherLayers@TimelineDlg@@ABEHXZ 0043c7f7 f   TimelineDlgLayer.obj
 0001:0003b7f7       ?IsValidHideOtherLayers@TimelineDlg@@ABEHXZ 0043c7f7 f   TimelineDlgLayer.obj
 0001:0003b832       ?GetMessageMap@AppBugDlg@@MBEPBUAFX_MSGMAP@@XZ 0043c832 f   AppBugDlg.obj
 0001:0003b838       ??0AppBugDlg@@QAE@AAVAppBugDump@@@Z 0043c838 f   AppBugDlg.obj
 0001:0003b8ca       ??_EAppBugDlg@@UAEPAXI@Z   0043c8ca f i AppBugDlg.obj
 0001:0003b8ca       ??_GAppBugDlg@@UAEPAXI@Z   0043c8ca f i AppBugDlg.obj
 0001:0003b8e6       ??1AppBugDlg@@UAE@XZ       0043c8e6 f i AppBugDlg.obj
 0001:0003b93c       ?DoDataExchange@AppBugDlg@@MAEXPAVCDataExchange@@@Z 0043c93c f   AppBugDlg.obj
 0001:0003b97b       ?OnInitDialog@AppBugDlg@@MAEHXZ 0043c97b f   AppBugDlg.obj
 0001:0003b9c2       ?OnOpenMailer@AppBugDlg@@IAEXXZ 0043c9c2 f   AppBugDlg.obj
 0001:0003ba23       ?OnWwwSpicydog@AppBugDlg@@IAEXXZ 0043ca23 f   AppBugDlg.obj
 0001:0003ba84       ?GetMessageMap@ColorPaletteDlg@@MBEPBUAFX_MSGMAP@@XZ 0043ca84 f   ColorPaletteDlg.obj
 0001:0003ba8a       ??0ColorPaletteDlg@@QAE@KHHHPAVCWnd@@@Z 0043ca8a f   ColorPaletteDlg.obj
 0001:0003bb90       ??_GColorPaletteDlg@@UAEPAXI@Z 0043cb90 f i ColorPaletteDlg.obj
 0001:0003bb90       ??_EColorPaletteDlg@@UAEPAXI@Z 0043cb90 f i ColorPaletteDlg.obj
 0001:0003bbac       ?DoDataExchange@ColorPaletteDlg@@EAEXPAVCDataExchange@@@Z 0043cbac f   ColorPaletteDlg.obj
 0001:0003bc46       ?OnInitDialog@ColorPaletteDlg@@EAEHXZ 0043cc46 f   ColorPaletteDlg.obj
 0001:0003bc9d       ?GetCurAct@ColorPaletteDlg@@ABEPBVAct@@XZ 0043cc9d f   ColorPaletteDlg.obj
 0001:0003bcb0       ?OnClrDlg@ColorPaletteDlg@@AAEXXZ 0043ccb0 f   ColorPaletteDlg.obj
 0001:0003bd1b       ?OnClrNull@ColorPaletteDlg@@AAEXXZ 0043cd1b f   ColorPaletteDlg.obj
 0001:0003bd23       ?GetColor@ColorPaletteDlg@@QBEKXZ 0043cd23 f   ColorPaletteDlg.obj
 0001:0003bd2a       ?OnClrSpoit@ColorPaletteDlg@@AAEXXZ 0043cd2a f   ColorPaletteDlg.obj
 0001:0003bd7d       ?OnPickerMove@ColorPaletteDlg@@EAEXVCPoint@@K@Z 0043cd7d f   ColorPaletteDlg.obj
 0001:0003bd8c       ?RGB2STRING@@YA?AVCString@@K@Z 0043cd8c f   ColorPaletteDlg.obj
 0001:0003bdff       ?STRING2RGB@@YAKPBD@Z      0043cdff f   ColorPaletteDlg.obj
 0001:0003be54       ?OnUpdateClrval@ColorPaletteDlg@@AAEXXZ 0043ce54 f   ColorPaletteDlg.obj
 0001:0003bea5       ?SetCurrentColor@ColorPaletteDlg@@AAEXK@Z 0043cea5 f   ColorPaletteDlg.obj
 0001:0003bf14       ?OnMouseMove@ColorPaletteDlg@@AAEXIVCPoint@@@Z 0043cf14 f   ColorPaletteDlg.obj
 0001:0003bf4b       ?OnPalette@ColorPaletteDlg@@AAEXXZ 0043cf4b f   ColorPaletteDlg.obj
 0001:0003bf73       ?OnPSMouseMove@ColorPaletteDlg@@EAEXAAVPreviewStatic@@IVCPoint@@@Z 0043cf73 f   ColorPaletteDlg.obj
 0001:0003bfaa       ?OnClrVal@ColorPaletteDlg@@AAEXXZ 0043cfaa f   ColorPaletteDlg.obj
 0001:0003bfc1       ?SelectColor@ColorPaletteDlg@@AAEXK@Z 0043cfc1 f   ColorPaletteDlg.obj
 0001:0003bfe2       ?OnOK@ColorPaletteDlg@@EAEXXZ 0043cfe2 f   ColorPaletteDlg.obj
 0001:0003bfe7       ?Cancel@ColorPaletteDlg@@AAEXXZ 0043cfe7 f   ColorPaletteDlg.obj
 0001:0003bfef       ?SetupButtons@ColorPaletteDlg@@AAEXXZ 0043cfef f   ColorPaletteDlg.obj
 0001:0003c039       ?GetColorFromPoint@ColorPaletteDlg@@ABEKABVCPoint@@@Z 0043d039 f   ColorPaletteDlg.obj
 0001:0003c0ca       ?AdjustPalletteBox@ColorPaletteDlg@@AAEXXZ 0043d0ca f   ColorPaletteDlg.obj
 0001:0003c201       ?OnPSPaint@ColorPaletteDlg@@EAEXAAVPreviewStatic@@@Z 0043d201 f   ColorPaletteDlg.obj
 0001:0003c3bb       ?OnClrClose@ColorPaletteDlg@@AAEXXZ 0043d3bb f   ColorPaletteDlg.obj
 0001:0003c3c0       ?OnSelchangeAct@ColorPaletteDlg@@AAEXXZ 0043d3c0 f   ColorPaletteDlg.obj
 0001:0003c3f4       ?UpdateACTsComboBox@ColorPaletteDlg@@AAEXXZ 0043d3f4 f   ColorPaletteDlg.obj
 0001:0003c550       ??_EColorPaletteDlg@@WGE@AEPAXI@Z 0043d550 f i ColorPaletteDlg.obj
 0001:0003c558       ?GetMessageMap@HistoryDlg@@MBEPBUAFX_MSGMAP@@XZ 0043d558 f   historydlg.obj
 0001:0003c55e       ?CreateObject@HistoryDlg@@SGPAVCObject@@XZ 0043d55e f   historydlg.obj
 0001:0003c593       ?GetRuntimeClass@HistoryDlg@@UBEPAUCRuntimeClass@@XZ 0043d593 f   historydlg.obj
 0001:0003c599       ??0HistoryDlg@@QAE@XZ      0043d599 f   historydlg.obj
 0001:0003c643       ??_GHistoryDlg@@UAEPAXI@Z  0043d643 f i historydlg.obj
 0001:0003c643       ??_EHistoryDlg@@UAEPAXI@Z  0043d643 f i historydlg.obj
 0001:0003c65f       ??1HistoryDlg@@UAE@XZ      0043d65f f   historydlg.obj
 0001:0003c6f1       ?DoDataExchange@HistoryDlg@@EAEXPAVCDataExchange@@@Z 0043d6f1 f   historydlg.obj
 0001:0003c716       ?OnSize@HistoryDlg@@AAEXIHH@Z 0043d716 f   historydlg.obj
 0001:0003c732       ?OnInitDialog@HistoryDlg@@EAEHXZ 0043d732 f   historydlg.obj
 0001:0003c7ce       ?AdjustSize@HistoryDlg@@AAEXXZ 0043d7ce f   historydlg.obj
 0001:0003c832       ?AdjustListColumnSize@HistoryDlg@@AAEXXZ 0043d832 f   historydlg.obj
 0001:0003c86b       ?OnDocumentActivated@HistoryDlg@@EAEXPAVCDocument@@@Z 0043d86b f   historydlg.obj
 0001:0003c8d5       ?GetListCtrlSingleCurSel@@YAHAAVCListCtrl@@@Z 0043d8d5 f   historydlg.obj
 0001:0003c8fb       ?OnDocumentUpdated@HistoryDlg@@EAEXPAVCDocument@@JPAVCObject@@@Z 0043d8fb f   historydlg.obj
 0001:0003c968       ?OnOwnerData@HistoryDlg@@AAEXPAUtagNMHDR@@PAJ@Z 0043d968 f   historydlg.obj
 0001:0003c972       ?OnDblclkHistory@HistoryDlg@@AAEXPAUtagNMHDR@@PAJ@Z 0043d972 f   historydlg.obj
 0001:0003c9b1       ?OnDrawItem@HistoryDlg@@AAEXHPAUtagDRAWITEMSTRUCT@@@Z 0043d9b1 f   historydlg.obj
 0001:0003cbed       ?OnMeasureItem@HistoryDlg@@AAEXHPAUtagMEASUREITEMSTRUCT@@@Z 0043dbed f   historydlg.obj
 0001:0003cc14       ??_EHistoryDlg@@WGA@AEPAXI@Z 0043dc14 f i historydlg.obj
 0001:0003cc1c       ?GetMessageMap@VersionDlg@@MBEPBUAFX_MSGMAP@@XZ 0043dc1c f   VersionDlg.obj
 0001:0003cc22       ??0VersionDlg@@QAE@XZ      0043dc22 f   VersionDlg.obj
 0001:0003cd7d       ??_GVersionDlg@@UAEPAXI@Z  0043dd7d f i VersionDlg.obj
 0001:0003cd7d       ??_EVersionDlg@@UAEPAXI@Z  0043dd7d f i VersionDlg.obj
 0001:0003cd99       ??1VersionDlg@@UAE@XZ      0043dd99 f i VersionDlg.obj
 0001:0003ce40       ?DoDataExchange@VersionDlg@@MAEXPAVCDataExchange@@@Z 0043de40 f   VersionDlg.obj
 0001:0003ceb6       ?OnWWW@VersionDlg@@IAEXI@Z 0043deb6 f   VersionDlg.obj
 0001:0003cef4       ?OnEraseBkgnd@VersionDlg@@IAEHPAVCDC@@@Z 0043def4 f   VersionDlg.obj
 0001:0003cf30       ?OnCtlColor@VersionDlg@@IAEPAUHBRUSH__@@PAVCDC@@PAVCWnd@@I@Z 0043df30 f   VersionDlg.obj
 0001:0003cf40       ?OnInitDialog@VersionDlg@@MAEHXZ 0043df40 f   VersionDlg.obj
 0001:0003cf84       ?OnPaint@CWnd@@IAEXXZ      0043df84 f i VersionDlg.obj
 0001:0003cf89       ?GetMessageMap@ActTableCtrl@@MBEPBUAFX_MSGMAP@@XZ 0043df89 f   acttablectrl.obj
 0001:0003cf8f       ??0ActTableCtrl@@QAE@XZ    0043df8f f   acttablectrl.obj
 0001:0003cff6       ??_EActTableCtrl@@UAEPAXI@Z 0043dff6 f i acttablectrl.obj
 0001:0003cff6       ??_GActTableCtrl@@UAEPAXI@Z 0043dff6 f i acttablectrl.obj
 0001:0003d012       ??1ActTableCtrl@@UAE@XZ    0043e012 f   acttablectrl.obj
 0001:0003d069       ?SetToolTipFormat@ActTableCtrl@@QAEXI@Z 0043e069 f   acttablectrl.obj
 0001:0003d076       ?Init@ActTableCtrl@@IAEXXZ 0043e076 f   acttablectrl.obj
 0001:0003d0ef       ?OnCreate@ActTableCtrl@@IAEHPAUtagCREATESTRUCTA@@@Z 0043e0ef f   acttablectrl.obj
 0001:0003d10d       ?SetAct@ActTableCtrl@@QAEXPBVAct@@@Z 0043e10d f   acttablectrl.obj
 0001:0003d13d       ?ResetAct@ActTableCtrl@@QAEXXZ 0043e13d f   acttablectrl.obj
 0001:0003d15c       ?SetTransColor@ActTableCtrl@@QAEXHK@Z 0043e15c f   acttablectrl.obj
 0001:0003d184       ?OnVScroll@ActTableCtrl@@IAEXIIPAVCScrollBar@@@Z 0043e184 f   acttablectrl.obj
 0001:0003d1c8       ?OnScroll@ActTableCtrl@@IAEHIIH@Z 0043e1c8 f   acttablectrl.obj
 0001:0003d253       ?OnScrollBy@ActTableCtrl@@IAEHVCSize@@H@Z 0043e253 f   acttablectrl.obj
 0001:0003d35c       ?GetDeviceScrollPosition@ActTableCtrl@@IBE?AVCPoint@@XZ 0043e35c f   acttablectrl.obj
 0001:0003d382       ?OnPrepareDC@ActTableCtrl@@IAEXAAVCDC@@@Z 0043e382 f   acttablectrl.obj
 0001:0003d3bd       ?OnPaint@ActTableCtrl@@IAEXXZ 0043e3bd f   acttablectrl.obj
 0001:0003d588       ?RecalcLayout@ActTableCtrl@@IAEXXZ 0043e588 f   acttablectrl.obj
 0001:0003d69b       ?OnMouseMove@ActTableCtrl@@IAEXIVCPoint@@@Z 0043e69b f   acttablectrl.obj
 0001:0003d6ed       ?OnNeedText@ActTableCtrl@@IAEHIPAUtagNMHDR@@PAJ@Z 0043e6ed f   acttablectrl.obj
 0001:0003d7dd       ?PreTranslateMessage@ActTableCtrl@@MAEHPAUtagMSG@@@Z 0043e7dd f   acttablectrl.obj
 0001:0003d806       ?DDX_ActTableCtrl@@YAXPAVCDataExchange@@HAAVActTableCtrl@@@Z 0043e806 f   acttablectrl.obj
 0001:0003d887       ?GetMessageMap@AppliFrameWnd@@MBEPBUAFX_MSGMAP@@XZ 0043e887 f   AppliFrameWnd.obj
 0001:0003d88d       ?CreateObject@AppliFrameWnd@@SGPAVCObject@@XZ 0043e88d f   AppliFrameWnd.obj
 0001:0003d8c2       ?GetRuntimeClass@AppliFrameWnd@@UBEPAUCRuntimeClass@@XZ 0043e8c2 f   AppliFrameWnd.obj
 0001:0003d8c8       ??0AppliFrameWnd@@IAE@XZ   0043e8c8 f   AppliFrameWnd.obj
 0001:0003d989       ??1COLMRefererListener@@MAE@XZ 0043e989 f i AppliFrameWnd.obj
 0001:0003d990       ??_GCOLMRefererListener@@MAEPAXI@Z 0043e990 f i AppliFrameWnd.obj
 0001:0003d990       ??_ECOLMRefererListener@@MAEPAXI@Z 0043e990 f i AppliFrameWnd.obj
 0001:0003d9ad       ??1ViewSwitchListener@@UAE@XZ 0043e9ad f i AppliFrameWnd.obj
 0001:0003d9b4       ??_GViewSwitchListener@@UAEPAXI@Z 0043e9b4 f i AppliFrameWnd.obj
 0001:0003d9b4       ??_EViewSwitchListener@@UAEPAXI@Z 0043e9b4 f i AppliFrameWnd.obj
 0001:0003d9d1       ??_EAppliFrameWnd@@EAEPAXI@Z 0043e9d1 f i AppliFrameWnd.obj
 0001:0003d9d1       ??_GAppliFrameWnd@@EAEPAXI@Z 0043e9d1 f i AppliFrameWnd.obj
 0001:0003d9ed       ??1ViewSwitch@@QAE@XZ      0043e9ed f i AppliFrameWnd.obj
 0001:0003da22       ??1?$CEventPublisher@VViewSwitch@@VViewSwitchListener@@@@QAE@XZ 0043ea22 f i AppliFrameWnd.obj
 0001:0003da27       ??1AppliFrameWnd@@EAE@XZ   0043ea27 f   AppliFrameWnd.obj
 0001:0003dad1       ?OpenCharModalGUI@AppliFrameWnd@@AAEHPAVSpicydogDoc@@PAVChar@@@Z 0043ead1 f   AppliFrameWnd.obj
 0001:0003db49       ?OpenNewCharViewGUI@AppliFrameWnd@@AAEXPAVSpicydogDoc@@PAVChar@@@Z 0043eb49 f   AppliFrameWnd.obj
 0001:0003dcc6       ?ReopenCharViewGUI@AppliFrameWnd@@AAEXPAVChar@@@Z 0043ecc6 f   AppliFrameWnd.obj
 0001:0003dda1       ??RCHARVIEWCMP@@QBEHABV?$auto_ptr@UCHARVIEW@AppliFrameWnd@@@std@@@Z 0043eda1 f i AppliFrameWnd.obj
 0001:0003dded       ?OpenCharGUI@AppliFrameWnd@@QAEHPAVChar@@@Z 0043eded f   AppliFrameWnd.obj
 0001:0003de8e       ?OnRemovedOLMObject@AppliFrameWnd@@EAEXPAVCOLMObject@@@Z 0043ee8e f   AppliFrameWnd.obj
 0001:0003dfd0       ?OnUpdateCloseCharView@AppliFrameWnd@@AAEXPAVCCmdUI@@@Z 0043efd0 f   AppliFrameWnd.obj
 0001:0003e034       ?OnUpdateCloseAllCharView@AppliFrameWnd@@AAEXPAVCCmdUI@@@Z 0043f034 f   AppliFrameWnd.obj
 0001:0003e0c1       ?OnCloseCharView@AppliFrameWnd@@AAEXXZ 0043f0c1 f   AppliFrameWnd.obj
 0001:0003e153       ?OnCloseAllCharView@AppliFrameWnd@@AAEXXZ 0043f153 f   AppliFrameWnd.obj
 0001:0003e20b       ?OnRemoveView@AppliFrameWnd@@EAEXHPAVCView@@@Z 0043f20b f   AppliFrameWnd.obj
 0001:0003e2fb       ?PreCreateWindow@AppliFrameWnd@@EAEHAAUtagCREATESTRUCTA@@@Z 0043f2fb f   AppliFrameWnd.obj
 0001:0003e30f       ?ActivateFrame@AppliFrameWnd@@EAEXH@Z 0043f30f f   AppliFrameWnd.obj
 0001:0003e324       ?OnUpdateFrameTitle@AppliFrameWnd@@EAEXH@Z 0043f324 f   AppliFrameWnd.obj
 0001:0003e38e       ?DestroyWindow@AppliFrameWnd@@EAEHXZ 0043f38e f   AppliFrameWnd.obj
 0001:0003e3b4       ?RecalcLayout@AppliFrameWnd@@EAEXH@Z 0043f3b4 f   AppliFrameWnd.obj
 0001:0003e43e       ?CreateViewBarWnd@AppliFrameWnd@@AAEHXZ 0043f43e f   AppliFrameWnd.obj
 0001:0003e44b       ?CreateMovieView@AppliFrameWnd@@AAEHXZ 0043f44b f   AppliFrameWnd.obj
 0001:0003e4d2       ?UpdateViewSwitchWnd@AppliFrameWnd@@QAEXXZ 0043f4d2 f   AppliFrameWnd.obj
 0001:0003e4dd       ?OnCreateClient@AppliFrameWnd@@EAEHPAUtagCREATESTRUCTA@@PAUCCreateContext@@@Z 0043f4dd f   AppliFrameWnd.obj
 0001:0003e541       ?OnClose@AppliFrameWnd@@EAEXXZ 0043f541 f   AppliFrameWnd.obj
 0001:0003e63a       ?OnActiveViewChanged@AppliFrameWnd@@EAEXHH@Z 0043f63a f   AppliFrameWnd.obj
 0001:0003e679       ?OnChildActivate@AppliFrameWnd@@EAEXXZ 0043f679 f   AppliFrameWnd.obj
 0001:0003e6a2       ?AppendListener@?$CEventPublisher@VViewSwitch@@VViewSwitchListener@@@@QAEXPAVViewSwitchListener@@@Z 0043f6a2 f i AppliFrameWnd.obj
 0001:0003e6d3       ?RemoveListener@?$CEventPublisher@VViewSwitch@@VViewSwitchListener@@@@QAEXPAVViewSwitchListener@@@Z 0043f6d3 f i AppliFrameWnd.obj
 0001:0003e70d       ??1?$list@VViewSwitchInfo@@V?$allocator@VViewSwitchInfo@@@std@@@std@@QAE@XZ 0043f70d f i AppliFrameWnd.obj
 0001:0003e745       ??1?$list@V?$auto_ptr@UCHARVIEW@AppliFrameWnd@@@std@@V?$allocator@V?$auto_ptr@UCHARVIEW@AppliFrameWnd@@@std@@@2@@std@@QAE@XZ 0043f745 f i AppliFrameWnd.obj
 0001:0003e77d       ?erase@?$list@V?$auto_ptr@UCHARVIEW@AppliFrameWnd@@@std@@V?$allocator@V?$auto_ptr@UCHARVIEW@AppliFrameWnd@@@std@@@2@@std@@QAE?AViterator@12@V312@@Z 0043f77d f i AppliFrameWnd.obj
 0001:0003e7b5       ??1?$auto_ptr@UCHARVIEW@AppliFrameWnd@@@std@@QAE@XZ 0043f7b5 f i AppliFrameWnd.obj
 0001:0003e7d2       ?insert@?$list@PAVCOLMReferer@@V?$allocator@PAVCOLMReferer@@@std@@@std@@QAE?AViterator@12@V312@ABQAVCOLMReferer@@@Z 0043f7d2 f i AppliFrameWnd.obj
 0001:0003e7d2       ?insert@?$list@PAVChar@@V?$allocator@PAVChar@@@std@@@std@@QAE?AViterator@12@V312@ABQAVChar@@@Z 0043f7d2 f i AppliFrameWnd.obj
 0001:0003e7d2       ?insert@?$list@PAVDialogSizingBar@@V?$allocator@PAVDialogSizingBar@@@std@@@std@@QAE?AViterator@12@V312@ABQAVDialogSizingBar@@@Z 0043f7d2 f i AppliFrameWnd.obj
 0001:0003e7d2       ?insert@?$list@PAVDocumentListener@@V?$allocator@PAVDocumentListener@@@std@@@std@@QAE?AViterator@12@V312@ABQAVDocumentListener@@@Z 0043f7d2 f i AppliFrameWnd.obj
 0001:0003e7d2       ?insert@?$list@PBVLabel@@V?$allocator@PBVLabel@@@std@@@std@@QAE?AViterator@12@V312@ABQBVLabel@@@Z 0043f7d2 f i AppliFrameWnd.obj
 0001:0003e7d2       ?insert@?$list@PAVViewSwitchListener@@V?$allocator@PAVViewSwitchListener@@@std@@@std@@QAE?AViterator@12@V312@ABQAVViewSwitchListener@@@Z 0043f7d2 f i AppliFrameWnd.obj
 0001:0003e80a       ?erase@?$list@VViewSwitchInfo@@V?$allocator@VViewSwitchInfo@@@std@@@std@@QAE?AViterator@12@V312@@Z 0043f80a f i AppliFrameWnd.obj
 0001:0003e842       ?_Buynode@?$list@VCString@@V?$allocator@VCString@@@std@@@std@@IAEPAU_Node@12@PAU312@0@Z 0043f842 f i AppliFrameWnd.obj
 0001:0003e842       ?_Buynode@?$list@PAVViewSwitchListener@@V?$allocator@PAVViewSwitchListener@@@std@@@std@@IAEPAU_Node@12@PAU312@0@Z 0043f842 f i AppliFrameWnd.obj
 0001:0003e842       ?_Buynode@?$list@PAVChar@@V?$allocator@PAVChar@@@std@@@std@@IAEPAU_Node@12@PAU312@0@Z 0043f842 f i AppliFrameWnd.obj
 0001:0003e842       ?_Buynode@?$list@PAVDialogSizingBar@@V?$allocator@PAVDialogSizingBar@@@std@@@std@@IAEPAU_Node@12@PAU312@0@Z 0043f842 f i AppliFrameWnd.obj
 0001:0003e842       ?_Buynode@?$list@PAVDocumentListener@@V?$allocator@PAVDocumentListener@@@std@@@std@@IAEPAU_Node@12@PAU312@0@Z 0043f842 f i AppliFrameWnd.obj
 0001:0003e842       ?_Buynode@?$list@PBVLabel@@V?$allocator@PBVLabel@@@std@@@std@@IAEPAU_Node@12@PAU312@0@Z 0043f842 f i AppliFrameWnd.obj
 0001:0003e842       ?_Buynode@?$list@PAVCOLMReferer@@V?$allocator@PAVCOLMReferer@@@std@@@std@@IAEPAU_Node@12@PAU312@0@Z 0043f842 f i AppliFrameWnd.obj
 0001:0003e866       ??_9@$BBAM@AE              0043f866 f i AppliFrameWnd.obj
 0001:0003e86e       ??_EAppliFrameWnd@@GOM@AEPAXI@Z 0043f86e f i AppliFrameWnd.obj
 0001:0003e879       ??_EAppliFrameWnd@@GPA@AEPAXI@Z 0043f879 f i AppliFrameWnd.obj
 0001:0003e8fa       ?CreateButton@BuildBar@@SGPAVSECStdBtn@@XZ 0043f8fa f   BuildBar.obj
 0001:0003e92c       ?GetButtonClass@BuildBar@@UBEPAUSECButtonClass@@XZ 0043f92c f   BuildBar.obj
 0001:0003e932       ??0BuildBar@@QAE@XZ        0043f932 f   BuildBar.obj
 0001:0003e99a       ??_EBuildBar@@UAEPAXI@Z    0043f99a f i BuildBar.obj
 0001:0003e99a       ??_GBuildBar@@UAEPAXI@Z    0043f99a f i BuildBar.obj
 0001:0003e9b6       ?clinit@BuildBar@@SAXXZ    0043f9b6 f   BuildBar.obj
 0001:0003e9ff       ??1BuildBar@@UAE@XZ        0043f9ff f   BuildBar.obj
 0001:0003ea5b       ?DrawIcon@BuildBar@@IAEXAAVCDC@@AAVCRect@@H@Z 0043fa5b f   BuildBar.obj
 0001:0003ea93       ?DrawMet@BuildBar@@IAEXAAVCDC@@AAVCRect@@HHK@Z 0043fa93 f   BuildBar.obj
 0001:0003eb50       ?DrawMetBkgnd@BuildBar@@IAEXAAVCDC@@AAVCRect@@@Z 0043fb50 f   BuildBar.obj
 0001:0003eb91       ?DrawErrMet@BuildBar@@IAEXAAVCDC@@AAVCRect@@I@Z 0043fb91 f   BuildBar.obj
 0001:0003ec1b       ?OnDocumentActivated@BuildBar@@MAEXPAVCDocument@@@Z 0043fc1b f   BuildBar.obj
 0001:0003ec30       ?OnBuilt@BuildBar@@IAEXKPAVCDocument@@@Z 0043fc30 f   BuildBar.obj
 0001:0003ec89       ?OnNotify@BuildBar@@MAEXKPAVCDocument@@JPAX@Z 0043fc89 f   BuildBar.obj
 0001:0003eca9       ?AdjustSize@BuildBar@@MAEXXZ 0043fca9 f   BuildBar.obj
 0001:0003ecba       ?DrawButton@BuildBar@@MAEXAAVCDC@@AAUSECBtnDrawData@@@Z 0043fcba f   BuildBar.obj
 0001:0003edd3       ??0?$TClassInitializer@VBuildBar@@@@QAE@XZ 0043fdd3 f i BuildBar.obj
 0001:0003ee32       ??1CSingleLock@@QAE@XZ     0043fe32 f i BuildBar.obj
 0001:0003ee41       ?s_cs@?$TClassInitializer@VBuildBar@@@@$D 0043fe41 f i BuildBar.obj
 0001:0003ee5c       ??0CCriticalSection@@QAE@XZ 0043fe5c f i BuildBar.obj
 0001:0003ee86       ?s_cs@?$TClassInitializer@VBuildBar@@@@$E 0043fe86 f i BuildBar.obj
 0001:0003eea1       ??_EBuildBar@@WCI@AEPAXI@Z 0043fea1 f i BuildBar.obj
 0001:0003eea9       ??0CharListCtrlDropTarget@@QAE@XZ 0043fea9 f   CharListCtrl.obj
 0001:0003eebf       ??1CharListCtrlDropTarget@@UAE@XZ 0043febf f i CharListCtrl.obj
 0001:0003eebf       ??1ListDropTarget@SECShortcutListCtrl@@UAE@XZ 0043febf f i CharListCtrl.obj
 0001:0003eec4       ?Register@CharListCtrlDropTarget@@QAEXPAVCWnd@@PAVCharListDlg@@@Z 0043fec4 f   CharListCtrl.obj
 0001:0003eed7       ?OnDragEnter@CharListCtrlDropTarget@@UAEKPAVCWnd@@PAVCOleDataObject@@KVCPoint@@@Z 0043fed7 f   CharListCtrl.obj
 0001:0003ef00       ?OnDragOver@CharListCtrlDropTarget@@UAEKPAVCWnd@@PAVCOleDataObject@@KVCPoint@@@Z 0043ff00 f   CharListCtrl.obj
 0001:0003ef1b       ?OnDrop@CharListCtrlDropTarget@@UAEHPAVCWnd@@PAVCOleDataObject@@KVCPoint@@@Z 0043ff1b f   CharListCtrl.obj
 0001:0003ef48       ?_GetBaseMessageMap@CharListCtrl@@KGPBUAFX_MSGMAP@@XZ 0043ff48 f   CharListCtrl.obj
 0001:0003ef4e       ?GetMessageMap@CharListCtrl@@MBEPBUAFX_MSGMAP@@XZ 0043ff4e f   CharListCtrl.obj
 0001:0003ef54       ??0CharListCtrl@@QAE@XZ    0043ff54 f   CharListCtrl.obj
 0001:0003efa4       ??_ECharListCtrl@@UAEPAXI@Z 0043ffa4 f i CharListCtrl.obj
 0001:0003efa4       ??_GCharListCtrl@@UAEPAXI@Z 0043ffa4 f i CharListCtrl.obj
 0001:0003efc0       ??1CharListCtrl@@UAE@XZ    0043ffc0 f   CharListCtrl.obj
 0001:0003f00a       ?Register@CharListCtrl@@QAEXPAVCharListDlg@@@Z 0044000a f   CharListCtrl.obj
 0001:0003f021       ?OnLButtonDown@CharListCtrl@@IAEXIVCPoint@@@Z 00440021 f   CharListCtrl.obj
 0001:0003f089       ?GetMessageMap@MainFrame@@MBEPBUAFX_MSGMAP@@XZ 00440089 f   MainFrame.obj
 0001:0003f08f       ?GetRuntimeClass@MainFrame@@UBEPAUCRuntimeClass@@XZ 0044008f f   MainFrame.obj
 0001:0003f095       ??0MainFrame@@QAE@XZ       00440095 f   MainFrame.obj
 0001:0003f1ce       ??_EMainFrame@@MAEPAXI@Z   004401ce f i MainFrame.obj
 0001:0003f1ce       ??_GMainFrame@@MAEPAXI@Z   004401ce f i MainFrame.obj
 0001:0003f1ea       ??1DialogSizingBarMgr@@QAE@XZ 004401ea f i MainFrame.obj
 0001:0003f1f2       ??1MultiAccel@@QAE@XZ      004401f2 f i MainFrame.obj
 0001:0003f227       ??1MainFrame@@MAE@XZ       00440227 f   MainFrame.obj
 0001:0003f305       ?OnCreate@MainFrame@@IAEHPAUtagCREATESTRUCTA@@@Z 00440305 f   MainFrame.obj
 0001:0003f469       ?CreateToolBox@MainFrame@@IAEHXZ 00440469 f   MainFrame.obj
 0001:0003f4ba       ?OnClose@MainFrame@@IAEXXZ 004404ba f   MainFrame.obj
 0001:0003f507       ?SetStatusBarPaneWidth@@YAXAAVSECStatusBar@@IH@Z 00440507 f   MainFrame.obj
 0001:0003f545       ?CreateStatusBar@MainFrame@@IAEHXZ 00440545 f   MainFrame.obj
 0001:0003f590       ?CreateToolBars@MainFrame@@IAEHXZ 00440590 f   MainFrame.obj
 0001:0003f86f       ?PreCreateWindow@MainFrame@@MAEHAAUtagCREATESTRUCTA@@@Z 0044086f f   MainFrame.obj
 0001:0003f88c       ?OnUpdateControlBarMenuEx@MainFrame@@IAEXPAVCCmdUI@@@Z 0044088c f   MainFrame.obj
 0001:0003f8c1       ?OnBarCheckEx@MainFrame@@IAEHI@Z 004408c1 f   MainFrame.obj
 0001:0003f8fa       ?OnPref@MainFrame@@IAEXXZ  004408fa f   MainFrame.obj
 0001:0003f9a8       ??0SpicydogPref@@QAE@ABV0@@Z 004409a8 f i MainFrame.obj
 0001:0003fa5b       ?OnWww@MainFrame@@IAEHI@Z  00440a5b f   MainFrame.obj
 0001:0003faba       ?OnHelp@MainFrame@@IAEXXZ  00440aba f   MainFrame.obj
 0001:0003fac8       ?IsModalLooping@@YAHPAVCWnd@@@Z 00440ac8 f   MainFrame.obj
 0001:0003fadd       ?ShowOwnedTools@MainFrame@@IAEXH@Z 00440add f   MainFrame.obj
 0001:0003fb72       ?OnSwitchTbr@MainFrame@@IAEXXZ 00440b72 f   MainFrame.obj
 0001:0003fb8c       ?OnUpdateSwitchTbr@MainFrame@@IAEXPAVCCmdUI@@@Z 00440b8c f   MainFrame.obj
 0001:0003fba0       ?UpdateAllViews@@YAXXZ     00440ba0 f   MainFrame.obj
 0001:0003fc03       ?OnDisplayGrid@MainFrame@@IAEXXZ 00440c03 f   MainFrame.obj
 0001:0003fc18       ?OnDisplayCenterGrid@MainFrame@@IAEXXZ 00440c18 f   MainFrame.obj
 0001:0003fc2d       ?OnDisplayPixelGrid@MainFrame@@IAEXXZ 00440c2d f   MainFrame.obj
 0001:0003fc42       ?OnUpdateDisplayGrid@MainFrame@@IAEXPAVCCmdUI@@@Z 00440c42 f   MainFrame.obj
 0001:0003fc5a       ?OnUpdateDisplayCenterGrid@MainFrame@@IAEXPAVCCmdUI@@@Z 00440c5a f   MainFrame.obj
 0001:0003fc72       ?OnUpdateDisplayPixelGrid@MainFrame@@IAEXPAVCCmdUI@@@Z 00440c72 f   MainFrame.obj
 0001:0003fc8a       ?OnEditGrid@MainFrame@@IAEXXZ 00440c8a f   MainFrame.obj
 0001:0003fcd6       ?OnActivateApp@MainFrame@@IAEXHPAUHTASK__@@@Z 00440cd6 f   MainFrame.obj
 0001:0003fcfa       ?OnActiveStateChanged@MainFrame@@IAEXXZ 00440cfa f   MainFrame.obj
 0001:0003fd06       ?OnCustomize@MainFrame@@IAEXXZ 00440d06 f   MainFrame.obj
 0001:0003ff87       ?OnCmdMsg@MainFrame@@MAEHIHPAXPAUAFX_CMDHANDLERINFO@@@Z 00440f87 f   MainFrame.obj
 0001:00040002       ?OnCommand@MainFrame@@MAEHIJ@Z 00441002 f   MainFrame.obj
 0001:00040065       ?GetActiveAccelerator@MainFrame@@QAEPAUHACCEL__@@XZ 00441065 f   MainFrame.obj
 0001:000400e4       ?CreateDialogSizingBar@MainFrame@@IAEHABUCREATE_DSB@@@Z 004410e4 f   MainFrame.obj
 0001:00040245       ?SuppressUpdateMenuForMenubar@SECMDIFrameWnd@@MAEHXZ 00441245 f i MainFrame.obj
 0001:0004024c       ??_ESECToolBarSheet@@UAEPAXI@Z 0044124c f i MainFrame.obj
 0001:0004024c       ??_GSECToolBarSheet@@UAEPAXI@Z 0044124c f i MainFrame.obj
 0001:00040268       ??1SECToolBarSheet@@UAE@XZ 00441268 f i MainFrame.obj
 0001:0004026d       ?GetMessageMap@ScaleBox@@MBEPBUAFX_MSGMAP@@XZ 0044126d f   ScaleBox.obj
 0001:000402e9       ?GetRuntimeClass@ScaleBox@@UBEPAUCRuntimeClass@@XZ 004412e9 f   ScaleBox.obj
 0001:000402ef       ?clinit@ScaleBox@@CAXXZ    004412ef f   ScaleBox.obj
 0001:0004036c       ??0ScaleBox@@QAE@XZ        0044136c f   ScaleBox.obj
 0001:000403da       ??_GScaleBox@@UAEPAXI@Z    004413da f i ScaleBox.obj
 0001:000403da       ??_EScaleBox@@UAEPAXI@Z    004413da f i ScaleBox.obj
 0001:000403f6       ??1ScaleBox@@UAE@XZ        004413f6 f   ScaleBox.obj
 0001:00040446       ?Scale2String@ScaleBox@@CA?AVCString@@N@Z 00441446 f   ScaleBox.obj
 0001:000404dd       ?CompareScale@ScaleBox@@CAHNN@Z 004414dd f   ScaleBox.obj
 0001:00040509       ?CompareScaleParamWithCurrent@ScaleBox@@ABEHHN@Z 00441509 f   ScaleBox.obj
 0001:00040539       ?SetScale@ScaleBox@@AAEXHN@Z 00441539 f   ScaleBox.obj
 0001:00040583       ?SelectScale@ScaleBox@@AAEXHN@Z 00441583 f   ScaleBox.obj
 0001:000405cf       ?OnScaleMenu@ScaleBox@@AAEXI@Z 004415cf f   ScaleBox.obj
 0001:000405e9       ?OnUpdateScaleMenu@ScaleBox@@AAEXPAVCCmdUI@@@Z 004415e9 f   ScaleBox.obj
 0001:00040623       ?OnSetScaleParam@ScaleBox@@AAEJIJ@Z 00441623 f   ScaleBox.obj
 0001:00040658       ?OnGetScaleParam@ScaleBox@@AAEJIJ@Z 00441658 f   ScaleBox.obj
 0001:00040671       ?Create@ScaleBox@@QAEHPAVCWnd@@VCPoint@@HI@Z 00441671 f   ScaleBox.obj
 0001:000406ed       ?OnCreate@ScaleBox@@AAEHPAUtagCREATESTRUCTA@@@Z 004416ed f   ScaleBox.obj
 0001:0004077a       ?OnPaint@ScaleBox@@AAEXXZ  0044177a f   ScaleBox.obj
 0001:000408f3       ?OnLButtonDown@ScaleBox@@AAEXIVCPoint@@@Z 004418f3 f   ScaleBox.obj
 0001:0004093d       ?EnterSelectScale@ScaleBox@@AAEXXZ 0044193d f   ScaleBox.obj
 0001:00040a17       ?EnterEditScale@ScaleBox@@AAEXXZ 00441a17 f   ScaleBox.obj
 0001:00040ac4       ?OnSetCursor@ScaleBox@@AAEHPAVCWnd@@II@Z 00441ac4 f   ScaleBox.obj
 0001:00040b41       ?OnGetDlgCode@BitmapButtonEx@@IAEIXZ 00441b41 f   ScaleBox.obj
 0001:00040b41       ?OnGetDlgCode@ScaleBox@@AAEIXZ 00441b41 f   ScaleBox.obj
 0001:00040b41       ?OnGetDlgCode@InToolBar@@AAEIXZ 00441b41 f   ScaleBox.obj
 0001:00040b41       ?OnGetDlgCode@ColorBoxEx@@IAEIXZ 00441b41 f   ScaleBox.obj
 0001:00040b47       ?OnSetFocus@ColorBoxEx@@IAEXPAVCWnd@@@Z 00441b47 f   ScaleBox.obj
 0001:00040b47       ?OnKillFocus@ColorBoxEx@@IAEXPAVCWnd@@@Z 00441b47 f   ScaleBox.obj
 0001:00040b47       ?OnEnable@ScaleBox@@AAEXH@Z 00441b47 f   ScaleBox.obj
 0001:00040b47       ?OnEnable@ColorBoxEx@@IAEXH@Z 00441b47 f   ScaleBox.obj
 0001:00040b57       ?OnScaleToFitSize@ScaleBox@@AAEXI@Z 00441b57 f   ScaleBox.obj
 0001:00040b90       ?OnUpdateScaleToFitSize@ScaleBox@@AAEXPAVCCmdUI@@@Z 00441b90 f   ScaleBox.obj
 0001:00040bf1       ??0SAUX_DATA@@QAE@XZ       00441bf1 f   ScrollViewEx.obj
 0001:00040c8f       ?_AfxGetMouseScrollLines@@YGIXZ 00441c8f f   ScrollViewEx.obj
 0001:00040dcd       ??0ScrollViewEx@@QAE@XZ    00441dcd f   ScrollViewEx.obj
 0001:00040e2c       ??_GScrollViewEx@@MAEPAXI@Z 00441e2c f i ScrollViewEx.obj
 0001:00040e2c       ??_EScrollViewEx@@MAEPAXI@Z 00441e2c f i ScrollViewEx.obj
 0001:00040e48       ??1ScrollViewEx@@MAE@XZ    00441e48 f   ScrollViewEx.obj
 0001:00040e8f       ?PreTranslateMessage@ScrollViewEx@@MAEHPAUtagMSG@@@Z 00441e8f f   ScrollViewEx.obj
 0001:00040eac       ?OnUpdateMouse@ScrollViewEx@@IAEXPAVCCmdUI@@@Z 00441eac f   ScrollViewEx.obj
 0001:00040f20       ?SetScrollSizes@ScrollViewEx@@IAEXUtagSIZE@@HUtagPOINT@@@Z 00441f20 f   ScrollViewEx.obj
 0001:00040f77       ?SetScale@ScrollViewEx@@QAEXN@Z 00441f77 f   ScrollViewEx.obj
 0001:00040fbd       ?Center@ScrollViewEx@@IAEXH@Z 00441fbd f   ScrollViewEx.obj
 0001:00040fc7       ?DPtoLP@ScrollViewEx@@QBEXPAUtagPOINT@@H@Z 00441fc7 f   ScrollViewEx.obj
 0001:00041021       ?LPtoDP@ScrollViewEx@@QBEXPAUtagPOINT@@H@Z 00442021 f   ScrollViewEx.obj
 0001:0004107b       ?DPtoLP@ScrollViewEx@@QBEXPAUtagSIZE@@@Z 0044207b f   ScrollViewEx.obj
 0001:000410d1       ?DPtoLP@ScrollViewEx@@QBEXPAUtagRECT@@@Z 004420d1 f   ScrollViewEx.obj
 0001:00041127       ?LPtoDP@ScrollViewEx@@QBEXPAUtagRECT@@@Z 00442127 f   ScrollViewEx.obj
 0001:0004117d       ?LPtoDP@ScrollViewEx@@QAEXAAV?$CArray@V?$CArray@UtagPOINT@@AAU1@@@AAV1@@@@Z 0044217d f   ScrollViewEx.obj
 0001:000411d3       ?LPtoDP@ScrollViewEx@@SAXPAVCDC@@AAV?$CArray@V?$CArray@UtagPOINT@@AAU1@@@AAV1@@@@Z 004421d3 f   ScrollViewEx.obj
 0001:00041206       ?LPtoDP@ScrollViewEx@@SAXPAVCDC@@PAUtagPOINT@@H@Z 00442206 f   ScrollViewEx.obj
 0001:000412c5       ?DPtoLP@ScrollViewEx@@SAXPAVCDC@@PAUtagPOINT@@H@Z 004422c5 f   ScrollViewEx.obj
 0001:00041384       ?LPtoDP@ScrollViewEx@@SAXPAVCDC@@PAUtagSIZE@@@Z 00442384 f   ScrollViewEx.obj
 0001:00041411       ?DPtoLP@ScrollViewEx@@SAXPAVCDC@@PAUtagSIZE@@@Z 00442411 f   ScrollViewEx.obj
 0001:0004149e       ?LPtoDP@ScrollViewEx@@SAXPAVCDC@@PAUtagRECT@@@Z 0044249e f   ScrollViewEx.obj
 0001:000414fe       ?DPtoLP@ScrollViewEx@@SAXPAVCDC@@PAUtagRECT@@@Z 004424fe f   ScrollViewEx.obj
 0001:0004155e       ?ScrollToCenter@ScrollViewEx@@QAEXXZ 0044255e f   ScrollViewEx.obj
 0001:0004156a       ?ScrollToCenter@ScrollViewEx@@QAEXVCPoint@@@Z 0044256a f   ScrollViewEx.obj
 0001:000415d2       ??K@YA?AVCSize@@ABV0@N@Z   004425d2 f i ScrollViewEx.obj
 0001:00041609       ?GetCenterScrollPosition@ScrollViewEx@@IBE?AVCPoint@@XZ 00442609 f   ScrollViewEx.obj
 0001:0004169d       ?ScrollToPosition@ScrollViewEx@@QAEXVCPoint@@@Z 0044269d f   ScrollViewEx.obj
 0001:00041728       ?GetDeviceScrollPosition@ScrollViewEx@@QBE?AVCPoint@@XZ 00442728 f   ScrollViewEx.obj
 0001:00041799       ?ScrollToDevicePosition@ScrollViewEx@@QAEXUtagPOINT@@@Z 00442799 f   ScrollViewEx.obj
 0001:000417f8       ?GetDocumentRect@ScrollViewEx@@QBEXPAUtagRECT@@@Z 004427f8 f   ScrollViewEx.obj
 0001:00041848       ?PtInDocumentRect@ScrollViewEx@@QBEHVCPoint@@@Z 00442848 f   ScrollViewEx.obj
 0001:0004186b       ?ResizeParentToFit@ScrollViewEx@@QAEXH@Z 0044286b f   ScrollViewEx.obj
 0001:00041985       ?GetScrollBarSizes@ScrollViewEx@@IBEXAAVCSize@@@Z 00442985 f   ScrollViewEx.obj
 0001:000419df       ?GetTrueClientSize@ScrollViewEx@@IBEHAAVCSize@@0@Z 004429df f   ScrollViewEx.obj
 0001:00041a54       ?GetScrollBarState@ScrollViewEx@@IBEXVCSize@@AAV2@1AAVCPoint@@H@Z 00442a54 f   ScrollViewEx.obj
 0001:00041b19       ?UpdateBars@ScrollViewEx@@IAEXXZ 00442b19 f   ScrollViewEx.obj
 0001:00041c9a       ?OnHScroll@ScrollViewEx@@IAEXIIPAVCScrollBar@@@Z 00442c9a f   ScrollViewEx.obj
 0001:00041cde       ?OnVScroll@ScrollViewEx@@IAEXIIPAVCScrollBar@@@Z 00442cde f   ScrollViewEx.obj
 0001:00041d26       ?OnMouseWheel@ScrollViewEx@@IAEHIFVCPoint@@@Z 00442d26 f   ScrollViewEx.obj
 0001:00041d5a       ?DoMouseWheel@ScrollViewEx@@IAEHIFVCPoint@@@Z 00442d5a f   ScrollViewEx.obj
 0001:00041e85       ?OnScroll@ScrollViewEx@@MAEHIIH@Z 00442e85 f   ScrollViewEx.obj
 0001:00041f62       ?OnScrollBy@ScrollViewEx@@MAEHVCSize@@H@Z 00442f62 f   ScrollViewEx.obj
 0001:0004205e       ?OnPaint@ScrollViewEx@@IAEXXZ 0044305e f   ScrollViewEx.obj
 0001:00042239       ?DrawDocumentBorder@ScrollViewEx@@IBEXPAVCDC@@PAVCBrush@@@Z 00443239 f   ScrollViewEx.obj
 0001:000422bd       ??0CSetDCtoDP@@QAE@PAVCDC@@@Z 004432bd f i ScrollViewEx.obj
 0001:00042300       ??1CSetDCtoDP@@QAE@XZ      00443300 f i ScrollViewEx.obj
 0001:0004230d       ?MaskDocumentRect@ScrollViewEx@@IBEXPAVCDC@@H@Z 0044330d f   ScrollViewEx.obj
 0001:0004239d       ?FillBkgnd@ScrollViewEx@@IBEXPAVCDC@@PAVCBrush@@@Z 0044339d f   ScrollViewEx.obj
 0001:000423e9       ?FillDocumentRect@ScrollViewEx@@IBEXPAVCDC@@PAVCBrush@@@Z 004433e9 f   ScrollViewEx.obj
 0001:0004244c       ?FillScrollabeRect@ScrollViewEx@@IBEXPAVCDC@@PAVCBrush@@@Z 0044344c f   ScrollViewEx.obj
 0001:000424e3       ?DrawCenterLine@ScrollViewEx@@IAEXPAVCDC@@AAVCPen@@@Z 004434e3 f   ScrollViewEx.obj
 0001:00042581       ?DrawGridHelper@ScrollViewEx@@IAEXPAVCDC@@AAVCPen@@H@Z 00443581 f   ScrollViewEx.obj
 0001:0004265b       ?OnInitialUpdate@ScrollViewEx@@MAEXXZ 0044365b f   ScrollViewEx.obj
 0001:0004266f       ?OnUpdateScale@ScrollViewEx@@IAEXPAVCCmdUI@@@Z 0044366f f   ScrollViewEx.obj
 0001:000426c8       ?OnSize@ScrollViewEx@@IAEXIHH@Z 004436c8 f   ScrollViewEx.obj
 0001:0004270b       ?OnPrepareDC@ScrollViewEx@@MAEXPAVCDC@@PAUCPrintInfo@@@Z 0044370b f   ScrollViewEx.obj
 0001:000428a3       ??D@YA?AVCSize@@ABV0@N@Z   004438a3 f i ScrollViewEx.obj
 0001:000428da       ?OnScale@ScrollViewEx@@IAEXXZ 004438da f   ScrollViewEx.obj
 0001:00042954       ?SetScaleTotalToFitSize@ScrollViewEx@@QAEXXZ 00443954 f   ScrollViewEx.obj
 0001:00042960       ?SetScaleDocumentToFitSize@ScrollViewEx@@QAEXXZ 00443960 f   ScrollViewEx.obj
 0001:00042969       ?CalcScale@ScrollViewEx@@KANVCSize@@0@Z 00443969 f   ScrollViewEx.obj
 0001:000429c2       ?UpdateScrollSizes@ScrollViewEx@@IAEXXZ 004439c2 f   ScrollViewEx.obj
 0001:00042bb3       ?CalcWindowRect@ScrollViewEx@@MAEXPAUtagRECT@@I@Z 00443bb3 f   ScrollViewEx.obj
 0001:00042c43       ?DrawCross@@YAXAAVCDC@@VCPoint@@@Z 00443c43 f   ScrollViewEx.obj
 0001:00042c8f       ?DrawCenter@ScrollViewEx@@IAEXPAVCDC@@VCPoint@@@Z 00443c8f f   ScrollViewEx.obj
 0001:00042d7f       ??_EScrollViewEx@@OEE@AEPAXI@Z 00443d7f f i ScrollViewEx.obj
 0001:00042d87       ?GetMessageMap@ToolsBoxBar@@MBEPBUAFX_MSGMAP@@XZ 00443d87 f   ToolsBoxBar.obj
 0001:00042d8d       ??0ToolsBoxBar@@QAE@XZ     00443d8d f   ToolsBoxBar.obj
 0001:00042e03       ??_GToolsBoxBar@@UAEPAXI@Z 00443e03 f i ToolsBoxBar.obj
 0001:00042e03       ??_EToolsBoxBar@@UAEPAXI@Z 00443e03 f i ToolsBoxBar.obj
 0001:00042e1f       ??1ToolsBoxBar@@UAE@XZ     00443e1f f   ToolsBoxBar.obj
 0001:00042eb0       ?CreateMe@ToolsBoxBar@@AAEHPAVCWnd@@I@Z 00443eb0 f   ToolsBoxBar.obj
 0001:00042f1a       ?Create@ToolsBoxBar@@QAEHPAVCWnd@@I@Z 00443f1a f   ToolsBoxBar.obj
 0001:000430b5       ?CalcDynamicLayout@ToolsBoxBar@@EAE?AVCSize@@HK@Z 004440b5 f   ToolsBoxBar.obj
 0001:000430cd       ?OnUpdateCmdUI@ToolsBoxBar@@UAEXPAVCFrameWnd@@H@Z 004440cd f   ToolsBoxBar.obj
 0001:000430db       ?OnClrBoxSelect@ToolsBoxBar@@AAEJIJ@Z 004440db f   ToolsBoxBar.obj
 0001:00043171       ?OnEraseBkgnd@ToolsBoxBar@@AAEHPAVCDC@@@Z 00444171 f   ToolsBoxBar.obj
 0001:000431a0       ?OnCmdMsg@ToolsBoxBar@@EAEHIHPAXPAUAFX_CMDHANDLERINFO@@@Z 004441a0 f   ToolsBoxBar.obj
 0001:000431df       ??0ViewSwitchInfo@@QAE@XZ  004441df f   ViewSwitch.obj
 0001:000431f8       ??0ViewSwitchInfo@@QAE@PAVCView@@PBDHI@Z 004441f8 f   ViewSwitch.obj
 0001:00043221       ??0ViewSwitchInfo@@QAE@ABV0@@Z 00444221 f   ViewSwitch.obj
 0001:00043259       ??4ViewSwitchInfo@@QAEAAV0@ABV0@@Z 00444259 f   ViewSwitch.obj
 0001:0004326b       ?GetActiveDocument@DocumentNotifier@@QBEPAVCDocument@@XZ 0044426b f   ViewSwitch.obj
 0001:0004326b       ?GetResult@BuildOutput@@QBE?AW4STATE@1@XZ 0044426b f   ViewSwitch.obj
 0001:0004326b       ?GetView@ViewSwitchInfo@@QBEPAVCView@@XZ 0044426b f   ViewSwitch.obj
 0001:0004326b       ?GetSubject@AppBugDump@@QBEPBDXZ 0044426b f   ViewSwitch.obj
 0001:0004326b       ?GetAccel@Accel@@QBEPAUHACCEL__@@XZ 0044426b f   ViewSwitch.obj
 0001:0004326e       ?GetCaption@ViewSwitchInfo@@QBE?AVCString@@XZ 0044426e f   ViewSwitch.obj
 0001:000432e7       ?CopyFrom@ViewSwitchInfo@@AAEXABV1@@Z 004442e7 f   ViewSwitch.obj
 0001:00043310       ??0ViewSwitch@@QAE@XZ      00444310 f   ViewSwitch.obj
 0001:00043366       ?GetFontHeight@CNativeCharDrawer@@UBEHXZ 00444366 f   ViewSwitch.obj
 0001:00043366       ?GetLabelAbsolutePos@Label@@QBEHXZ 00444366 f   ViewSwitch.obj
 0001:00043366       ?GetActiveControlerID@CntMgr@@UBEIXZ 00444366 f   ViewSwitch.obj
 0001:00043366       ?GetViewCount@ViewSwitch@@QBEHXZ 00444366 f   ViewSwitch.obj
 0001:0004336a       ?GetViewInfo@ViewSwitch@@QBEXHAAVViewSwitchInfo@@@Z 0044436a f   ViewSwitch.obj
 0001:000433a2       ?ActivateView@ViewSwitch@@QAEXH@Z 004443a2 f   ViewSwitch.obj
 0001:000433bb       ?GetFramePos@KeyFrame@@QBEHXZ 004443bb f   ViewSwitch.obj
 0001:000433bb       ?GetActiveView@ViewSwitch@@QBEHXZ 004443bb f   ViewSwitch.obj
 0001:000433bb       ?GetLength@SMAFPlayer@@QBEHXZ 004443bb f   ViewSwitch.obj
 0001:000433bf       ?AppendView@ViewSwitch@@QAEHPAVCView@@PBDHI@Z 004443bf f   ViewSwitch.obj
 0001:0004341b       ?RemoveView@ViewSwitch@@QAEXH@Z 0044441b f   ViewSwitch.obj
 0001:000434bb       ?FireRemoveView@ViewSwitch@@AAEXHPAVCView@@@Z 004444bb f   ViewSwitch.obj
 0001:000434d7       ?EnumRemoveView@ViewSwitch@@AAEXPAV1@PAVViewSwitchListener@@@Z 004444d7 f   ViewSwitch.obj
 0001:000434ea       ?FireActiveViewChanged@ViewSwitch@@AAEXHH@Z 004444ea f   ViewSwitch.obj
 0001:00043506       ?EnumActiveViewChanged@ViewSwitch@@AAEXPAV1@PAVViewSwitchListener@@@Z 00444506 f   ViewSwitch.obj
 0001:0004351a       ?EnumListeners@?$CEventPublisher@VViewSwitch@@VViewSwitchListener@@@@QAEXPAVViewSwitch@@P82@AEX0PAVViewSwitchListener@@@Z@Z 0044451a f i ViewSwitch.obj
 0001:00043570       ??0?$list@PAVCOLMReferer@@V?$allocator@PAVCOLMReferer@@@std@@@std@@QAE@ABV01@@Z 00444570 f i ViewSwitch.obj
 0001:00043570       ??0?$list@PAVViewSwitchListener@@V?$allocator@PAVViewSwitchListener@@@std@@@std@@QAE@ABV01@@Z 00444570 f i ViewSwitch.obj
 0001:000435bc       ?insert@?$list@VViewSwitchInfo@@V?$allocator@VViewSwitchInfo@@@std@@@std@@QAE?AViterator@12@V312@ABVViewSwitchInfo@@@Z 004445bc f i ViewSwitch.obj
 0001:000435f6       ?_Buynode@?$list@VViewSwitchInfo@@V?$allocator@VViewSwitchInfo@@@std@@@std@@IAEPAU_Node@12@PAU312@0@Z 004445f6 f i ViewSwitch.obj
 0001:0004361a       ?_Construct@std@@YAXPAVViewSwitchInfo@@ABV2@@Z 0044461a f i ViewSwitch.obj
 0001:00043647       ?_GetBaseMessageMap@InToolBar@@KGPBUAFX_MSGMAP@@XZ 00444647 f   ViewSwitchWnd.obj
 0001:00043647       ?_GetBaseMessageMap@ToolBarWnd@@KGPBUAFX_MSGMAP@@XZ 00444647 f   ViewSwitchWnd.obj
 0001:00043647       ?_GetBaseMessageMap@SECWorkbookClientWnd@@KGPBUAFX_MSGMAP@@XZ 00444647 f   ViewSwitchWnd.obj
 0001:00043647       ?_GetBaseMessageMap@SplashWnd@@KGPBUAFX_MSGMAP@@XZ 00444647 f   ViewSwitchWnd.obj
 0001:00043647       ?_GetBaseMessageMap@SECListEdit@@KGPBUAFX_MSGMAP@@XZ 00444647 f   ViewSwitchWnd.obj
 0001:00043647       ?_GetBaseMessageMap@InWnd@@KGPBUAFX_MSGMAP@@XZ 00444647 f   ViewSwitchWnd.obj
 0001:00043647       ?_GetBaseMessageMap@ColorBoxEx@@KGPBUAFX_MSGMAP@@XZ 00444647 f   ViewSwitchWnd.obj
 0001:00043647       ?_GetBaseMessageMap@BitmapButtonEx@@KGPBUAFX_MSGMAP@@XZ 00444647 f   ViewSwitchWnd.obj
 0001:00043647       ?_GetBaseMessageMap@ColorFaceButton@@KGPBUAFX_MSGMAP@@XZ 00444647 f   ViewSwitchWnd.obj
 0001:00043647       ?_GetBaseMessageMap@HyperlinkLabel@@KGPBUAFX_MSGMAP@@XZ 00444647 f   ViewSwitchWnd.obj
 0001:00043647       ?_GetBaseMessageMap@SECListTip@@KGPBUAFX_MSGMAP@@XZ 00444647 f   ViewSwitchWnd.obj
 0001:00043647       ?_GetBaseMessageMap@InPlaceEdit@@KGPBUAFX_MSGMAP@@XZ 00444647 f   ViewSwitchWnd.obj
 0001:00043647       ?_GetBaseMessageMap@SECListCtrl@@KGPBUAFX_MSGMAP@@XZ 00444647 f   ViewSwitchWnd.obj
 0001:00043647       ?_GetBaseMessageMap@ViewSwitchWnd@@KGPBUAFX_MSGMAP@@XZ 00444647 f   ViewSwitchWnd.obj
 0001:00043647       ?_GetBaseMessageMap@SplitterCtrl@@KGPBUAFX_MSGMAP@@XZ 00444647 f   ViewSwitchWnd.obj
 0001:00043647       ?_GetBaseMessageMap@FontStatic@@KGPBUAFX_MSGMAP@@XZ 00444647 f   ViewSwitchWnd.obj
 0001:00043647       ?_GetBaseMessageMap@ColorBox@@KGPBUAFX_MSGMAP@@XZ 00444647 f   ViewSwitchWnd.obj
 0001:00043647       ?_GetBaseMessageMap@ActTableCtrl@@KGPBUAFX_MSGMAP@@XZ 00444647 f   ViewSwitchWnd.obj
 0001:00043647       ?_GetBaseMessageMap@BitmapStatic@@KGPBUAFX_MSGMAP@@XZ 00444647 f   ViewSwitchWnd.obj
 0001:00043647       ?_GetBaseMessageMap@SECMenuListBox@@KGPBUAFX_MSGMAP@@XZ 00444647 f   ViewSwitchWnd.obj
 0001:00043647       ?_GetBaseMessageMap@PreviewStatic@@KGPBUAFX_MSGMAP@@XZ 00444647 f   ViewSwitchWnd.obj
 0001:00043647       ?_GetBaseMessageMap@ScaleBox@@KGPBUAFX_MSGMAP@@XZ 00444647 f   ViewSwitchWnd.obj
 0001:00043647       ?_GetBaseMessageMap@SECCaptionControlMsgFilterTimer@@KGPBUAFX_MSGMAP@@XZ 00444647 f   ViewSwitchWnd.obj
 0001:0004364d       ?GetMessageMap@ViewSwitchWnd@@MBEPBUAFX_MSGMAP@@XZ 0044464d f   ViewSwitchWnd.obj
 0001:00043653       ??0ViewSwitchWnd@@QAE@AAVViewSwitch@@@Z 00444653 f   ViewSwitchWnd.obj
 0001:000436e0       ??_GViewSwitchWnd@@UAEPAXI@Z 004446e0 f i ViewSwitchWnd.obj
 0001:000436e0       ??_EViewSwitchWnd@@UAEPAXI@Z 004446e0 f i ViewSwitchWnd.obj
 0001:000436fc       ?Create@ViewSwitchWnd@@QAEHPAVCWnd@@@Z 004446fc f   ViewSwitchWnd.obj
 0001:000437f4       ?Update@ViewSwitchWnd@@QAEXXZ 004447f4 f   ViewSwitchWnd.obj
 0001:000438da       ?OnSize@ViewSwitchWnd@@IAEXIHH@Z 004448da f   ViewSwitchWnd.obj
 0001:000438ed       ?RecalcLayout@ViewSwitchWnd@@QAEXXZ 004448ed f   ViewSwitchWnd.obj
 0001:00043933       ?RecalcChildsLayout@ViewSwitchWnd@@AAEXXZ 00444933 f   ViewSwitchWnd.obj
 0001:00043951       ??1ViewSwitchWnd@@UAE@XZ   00444951 f   ViewSwitchWnd.obj
 0001:000439bf       ?OnEraseBkgnd@ActTableCtrl@@IAEHPAVCDC@@@Z 004449bf f   ViewSwitchWnd.obj
 0001:000439bf       ?OnEraseBkgnd@InWnd@@IAEHPAVCDC@@@Z 004449bf f   ViewSwitchWnd.obj
 0001:000439bf       ?OnEraseBkgnd@SplashWnd@@AAEHPAVCDC@@@Z 004449bf f   ViewSwitchWnd.obj
 0001:000439bf       ?OnEraseBkgnd@ViewSwitchWnd@@IAEHPAVCDC@@@Z 004449bf f   ViewSwitchWnd.obj
 0001:000439bf       ?OnEraseBkgnd@ScrollViewEx@@IAEHPAVCDC@@@Z 004449bf f   ViewSwitchWnd.obj
 0001:000439bf       ?OnWorkspace@SECMDIFrameWnd@@IAEHI@Z 004449bf f   ViewSwitchWnd.obj
 0001:000439bf       ?OnEraseBkgnd@ColorBox@@IAEHPAVCDC@@@Z 004449bf f   ViewSwitchWnd.obj
 0001:000439bf       ?OnWorkspace@SECFrameWnd@@QAEHI@Z 004449bf f   ViewSwitchWnd.obj
 0001:000439bf       ?OnEraseBkgnd@SECListBaseC@@IAEHPAVCDC@@@Z 004449bf f   ViewSwitchWnd.obj
 0001:000439bf       ?OnEraseBkgnd@ColorBoxEx@@IAEHPAVCDC@@@Z 004449bf f   ViewSwitchWnd.obj
 0001:000439bf       ?OnNewWorksheetSelected@SECWorkbookWnd@@MAEHPAVSECWorksheetWnd@@@Z 004449bf f   ViewSwitchWnd.obj
 0001:000439bf       ?CanRead@VerJ3SDOMReader@@UAEHPAVCFile@@@Z 004449bf f   ViewSwitchWnd.obj
 0001:000439bf       ?OnEraseBkgnd@SECListBaseV@@IAEHPAVCDC@@@Z 004449bf f   ViewSwitchWnd.obj
 0001:000439c5       ?OnPaint@ViewSwitchWnd@@IAEXXZ 004449c5 f   ViewSwitchWnd.obj
 0001:00043a2f       ?DrawBkgnd@ViewSwitchWnd@@AAEXAAVCDC@@@Z 00444a2f f   ViewSwitchWnd.obj
 0001:00043ac1       ?DrawViewTabs@ViewSwitchWnd@@AAEXAAVCDC@@@Z 00444ac1 f   ViewSwitchWnd.obj
 0001:00043bc4       ?RecalcCloseBtn@ViewSwitchWnd@@AAEXXZ 00444bc4 f   ViewSwitchWnd.obj
 0001:00043c98       ?RecalcViewTabLayout@ViewSwitchWnd@@AAEXXZ 00444c98 f   ViewSwitchWnd.obj
 0001:00043e8c       ?CreateCloseButton@ViewSwitchWnd@@AAEXXZ 00444e8c f   ViewSwitchWnd.obj
 0001:00043e96       ?OnCloseBtn@ViewSwitchWnd@@IAEXXZ 00444e96 f   ViewSwitchWnd.obj
 0001:00043f20       ?HitTabs@ViewSwitchWnd@@AAEHVCPoint@@@Z 00444f20 f   ViewSwitchWnd.obj
 0001:00043f69       ?OnLButtonDown@ViewSwitchWnd@@IAEXIVCPoint@@@Z 00444f69 f   ViewSwitchWnd.obj
 0001:00043fc9       ?OnRButtonDown@ViewSwitchWnd@@IAEXIVCPoint@@@Z 00444fc9 f   ViewSwitchWnd.obj
 0001:0004401d       ??0VirtualButton@ViewSwitchWnd@@QAE@XZ 0044501d f   ViewSwitchWnd.obj
 0001:00044027       ?Create@VirtualButton@ViewSwitchWnd@@QAEHPAVCWnd@@@Z 00445027 f   ViewSwitchWnd.obj
 0001:00044033       ?Move@VirtualButton@ViewSwitchWnd@@QAEXABVCRect@@@Z 00445033 f   ViewSwitchWnd.obj
 0001:00044045       ?GetRect@VirtualButton@ViewSwitchWnd@@QAEXAAVCRect@@@Z 00445045 f   ViewSwitchWnd.obj
 0001:00044057       ?HitTest@VirtualButton@ViewSwitchWnd@@QAEHVCPoint@@@Z 00445057 f   ViewSwitchWnd.obj
 0001:0004407d       ?Invalidate@VirtualButton@ViewSwitchWnd@@QAEXXZ 0044507d f   ViewSwitchWnd.obj
 0001:000440bf       ?Show@VirtualButton@ViewSwitchWnd@@QAEXH@Z 004450bf f   ViewSwitchWnd.obj
 0001:000440ce       ?IsExec@CCmdExec@@QBEHXZ   004450ce f   ViewSwitchWnd.obj
 0001:000440ce       ?GetBuiltSize@Buildable@@QBEHXZ 004450ce f   ViewSwitchWnd.obj
 0001:000440ce       ?IsCapturing@CursorCapture@@QBEHXZ 004450ce f   ViewSwitchWnd.obj
 0001:000440ce       ?IsVisible@VirtualButton@ViewSwitchWnd@@QBEHXZ 004450ce f   ViewSwitchWnd.obj
 0001:000440ce       ?GetPlayFrame@Player@@QBEHXZ 004450ce f   ViewSwitchWnd.obj
 0001:000440ce       ?GetObjectA@COLMObjectPtr@@QAEPAVCOLMObject@@XZ 004450ce f   ViewSwitchWnd.obj
 0001:000440ce       ?GetBody@AppBugDump@@QBEPBDXZ 004450ce f   ViewSwitchWnd.obj
 0001:000440ce       ?IsClosable@ViewSwitchInfo@@QBEHXZ 004450ce f   ViewSwitchWnd.obj
 0001:000440ce       ?IsSelected@Selectable@@QBEHXZ 004450ce f   ViewSwitchWnd.obj
 0001:000440ce       ?GetFrameWnd@SECControlBarManager@@UBEPAVCFrameWnd@@XZ 004450ce f   ViewSwitchWnd.obj
 0001:000440ce       ?GetDefaultAccelerator@AccelOwner@@UAEPAUHACCEL__@@XZ 004450ce f   ViewSwitchWnd.obj
 0001:000440ce       ?GetFrameCount@KeyFrameOwners@@QBEHXZ 004450ce f   ViewSwitchWnd.obj
 0001:000440ce       ?GetObjectA@COLMObjectPtr@@QBEPBVCOLMObject@@XZ 004450ce f   ViewSwitchWnd.obj
 0001:000440ce       ?GetHandle@GlobalAllocator@@QBEPAXXZ 004450ce f   ViewSwitchWnd.obj
 0001:000440d2       ?OnPaint@VirtualButton@ViewSwitchWnd@@QAEXPAVCDC@@@Z 004450d2 f   ViewSwitchWnd.obj
 0001:00044113       ?OnLButtonDown@VirtualButton@ViewSwitchWnd@@QAEXVCPoint@@@Z 00445113 f   ViewSwitchWnd.obj
 0001:0004423d       ?resize@?$vector@UViewTabInfo@ViewSwitchWnd@@V?$allocator@UViewTabInfo@ViewSwitchWnd@@@std@@@std@@QAEXIABUViewTabInfo@ViewSwitchWnd@@@Z 0044523d f i ViewSwitchWnd.obj
 0001:0004429e       ?insert@?$vector@UViewTabInfo@ViewSwitchWnd@@V?$allocator@UViewTabInfo@ViewSwitchWnd@@@std@@@std@@QAEXPAUViewTabInfo@ViewSwitchWnd@@IABU34@@Z 0044529e f i ViewSwitchWnd.obj
 0001:000444a5       ?erase@?$vector@UViewTabInfo@ViewSwitchWnd@@V?$allocator@UViewTabInfo@ViewSwitchWnd@@@std@@@std@@QAEPAUViewTabInfo@ViewSwitchWnd@@PAU34@0@Z 004454a5 f i ViewSwitchWnd.obj
 0001:000444dd       ?GetMessageMap@BtnCharView@@MBEPBUAFX_MSGMAP@@XZ 004454dd f   BtnCharView.obj
 0001:000444e3       ?CreateObject@BtnCharView@@SGPAVCObject@@XZ 004454e3 f   BtnCharView.obj
 0001:00044518       ?_GetBaseClass@SndCharView@@KGPAUCRuntimeClass@@XZ 00445518 f   BtnCharView.obj
 0001:00044518       ?_GetBaseClass@BtnCharView@@KGPAUCRuntimeClass@@XZ 00445518 f   BtnCharView.obj
 0001:00044518       ?_GetBaseClass@TextCharView@@KGPAUCRuntimeClass@@XZ 00445518 f   BtnCharView.obj
 0001:00044518       ?GetRuntimeClass@CharDialog@@UBEPAUCRuntimeClass@@XZ 00445518 f   BtnCharView.obj
 0001:0004451e       ?GetRuntimeClass@BtnCharView@@UBEPAUCRuntimeClass@@XZ 0044551e f   BtnCharView.obj
 0001:0004459a       ?clinit@BtnCharView@@SAXXZ 0044559a f   BtnCharView.obj
 0001:000445ea       ??0BtnCharView@@QAE@XZ     004455ea f   BtnCharView.obj
 0001:000446bc       ??_EBtnCharView@@UAEPAXI@Z 004456bc f i BtnCharView.obj
 0001:000446bc       ??_GBtnCharView@@UAEPAXI@Z 004456bc f i BtnCharView.obj
 0001:000446d8       ??1BtnCharView@@UAE@XZ     004456d8 f i BtnCharView.obj
 0001:00044767       ?InitBtnableCharList@BtnCharView@@AAEXXZ 00445767 f   BtnCharView.obj
 0001:000447d6       ?OnInitDialog@BtnCharView@@EAEHXZ 004457d6 f   BtnCharView.obj
 0001:00044a25       ?SetButtonIcon@BtnCharView@@AAEXII@Z 00445a25 f   BtnCharView.obj
 0001:00044a69       ?DoDataExchange@BtnCharView@@EAEXPAVCDataExchange@@@Z 00445a69 f   BtnCharView.obj
 0001:00044cbf       ?OnUpdateData@BtnCharView@@AAEXXZ 00445cbf f   BtnCharView.obj
 0001:00044cce       ?UpdateControls@BtnCharView@@AAEXXZ 00445cce f   BtnCharView.obj
 0001:00044d31       ?GetBtnChar@BtnCharView@@AAEPAVBtnChar@@XZ 00445d31 f   BtnCharView.obj
 0001:00044d4e       ?DeleteComboBozAllItems@@YAXAAVCComboBox@@@Z 00445d4e f   BtnCharView.obj
 0001:00044d4e       ?removeAllComoboBox@@YAXAAVCComboBox@@@Z 00445d4e f   BtnCharView.obj
 0001:00044d88       ?UpdateCharList@BtnCharView@@AAEXXZ 00445d88 f   BtnCharView.obj
 0001:00044f4d       ?OnOK@BtnCharView@@EAEXXZ  00445f4d f   BtnCharView.obj
 0001:00044fdf       ?GetDocument@BtnCharView@@AAEPAVSpicydogDoc@@XZ 00445fdf f   BtnCharView.obj
 0001:00044fdf       ?GetDocument@TextCharView@@AAEPAVSpicydogDoc@@XZ 00445fdf f   BtnCharView.obj
 0001:00044ff2       ?OnEditMailEvent@BtnCharView@@AAEXXZ 00445ff2 f   BtnCharView.obj
 0001:00045050       ?OnEditTelEvent@BtnCharView@@AAEXXZ 00446050 f   BtnCharView.obj
 0001:000450af       ?OnEditScheduleEvent@BtnCharView@@AAEXXZ 004460af f   BtnCharView.obj
 0001:0004510e       ?OnPSPaint@BtnCharView@@EAEXAAVPreviewStatic@@@Z 0044610e f   BtnCharView.obj
 0001:000451d6       ??1?$vector@PBVSndChar@@V?$allocator@PBVSndChar@@@std@@@std@@QAE@XZ 004461d6 f i BtnCharView.obj
 0001:000451d6       ??1?$vector@PBVChar@@V?$allocator@PBVChar@@@std@@@std@@QAE@XZ 004461d6 f i BtnCharView.obj
 0001:000451d6       ??1?$vector@UCOLORUSE@@V?$allocator@UCOLORUSE@@@std@@@std@@QAE@XZ 004461d6 f i BtnCharView.obj
 0001:000451d6       ??1?$vector@UViewTabInfo@ViewSwitchWnd@@V?$allocator@UViewTabInfo@ViewSwitchWnd@@@std@@@std@@QAE@XZ 004461d6 f i BtnCharView.obj
 0001:000451d6       ??1?$vector@UInToolBarItem@@V?$allocator@UInToolBarItem@@@std@@@std@@QAE@XZ 004461d6 f i BtnCharView.obj
 0001:000451d6       ??1?$vector@HV?$allocator@H@std@@@std@@QAE@XZ 004461d6 f i BtnCharView.obj
 0001:000451f6       ??_GCComboBoxEx@@UAEPAXI@Z 004461f6 f i BtnCharView.obj
 0001:000451f6       ??_ECComboBoxEx@@UAEPAXI@Z 004461f6 f i BtnCharView.obj
 0001:00045212       ?SetImageList@CComboBoxEx@@QAEPAVCImageList@@PAV2@@Z 00446212 f i BtnCharView.obj
 0001:00045237       ?AttachChar@CharView@@UAEXPAVChar@@@Z 00446237 f   CharView.obj
 0001:00045246       ??1CharView@@UAE@XZ        00446246 f   CharView.obj
 0001:0004527c       ??_GCharView@@UAEPAXI@Z    0044627c f i CharView.obj
 0001:0004527c       ??_ECharView@@UAEPAXI@Z    0044627c f i CharView.obj
 0001:00045298       ?GetViewCaption@CharView@@UBEHAAVCString@@@Z 00446298 f   CharView.obj
 0001:000452f3       ?GetChar@CharView@@QBEPBVChar@@XZ 004462f3 f   CharView.obj
 0001:000452f3       ?GetChar@CharView@@QAEPAVChar@@XZ 004462f3 f   CharView.obj
 0001:000452fb       ?CreateObject@CharDialog@@SGPAVCObject@@XZ 004462fb f   CharView.obj
 0001:0004532d       ?_GetBaseClass@EditColoringDlg@@KGPAUCRuntimeClass@@XZ 0044632d f   CharView.obj
 0001:0004532d       ?_GetBaseClass@CharDialog@@KGPAUCRuntimeClass@@XZ 0044632d f   CharView.obj
 0001:0004532d       ?_GetBaseClass@RenCharName@@KGPAUCRuntimeClass@@XZ 0044632d f   CharView.obj
 0001:0004532d       ?_GetBaseClass@DialogBarDlg@@KGPAUCRuntimeClass@@XZ 0044632d f   CharView.obj
 0001:0004532d       ?_GetBaseClass@ActionDlg@@KGPAUCRuntimeClass@@XZ 0044632d f   CharView.obj
 0001:00045333       ??0CharDialog@@QAE@XZ      00446333 f   CharView.obj
 0001:00045345       ??_ECharDialog@@UAEPAXI@Z  00446345 f i CharView.obj
 0001:00045345       ??_GCharDialog@@UAEPAXI@Z  00446345 f i CharView.obj
 0001:00045361       ?Init@CharDialog@@UAEXI@Z  00446361 f   CharView.obj
 0001:00045371       ?AttachChar@CharDialog@@UAEXPAVSpicydogDoc@@PAVChar@@@Z 00446371 f   CharView.obj
 0001:00045382       ??1CharDialog@@UAE@XZ      00446382 f   CharView.obj
 0001:00045546       ?_GetBaseMessageMap@StageView@@KGPBUAFX_MSGMAP@@XZ 00446546 f   PictCharView.obj
 0001:00045546       ?_GetBaseMessageMap@PictCharView@@KGPBUAFX_MSGMAP@@XZ 00446546 f   PictCharView.obj
 0001:00045546       ?GetMessageMap@ScrollViewEx@@MBEPBUAFX_MSGMAP@@XZ 00446546 f   PictCharView.obj
 0001:0004554c       ?GetMessageMap@PictCharView@@MBEPBUAFX_MSGMAP@@XZ 0044654c f   PictCharView.obj
 0001:00045552       ?CreateObject@PictCharView@@SGPAVCObject@@XZ 00446552 f   PictCharView.obj
 0001:00045587       ?GetRuntimeClass@ScrollViewEx@@UBEPAUCRuntimeClass@@XZ 00446587 f   PictCharView.obj
 0001:00045587       ?_GetBaseClass@PictCharView@@KGPAUCRuntimeClass@@XZ 00446587 f   PictCharView.obj
 0001:00045587       ?_GetBaseClass@StageView@@KGPAUCRuntimeClass@@XZ 00446587 f   PictCharView.obj
 0001:0004558d       ?GetRuntimeClass@PictCharView@@UBEPAUCRuntimeClass@@XZ 0044658d f   PictCharView.obj
 0001:00045593       ??0PictCharView@@QAE@XZ    00446593 f   PictCharView.obj
 0001:00045613       ??_GPictCharView@@MAEPAXI@Z 00446613 f i PictCharView.obj
 0001:00045613       ??_EPictCharView@@MAEPAXI@Z 00446613 f i PictCharView.obj
 0001:0004562f       ??0?$TWndControlerMgr@VScrollViewEx@@@@QAE@XZ 0044662f f i PictCharView.obj
 0001:0004567a       ??1?$TWndControlerMgr@VScrollViewEx@@@@UAE@XZ 0044667a f i PictCharView.obj
 0001:000456b8       ??0?$TCharView@VPictChar@@@@QAE@XZ 004466b8 f i PictCharView.obj
 0001:000456fa       ??1?$TCharView@VPictChar@@@@UAE@XZ 004466fa f i PictCharView.obj
 0001:000456ff       ??_G?$TWndControlerMgr@VScrollViewEx@@@@UAEPAXI@Z 004466ff f i PictCharView.obj
 0001:000456ff       ??_E?$TWndControlerMgr@VScrollViewEx@@@@UAEPAXI@Z 004466ff f i PictCharView.obj
 0001:0004571b       ??_E?$TCharView@VPictChar@@@@UAEPAXI@Z 0044671b f i PictCharView.obj
 0001:0004571b       ??_G?$TCharView@VPictChar@@@@UAEPAXI@Z 0044671b f i PictCharView.obj
 0001:00045737       ??1PictCharView@@MAE@XZ    00446737 f   PictCharView.obj
 0001:000457aa       ?IsEditable@PictCharView@@QBEHXZ 004467aa f   PictCharView.obj
 0001:000457b6       ?OnUpdateEditableCmd@PictCharView@@IAEXPAVCCmdUI@@@Z 004467b6 f   PictCharView.obj
 0001:000457cd       ?AdjustSelRect@PictCharView@@IAEXXZ 004467cd f   PictCharView.obj
 0001:0004581d       ?GetPictChar@PictCharView@@IAEPAVPictChar@@XZ 0044681d f   PictCharView.obj
 0001:00045828       ?GetPictChar@PictCharView@@IBEPBVPictChar@@XZ 00446828 f   PictCharView.obj
 0001:00045833       ?GetDocument@PictCharView@@IAEPAVSpicydogDoc@@XZ 00446833 f   PictCharView.obj
 0001:00045843       ?OnInitialUpdate@PictCharView@@MAEXXZ 00446843 f   PictCharView.obj
 0001:000458a9       ?OnUpdate@PictCharView@@MAEXPAVCView@@JPAVCObject@@@Z 004468a9 f   PictCharView.obj
 0001:00045909       ?OnDraw@PictCharView@@MAEXPAVCDC@@@Z 00446909 f   PictCharView.obj
 0001:00045aed       ?HitResizeHandle@PictCharView@@QBEHVCPoint@@@Z 00446aed f   PictCharView.obj
 0001:00045b47       ?DrawChar@PictCharView@@IBEXPAVCDC@@@Z 00446b47 f   PictCharView.obj
 0001:00045bbd       ?GetPictBmpRect@PictCharView@@IBEXAAVCRect@@@Z 00446bbd f   PictCharView.obj
 0001:00045be5       ?DrawResizeHandle@PictCharView@@IBEXPAVCDC@@@Z 00446be5 f   PictCharView.obj
 0001:00045c8e       ?DrawSelRect@PictCharView@@IBEXPAVCDC@@@Z 00446c8e f   PictCharView.obj
 0001:00045ce1       ?OnPictResize@PictCharView@@IAEXXZ 00446ce1 f   PictCharView.obj
 0001:00045e1e       ?TrimAlignToOffsetHelper@@YAXAAH00HHH@Z 00446e1e f   PictCharView.obj
 0001:00045e99       ?TrimAlignToOffset@@YAXAAH00000HHHHH@Z 00446e99 f   PictCharView.obj
 0001:00045f30       ?OnPictTrim@PictCharView@@IAEXXZ 00446f30 f   PictCharView.obj
 0001:0004611f       ?OnPictMouseTrim@PictCharView@@IAEXXZ 0044711f f   PictCharView.obj
 0001:00046261       ?OnUpdatePictMouseTrim@PictCharView@@IAEXPAVCCmdUI@@@Z 00447261 f   PictCharView.obj
 0001:00046294       ?GetLineColor@PictCharView@@QBEKXZ 00447294 f   PictCharView.obj
 0001:0004629b       ?OnLineColorChanged@PictCharView@@IAEXXZ 0044729b f   PictCharView.obj
 0001:000462b0       ?OnUpdateLineColor@PictCharView@@IAEXPAVCCmdUI@@@Z 004472b0 f   PictCharView.obj
 0001:000462c4       ?UpdateCommandModes@PictCharView@@IAEXXZ 004472c4 f   PictCharView.obj
 0001:00046419       ?PE_SHARPNESS@@YGHPAUstruct_LEAD_Bitmap@@H@Z 00447419 f   PictCharView.obj
 0001:0004642f       ?PE_MOSAIC@@YGHPAUstruct_LEAD_Bitmap@@H@Z 0044742f f   PictCharView.obj
 0001:00046445       ?PE_AVERAGE@@YGHPAUstruct_LEAD_Bitmap@@H@Z 00447445 f   PictCharView.obj
 0001:0004645b       ?PE_MEDIAN@@YGHPAUstruct_LEAD_Bitmap@@H@Z 0044745b f   PictCharView.obj
 0001:00046471       ?PE_SOLARIZE@@YGHPAUstruct_LEAD_Bitmap@@H@Z 00447471 f   PictCharView.obj
 0001:00046487       ?PE_OILIFY@@YGHPAUstruct_LEAD_Bitmap@@H@Z 00447487 f   PictCharView.obj
 0001:0004649d       ?PE_POSTERIZE@@YGHPAUstruct_LEAD_Bitmap@@H@Z 0044749d f   PictCharView.obj
 0001:000464b3       ?OnPEMosaic@PictCharView@@IAEXXZ 004474b3 f   PictCharView.obj
 0001:000464d3       ?OnPESharpness@PictCharView@@IAEXXZ 004474d3 f   PictCharView.obj
 0001:000464f9       ?OnPEAverage@PictCharView@@IAEXXZ 004474f9 f   PictCharView.obj
 0001:00046519       ?OnPEMedian@PictCharView@@IAEXXZ 00447519 f   PictCharView.obj
 0001:00046539       ?OnPESolarize@PictCharView@@IAEXXZ 00447539 f   PictCharView.obj
 0001:0004655c       ?OnPEOilify@PictCharView@@IAEXXZ 0044755c f   PictCharView.obj
 0001:0004657c       ?OnPEPosterize@PictCharView@@IAEXXZ 0044757c f   PictCharView.obj
 0001:0004659c       ?DoEffect@PictCharView@@IAEXIIIHHHP6GHPAUstruct_LEAD_Bitmap@@H@Z@Z 0044759c f   PictCharView.obj
 0001:00046726       ?OnInvertH@PictCharView@@IAEXXZ 00447726 f   PictCharView.obj
 0001:00046819       ?OnInvertV@PictCharView@@IAEXXZ 00447819 f   PictCharView.obj
 0001:0004690c       ?OnEditByExe@PictCharView@@IAEXXZ 0044790c f   PictCharView.obj
 0001:00046a04       ?OnReload@PictCharView@@IAEXXZ 00447a04 f   PictCharView.obj
 0001:00046b6b       ?OnPreview@PictCharView@@IAEXXZ 00447b6b f   PictCharView.obj
 0001:00046b80       ?OnEditview@PictCharView@@IAEXXZ 00447b80 f   PictCharView.obj
 0001:00046b95       ?OnUpdatePreview@PictCharView@@IAEXPAVCCmdUI@@@Z 00447b95 f   PictCharView.obj
 0001:00046ba7       ?OnUpdateEditview@PictCharView@@IAEXPAVCCmdUI@@@Z 00447ba7 f   PictCharView.obj
 0001:00046bbf       ?OutputPreview2File@PictCharView@@IAEXXZ 00447bbf f   PictCharView.obj
 0001:00046ca4       ?OnPictOpt@PictCharView@@IAEXXZ 00447ca4 f   PictCharView.obj
 0001:00046d57       ?OnResetSelRect@PictCharView@@IAEXXZ 00447d57 f   PictCharView.obj
 0001:00046d5c       ?OnUpdateResetSelRect@PictCharView@@IAEXPAVCCmdUI@@@Z 00447d5c f   PictCharView.obj
 0001:00046d80       ?ResetSelRect@PictCharView@@QAEXXZ 00447d80 f   PictCharView.obj
 0001:00046d9f       ?SetSelRect@PictCharView@@QAEXABVCRect@@@Z 00447d9f f   PictCharView.obj
 0001:00046dca       ?OnDraw@?$TWndControlerMgr@VScrollViewEx@@@@MAEXPAVCDC@@@Z 00447dca f i PictCharView.obj
 0001:00046ddc       ?OnSetCursor@?$TWndControlerMgr@VScrollViewEx@@@@MAEHPAVCWnd@@II@Z 00447ddc f i PictCharView.obj
 0001:00046e0a       ?OnCmdMsg@?$TWndControlerMgr@VScrollViewEx@@@@MAEHIHPAXPAUAFX_CMDHANDLERINFO@@@Z 00447e0a f i PictCharView.obj
 0001:00046e48       ?PreTranslateMessage@?$TWndControlerMgr@VScrollViewEx@@@@MAEHPAUtagMSG@@@Z 00447e48 f i PictCharView.obj
 0001:00046e72       ?OnCommand@?$TWndControlerMgr@VScrollViewEx@@@@MAEHIJ@Z 00447e72 f i PictCharView.obj
 0001:00046ea5       ?GetCharT@?$TCharView@VPictChar@@@@QBEPBVPictChar@@XZ 00447ea5 f i PictCharView.obj
 0001:00046ea5       ?GetCharT@?$TCharView@VPictChar@@@@QAEPAVPictChar@@XZ 00447ea5 f i PictCharView.obj
 0001:00046ec2       ??_9@$BBBA@AE              00447ec2 f i PictCharView.obj
 0001:00046ec2       ?OnBarBeginDock@SECControlBar@@UAEXXZ 00447ec2 f i PictCharView.obj
 0001:00046eca       ??_EPictCharView@@OEE@AEPAXI@Z 00447eca f i PictCharView.obj
 0001:00046ed2       ??_EPictCharView@@OKA@AEPAXI@Z 00447ed2 f i PictCharView.obj
 0001:00046edd       ??_EPictCharView@@OMA@AEPAXI@Z 00447edd f i PictCharView.obj
 0001:00046ee8       ??_E?$TWndControlerMgr@VScrollViewEx@@@@WEE@AEPAXI@Z 00447ee8 f i PictCharView.obj
 0001:00046ef0       ??_E?$TWndControlerMgr@VScrollViewEx@@@@WKA@AEPAXI@Z 00447ef0 f i PictCharView.obj
 0001:00046efb       ?GetMessageMap@SndCharView@@MBEPBUAFX_MSGMAP@@XZ 00447efb f   SndCharView.obj
 0001:00046f01       ?CreateObject@SndCharView@@SGPAVCObject@@XZ 00447f01 f   SndCharView.obj
 0001:00046f36       ?GetRuntimeClass@SndCharView@@UBEPAUCRuntimeClass@@XZ 00447f36 f   SndCharView.obj
 0001:00046f3c       ??0SndCharView@@IAE@XZ     00447f3c f   SndCharView.obj
 0001:00046fe0       ??_GSndCharView@@EAEPAXI@Z 00447fe0 f i SndCharView.obj
 0001:00046fe0       ??_ESndCharView@@EAEPAXI@Z 00447fe0 f i SndCharView.obj
 0001:00046ffc       ??1SndCharView@@EAE@XZ     00447ffc f   SndCharView.obj
 0001:00047066       ?DoDataExchange@SndCharView@@EAEXPAVCDataExchange@@@Z 00448066 f   SndCharView.obj
 0001:000470b5       ?GetSndChar@SndCharView@@AAEPAVSndChar@@XZ 004480b5 f   SndCharView.obj
 0001:000470d2       ?OnInitDialog@SndCharView@@EAEHXZ 004480d2 f   SndCharView.obj
 0001:00047218       ?UpdateControls@SndCharView@@AAEXXZ 00448218 f   SndCharView.obj
 0001:00047301       ?Play@SndCharView@@AAEXXZ  00448301 f   SndCharView.obj
 0001:0004734a       ?Restart@SndCharView@@AAEXXZ 0044834a f   SndCharView.obj
 0001:00047390       ?Pause@SndCharView@@AAEXXZ 00448390 f   SndCharView.obj
 0001:000473a7       ?Stop@SndCharView@@AAEXXZ  004483a7 f   SndCharView.obj
 0001:000473be       ?OnTimer@SndCharView@@AAEXI@Z 004483be f   SndCharView.obj
 0001:000473ec       ?OnHScroll@SndCharView@@AAEXIIPAVCScrollBar@@@Z 004483ec f   SndCharView.obj
 0001:00047481       ?OnPlay@SndCharView@@AAEXXZ 00448481 f   SndCharView.obj
 0001:000474ba       ?OnStop@SndCharView@@AAEXXZ 004484ba f   SndCharView.obj
 0001:000474ea       ?OnPause@SndCharView@@AAEXXZ 004484ea f   SndCharView.obj
 0001:00047506       ?OnDestroy@SndCharView@@AAEXXZ 00448506 f   SndCharView.obj
 0001:0004753a       ?OnReload@SndCharView@@AAEXXZ 0044853a f   SndCharView.obj
 0001:000476cf       ?OnAutoStop@SndCharView@@EAEXXZ 004486cf f   SndCharView.obj
 0001:000476d7       ?GradientFillH@@YAXAAVCDC@@AAVCRect@@KK@Z 004486d7 f   SndCharView.obj
 0001:00047739       ?MixColor@@YAKNKK@Z        00448739 f i SndCharView.obj
 0001:000477c8       ?GradientFillV@@YAXAAVCDC@@AAVCRect@@KK@Z 004487c8 f   SndCharView.obj
 0001:0004782a       ?OnPSPaint@SndCharView@@EAEXAAVPreviewStatic@@@Z 0044882a f   SndCharView.obj
 0001:00047993       ?GetMessageMap@StageView@@MBEPBUAFX_MSGMAP@@XZ 00448993 f   StageView.obj
 0001:00047999       ?CreateObject@StageView@@SGPAVCObject@@XZ 00448999 f   StageView.obj
 0001:000479ce       ?GetRuntimeClass@StageView@@UBEPAUCRuntimeClass@@XZ 004489ce f   StageView.obj
 0001:000479d4       ??0StageView@@QAE@XZ       004489d4 f   StageView.obj
 0001:00047a6f       ??_GStageView@@MAEPAXI@Z   00448a6f f i StageView.obj
 0001:00047a6f       ??_EStageView@@MAEPAXI@Z   00448a6f f i StageView.obj
 0001:00047a8b       ??1StageView@@MAE@XZ       00448a8b f   StageView.obj
 0001:00047b14       ?GetViewCaption@StageView@@UBEHAAVCString@@@Z 00448b14 f   StageView.obj
 0001:00047b5f       ?OnInitialUpdate@StageView@@EAEXXZ 00448b5f f   StageView.obj
 0001:00047ca2       ?OnUpdate@StageView@@EAEXPAVCView@@JPAVCObject@@@Z 00448ca2 f   StageView.obj
 0001:00047d2e       ?OnDraw@StageView@@EAEXPAVCDC@@@Z 00448d2e f   StageView.obj
 0001:00047f1b       ?OnMaskView@StageView@@AAEHI@Z 00448f1b f   StageView.obj
 0001:00047f55       ?OnUpdateMaskView@StageView@@AAEXPAVCCmdUI@@@Z 00448f55 f   StageView.obj
 0001:00047f91       ?GetTargetStage@StageView@@AAEPAVStage@@XZ 00448f91 f   StageView.obj
 0001:00047f91       ?GetTargetStage@StageView@@ABEPBVStage@@XZ 00448f91 f   StageView.obj
 0001:00047f9e       ?DrawChar@StageView@@AAEXPAVCDC@@@Z 00448f9e f   StageView.obj
 0001:000480a1       ?GetDocument@StageView@@ABEPBVSpicydogDoc@@XZ 004490a1 f   StageView.obj
 0001:000480a1       ?GetDocument@StageView@@AAEPAVSpicydogDoc@@XZ 004490a1 f   StageView.obj
 0001:000480bc       ?OnPlayFirst@StageView@@AAEXXZ 004490bc f   StageView.obj
 0001:000480e2       ?OnPlayLast@StageView@@AAEXXZ 004490e2 f   StageView.obj
 0001:00048108       ?OnPlayNext@StageView@@AAEXXZ 00449108 f   StageView.obj
 0001:0004812e       ?OnPlayPrev@StageView@@AAEXXZ 0044912e f   StageView.obj
 0001:00048154       ?OnPlayPlay@StageView@@AAEXXZ 00449154 f   StageView.obj
 0001:000481b9       ?OnPlayStop@StageView@@AAEXXZ 004491b9 f   StageView.obj
 0001:000481f8       ?GetCaption@StageView@@EBE?AVCString@@XZ 004491f8 f   StageView.obj
 0001:00048216       ?OnUpdatePlayStop@StageView@@AAEXPAVCCmdUI@@@Z 00449216 f   StageView.obj
 0001:00048237       ?OnUpdatePlayPlay@StageView@@AAEXPAVCCmdUI@@@Z 00449237 f   StageView.obj
 0001:0004825d       ?OnTimer@StageView@@AAEXI@Z 0044925d f   StageView.obj
 0001:000482ac       ?OnClose@StageView@@AAEXXZ 004492ac f   StageView.obj
 0001:000482d8       ?OnEditChar@StageView@@AAEXXZ 004492d8 f   StageView.obj
 0001:0004830d       ?OnUpdateEditChar@StageView@@AAEXPAVCCmdUI@@@Z 0044930d f   StageView.obj
 0001:0004832b       ?IsValidEditChar@StageView@@AAEHAAPAVChar@@@Z 0044932b f   StageView.obj
 0001:00048365       ?OnEditPlacing@StageView@@AAEXXZ 00449365 f   StageView.obj
 0001:00048491       ?IsValidPlaceProp@StageView@@AAEHAAPAVKeyFrame@@@Z 00449491 f   StageView.obj
 0001:000484eb       ?OnUpdateEditColoring@StageView@@AAEXPAVCCmdUI@@@Z 004494eb f   StageView.obj
 0001:0004850e       ?OnEditColoring@StageView@@AAEXXZ 0044950e f   StageView.obj
 0001:00048620       ?OnUpdateEditPlacing@StageView@@AAEXPAVCCmdUI@@@Z 00449620 f   StageView.obj
 0001:00048643       ?IsValidEditColoring@StageView@@AAEHAAPAVKeyFrame@@@Z 00449643 f   StageView.obj
 0001:0004868e       ?IsValidEditPlacing@StageView@@AAEHAAPAVKeyFrame@@@Z 0044968e f   StageView.obj
 0001:000486d9       ?OnShowCenter@StageView@@AAEXXZ 004496d9 f   StageView.obj
 0001:000486f7       ?OnUpdateShowCenter@StageView@@AAEXPAVCCmdUI@@@Z 004496f7 f   StageView.obj
 0001:0004870f       ?IsValidMove@StageView@@ABEHXZ 0044970f f   StageView.obj
 0001:00048750       ?OnDelLayer@StageView@@AAEXXZ 00449750 f   StageView.obj
 0001:000487ef       ?OnUpdateDelLayer@StageView@@AAEXPAVCCmdUI@@@Z 004497ef f   StageView.obj
 0001:00048806       ?IsValidDelLayer@StageView@@ABEHXZ 00449806 f   StageView.obj
 0001:00048836       ?OnSize@StageView@@AAEXIHH@Z 00449836 f   StageView.obj
 0001:00048867       ?OnDragEnter@StageView@@MAEKPAVCOleDataObject@@KVCPoint@@@Z 00449867 f   StageView.obj
 0001:00048882       ?OnDragOver@StageView@@MAEKPAVCOleDataObject@@KVCPoint@@@Z 00449882 f   StageView.obj
 0001:0004889d       ?OnDrop@StageView@@MAEHPAVCOleDataObject@@KVCPoint@@@Z 0044989d f   StageView.obj
 0001:00048958       ??_EStageView@@OEE@AEPAXI@Z 00449958 f i StageView.obj
 0001:00048960       ??_EStageView@@OKA@AEPAXI@Z 00449960 f i StageView.obj
 0001:0004896b       ??_EStageView@@OMA@AEPAXI@Z 0044996b f i StageView.obj
 0001:00048976       ?GetMessageMap@TextCharView@@MBEPBUAFX_MSGMAP@@XZ 00449976 f   TextCharView.obj
 0001:0004897c       ?CreateObject@TextCharView@@SGPAVCObject@@XZ 0044997c f   TextCharView.obj
 0001:000489b1       ?GetRuntimeClass@TextCharView@@UBEPAUCRuntimeClass@@XZ 004499b1 f   TextCharView.obj
 0001:000489b7       ??0TextCharView@@QAE@XZ    004499b7 f   TextCharView.obj
 0001:00048abf       ??_GTextCharView@@EAEPAXI@Z 00449abf f i TextCharView.obj
 0001:00048abf       ??_ETextCharView@@EAEPAXI@Z 00449abf f i TextCharView.obj
 0001:00048adb       ??1TextCharView@@EAE@XZ    00449adb f   TextCharView.obj
 0001:00048b89       ?DoDataExchange@TextCharView@@EAEXPAVCDataExchange@@@Z 00449b89 f   TextCharView.obj
 0001:00048cef       ?OnSize@TextCharView@@AAEXIHH@Z 00449cef f   TextCharView.obj
 0001:00048d42       ?SetButtonIcon@TextCharView@@AAEXII@Z 00449d42 f   TextCharView.obj
 0001:00048d95       ?OnInitDialog@TextCharView@@EAEHXZ 00449d95 f   TextCharView.obj
 0001:00048e2d       ?OnOK@TextCharView@@EAEXXZ 00449e2d f   TextCharView.obj
 0001:00048eb3       ?GetTextChar@TextCharView@@AAEPAVTextChar@@XZ 00449eb3 f   TextCharView.obj
 0001:00048ed0       ?OnUpdateData@TextCharView@@AAEXXZ 00449ed0 f   TextCharView.obj
 0001:00048f60       ?UpdateControls@TextCharView@@AAEXXZ 00449f60 f   TextCharView.obj
 0001:0004900c       ?OnTextColor@TextCharView@@AAEJIJ@Z 0044a00c f   TextCharView.obj
 0001:00049097       ?OnPSPaint@TextCharView@@EAEXAAVPreviewStatic@@@Z 0044a097 f   TextCharView.obj
 0001:0004914e       ?GetMessageMap@MovCharCnt@@MBEPBUAFX_MSGMAP@@XZ 0044a14e f   MovCharCnt.obj
 0001:00049154       ??0MovCharCnt@@QAE@XZ      0044a154 f   MovCharCnt.obj
 0001:0004916d       ??_EMovCharCnt@@UAEPAXI@Z  0044a16d f i MovCharCnt.obj
 0001:0004916d       ??_EPictViewCnt@@UAEPAXI@Z 0044a16d f i MovCharCnt.obj
 0001:0004916d       ??_GScrollViewZoomCnt@@UAEPAXI@Z 0044a16d f i MovCharCnt.obj
 0001:0004916d       ??_GMovCharCnt@@UAEPAXI@Z  0044a16d f i MovCharCnt.obj
 0001:0004916d       ??_EScrollViewMoveCnt@@UAEPAXI@Z 0044a16d f i MovCharCnt.obj
 0001:0004916d       ??_GScrollViewMoveCnt@@UAEPAXI@Z 0044a16d f i MovCharCnt.obj
 0001:0004916d       ??_EScrollViewZoomCnt@@UAEPAXI@Z 0044a16d f i MovCharCnt.obj
 0001:0004916d       ??_GPictViewCnt@@UAEPAXI@Z 0044a16d f i MovCharCnt.obj
 0001:00049189       ??0Cnt@@QAE@XZ             0044a189 f i MovCharCnt.obj
 0001:000491ca       ??_ECnt@@UAEPAXI@Z         0044a1ca f i MovCharCnt.obj
 0001:000491ca       ??_GCnt@@UAEPAXI@Z         0044a1ca f i MovCharCnt.obj
 0001:000491e6       ?OnEnter@MovCharCnt@@UAEXXZ 0044a1e6 f   MovCharCnt.obj
 0001:000491f9       ?OnRButtonDown@MovCharCnt@@MAEXIVCPoint@@@Z 0044a1f9 f   MovCharCnt.obj
 0001:0004922a       ?OnLButtonDown@MovCharCnt@@MAEXIVCPoint@@@Z 0044a22a f   MovCharCnt.obj
 0001:0004924d       ?OnLClick@MovCharCnt@@AAEXVCPoint@@@Z 0044a24d f   MovCharCnt.obj
 0001:000493b9       ?TrackMoveSelLayer@MovCharCnt@@AAEXVCPoint@@@Z 0044a3b9 f   MovCharCnt.obj
 0001:000494a3       ?TrackSelNewLayer@MovCharCnt@@AAEXVCPoint@@@Z 0044a4a3 f   MovCharCnt.obj
 0001:00049559       ?OnLDrag@MovCharCnt@@AAEXVCPoint@@@Z 0044a559 f   MovCharCnt.obj
 0001:00049587       ?OnSetCursor@MovCharCnt@@MAEHPAVCWnd@@II@Z 0044a587 f   MovCharCnt.obj
 0001:000495c3       ?OnMoveUp@MovCharCnt@@AAEXXZ 0044a5c3 f   MovCharCnt.obj
 0001:000495df       ?OnMoveDown@MovCharCnt@@AAEXXZ 0044a5df f   MovCharCnt.obj
 0001:000495fb       ?OnMoveRight@MovCharCnt@@AAEXXZ 0044a5fb f   MovCharCnt.obj
 0001:00049617       ?OnMoveLeft@MovCharCnt@@AAEXXZ 0044a617 f   MovCharCnt.obj
 0001:00049633       ?MoveChar@MovCharCnt@@AAEXHH@Z 0044a633 f   MovCharCnt.obj
 0001:0004970e       ?OnUpdateMove@MovCharCnt@@AAEXPAVCCmdUI@@@Z 0044a70e f   MovCharCnt.obj
 0001:0004972c       ?OnDraw@MovCharCnt@@MAEXPAVCDC@@@Z 0044a72c f   MovCharCnt.obj
 0001:0004981b       ?OnLButtonDblClk@MovCharCnt@@MAEXIVCPoint@@@Z 0044a81b f   MovCharCnt.obj
 0001:00049847       ?GetViewT@?$TViewControler@VStageView@@VSpicydogDoc@@@@IAEPAVStageView@@XZ 0044a847 f i MovCharCnt.obj
 0001:00049864       ?GetDocumentT@?$TViewControler@VStageView@@VSpicydogDoc@@@@IAEPAVSpicydogDoc@@XZ 0044a864 f i MovCharCnt.obj
 0001:00049884       ??_ECnt@@WCA@AEPAXI@Z      0044a884 f i MovCharCnt.obj
 0001:0004988c       ??_EMovCharCnt@@WCA@AEPAXI@Z 0044a88c f i MovCharCnt.obj
 0001:0004988c       ??_EScrollViewZoomCnt@@WCA@AEPAXI@Z 0044a88c f i MovCharCnt.obj
 0001:0004988c       ??_EPictViewCnt@@WCA@AEPAXI@Z 0044a88c f i MovCharCnt.obj
 0001:0004988c       ??_EScrollViewMoveCnt@@WCA@AEPAXI@Z 0044a88c f i MovCharCnt.obj
 0001:000498ba       ?GetTargetStage@StageCnt@@IAEPAVStage@@XZ 0044a8ba f   StageCnt.obj
 0001:000498c7       ??1Cnt@@UAE@XZ             0044a8c7 f   Cnt.obj
 0001:0004990e       ?DoDataExchange@DialogBarDlg@@MAEXPAVCDataExchange@@@Z 0044a90e f   Cnt.obj
 0001:0004990e       ?OnUpdateWorkspaceClose@SECMDIFrameWnd@@IAEXPAVCCmdUI@@@Z 0044a90e f   Cnt.obj
 0001:0004990e       ?OnUpdatePlayLast@StageView@@AAEXPAVCCmdUI@@@Z 0044a90e f   Cnt.obj
 0001:0004990e       ?OnUpdateWorkspaceOpen@SECMDIFrameWnd@@IAEXPAVCCmdUI@@@Z 0044a90e f   Cnt.obj
 0001:0004990e       ?DoDataExchange@AppliConfDlg@@MAEXPAVCDataExchange@@@Z 0044a90e f   Cnt.obj
 0001:0004990e       ?OnDraw@Cnt@@UAEXPAVCDC@@@Z 0044a90e f   Cnt.obj
 0001:0004990e       ?OnUpdateWorkspaceNew@SECMDIFrameWnd@@IAEXPAVCCmdUI@@@Z 0044a90e f   Cnt.obj
 0001:0004990e       ?OnUpdateWorkspaceDelete@SECFrameWnd@@QAEXPAVCCmdUI@@@Z 0044a90e f   Cnt.obj
 0001:0004990e       ?NotifyGetDispInfoEx@SECListBaseV@@MBEXPAUtagLVITEMEX@@@Z 0044a90e f   Cnt.obj
 0001:0004990e       ?NotifySetDispInfo@SECListBaseC@@MAEXPBUtagLVITEMA@@@Z 0044a90e f   Cnt.obj
 0001:0004990e       ?DrawPreview@SndChar@@EBEXPBVCharPreview@@@Z 0044a90e f   Cnt.obj
 0001:0004990e       ?NotifySetDispInfo@SECListBaseV@@MAEXPBUtagLVITEMA@@@Z 0044a90e f   Cnt.obj
 0001:0004990e       ?NotifySetDispInfoEx@SECListBaseC@@MBEXPBUtagLVITEMEX@@@Z 0044a90e f   Cnt.obj
 0001:0004990e       ?OnUpdateWorkspaceDelete@SECMDIFrameWnd@@IAEXPAVCCmdUI@@@Z 0044a90e f   Cnt.obj
 0001:0004990e       ?OnUpdateWorkspaceClose@SECFrameWnd@@QAEXPAVCCmdUI@@@Z 0044a90e f   Cnt.obj
 0001:0004990e       ?SetText@SECCustomToolCmdUI@@UAEXPBD@Z 0044a90e f   Cnt.obj
 0001:0004990e       ?NotifyGetDispInfoEx@SECTreeBaseV@@MBEXPAUtagTV_ITEM_EX@@@Z 0044a90e f   Cnt.obj
 0001:0004990e       ?DoDataExchange@AppliConfWizDonePage@@MAEXPAVCDataExchange@@@Z 0044a90e f   Cnt.obj
 0001:0004990e       ?GetBarInfoEx@SECControlBar@@UAEXPAVSECControlBarInfo@@@Z 0044a90e f   Cnt.obj
 0001:0004990e       ?OnUpdatePlayNext@StageView@@AAEXPAVCCmdUI@@@Z 0044a90e f   Cnt.obj
 0001:0004990e       ?OnUpdateWorkspaceNew@SECFrameWnd@@QAEXPAVCCmdUI@@@Z 0044a90e f   Cnt.obj
 0001:0004990e       ?OnUpdateWorkspaceSaveAs@SECFrameWnd@@QAEXPAVCCmdUI@@@Z 0044a90e f   Cnt.obj
 0001:0004990e       ?OnUpdateWorkspaceSave@SECFrameWnd@@QAEXPAVCCmdUI@@@Z 0044a90e f   Cnt.obj
 0001:0004990e       ?OnUpdateWorkspaceSaveAs@SECMDIFrameWnd@@IAEXPAVCCmdUI@@@Z 0044a90e f   Cnt.obj
 0001:0004990e       ?ExtendContextMenu@SECShortcutListCtrl@@MAEXAAVCMenu@@@Z 0044a90e f   Cnt.obj
 0001:0004990e       ?OnExtendContextMenu@SECControlBar@@MAEXPAVCMenu@@@Z 0044a90e f   Cnt.obj
 0001:0004990e       ?OnUpdateWorkspaceOpen@SECFrameWnd@@QAEXPAVCCmdUI@@@Z 0044a90e f   Cnt.obj
 0001:0004990e       ?GetRect@SndChar@@EBEXAAVCRect@@@Z 0044a90e f   Cnt.obj
 0001:0004990e       ?OnUpdateWorkspaceMenu@SECMDIFrameWnd@@IAEXPAVCCmdUI@@@Z 0044a90e f   Cnt.obj
 0001:0004990e       ?NotifyGetDispInfoEx@SECListBaseC@@MBEXPAUtagLVITEMEX@@@Z 0044a90e f   Cnt.obj
 0001:0004990e       ?SetText@InToolBarCmdUI@@UAEXPBD@Z 0044a90e f   Cnt.obj
 0001:0004990e       ?Serialize@SimpleAction@@EAEXPAVSDOMArchive@@@Z 0044a90e f   Cnt.obj
 0001:0004990e       ?SetMode@SECStdBtn@@UAEXH@Z 0044a90e f   Cnt.obj
 0001:0004990e       ?warning@ErrorReporter@@UAEXABVSAXParseException@xercesc_2_2@@@Z 0044a90e f   Cnt.obj
 0001:0004990e       ?NotifySetDispInfoEx@SECTreeBaseV@@MBEXPBUtagTV_ITEM_EX@@@Z 0044a90e f   Cnt.obj
 0001:0004990e       ?OnUpdatePlayPrev@StageView@@AAEXPAVCCmdUI@@@Z 0044a90e f   Cnt.obj
 0001:0004990e       ?OnUpdateWorkspaceMenu@SECFrameWnd@@QAEXPAVCCmdUI@@@Z 0044a90e f   Cnt.obj
 0001:0004990e       ?OnUpdateWorkspaceSave@SECMDIFrameWnd@@IAEXPAVCCmdUI@@@Z 0044a90e f   Cnt.obj
 0001:0004990e       ?LoadState@SECControlBarManager@@UAEXPBD@Z 0044a90e f   Cnt.obj
 0001:0004990e       ?NotifySetDispInfoEx@SECListBaseV@@MBEXPBUtagLVITEMEX@@@Z 0044a90e f   Cnt.obj
 0001:0004990e       ?OnUpdatePlayFirst@StageView@@AAEXPAVCCmdUI@@@Z 0044a90e f   Cnt.obj
 0001:0004990e       ?BarStyleChanged@SECStdBtn@@UAEXK@Z 0044a90e f   Cnt.obj
 0001:0004990e       ?Expand@SECTreeNode@@UAEXH@Z 0044a90e f   Cnt.obj
 0001:0004990e       ?SaveState@SECControlBarManager@@UBEXPBD@Z 0044a90e f   Cnt.obj
 0001:00049911       ?AttachControlerMgr@Cnt@@AAEXPAVCntMgr@@@Z 0044a911 f   Cnt.obj
 0001:0004991b       ?OnLButtonUp@Cnt@@UAEXIVCPoint@@@Z 0044a91b f   Cnt.obj
 0001:0004991b       ?OnMouseMove@Cnt@@UAEXIVCPoint@@@Z 0044a91b f   Cnt.obj
 0001:0004991b       ?OnKeyDown@Cnt@@UAEXIII@Z  0044a91b f   Cnt.obj
 0001:0004991b       ?OnRButtonDblClk@Cnt@@UAEXIVCPoint@@@Z 0044a91b f   Cnt.obj
 0001:0004991b       ?OnKeyUp@Cnt@@UAEXIII@Z    0044a91b f   Cnt.obj
 0001:0004991b       ?OnLButtonDblClk@Cnt@@UAEXIVCPoint@@@Z 0044a91b f   Cnt.obj
 0001:0004991b       ?OnLButtonDown@Cnt@@UAEXIVCPoint@@@Z 0044a91b f   Cnt.obj
 0001:0004991b       ?OnRButtonUp@Cnt@@UAEXIVCPoint@@@Z 0044a91b f   Cnt.obj
 0001:0004991b       ?OnRButtonDown@Cnt@@UAEXIVCPoint@@@Z 0044a91b f   Cnt.obj
 0001:00049925       ?OnSetCursor@Cnt@@UAEHPAVCWnd@@II@Z 0044a925 f   Cnt.obj
 0001:00049931       ?ContinueMsgRouting@Cnt@@AAEXH@Z 0044a931 f   Cnt.obj
 0001:0004993b       ??0CntMgr@@IAE@XZ          0044a93b f   CntMgr.obj
 0001:00049970       ??_GCntMgr@@MAEPAXI@Z      0044a970 f i CntMgr.obj
 0001:00049970       ??_ECntMgr@@MAEPAXI@Z      0044a970 f i CntMgr.obj
 0001:0004998c       ??1CntMgr@@MAE@XZ          0044a98c f   CntMgr.obj
 0001:000499c7       ??1?$map@IV?$auto_ptr@VCnt@@@std@@U?$less@I@2@V?$allocator@V?$auto_ptr@VCnt@@@std@@@2@@std@@QAE@XZ 0044a9c7 f i CntMgr.obj
 0001:000499cc       ?SetDefaultControlerID@CntMgr@@UAEXI@Z 0044a9cc f   CntMgr.obj
 0001:000499d6       ?ActivateDefaultControler@CntMgr@@UAEXXZ 0044a9d6 f   CntMgr.obj
 0001:000499df       ?IsValidControlerID@CntMgr@@ABEHI@Z 0044a9df f   CntMgr.obj
 0001:00049a0e       ?AppendControler@CntMgr@@UAEXIPAVCnt@@@Z 0044aa0e f   CntMgr.obj
 0001:00049a7f       ?RemoveControler@CntMgr@@UAEXI@Z 0044aa7f f   CntMgr.obj
 0001:00049aa6       ?IsEmpty@KeyFrame@@QBEHXZ  0044aaa6 f   CntMgr.obj
 0001:00049aa6       ?GetActiveControler@CntMgr@@UBEPAVCnt@@XZ 0044aaa6 f   CntMgr.obj
 0001:00049aaa       ?ActivateControler@CntMgr@@UAEXI@Z 0044aaaa f   CntMgr.obj
 0001:00049af2       ?DoCmdMsg@CntMgr@@IAEHIHPAXPAUAFX_CMDHANDLERINFO@@@Z 0044aaf2 f   CntMgr.obj
 0001:00049b58       ?DoCmd@CntMgr@@AAEHIPAXPAUAFX_CMDHANDLERINFO@@@Z 0044ab58 f   CntMgr.obj
 0001:00049b71       ?DoUpdateCmdUI@CntMgr@@AAEHIPAXPAUAFX_CMDHANDLERINFO@@@Z 0044ab71 f   CntMgr.obj
 0001:00049be0       ?AcceptDrop@SECCustomizeToolBar@@MBEHXZ 0044abe0 f   CntMgr.obj
 0001:00049be0       ?GetDialogClass@SimpleAction@@EBEPAUCRuntimeClass@@XZ 0044abe0 f   CntMgr.obj
 0001:00049be0       ?GetIconIndex@StageView@@EBEHXZ 0044abe0 f   CntMgr.obj
 0001:00049be0       __matherr                  0044abe0 f   CntMgr.obj
 0001:00049be0       ?IsValidStageSize@AppliConf@@CAHVCSize@@@Z 0044abe0 f   CntMgr.obj
 0001:00049be0       ?IsExpanded@SECTreeNode@@UBEHXZ 0044abe0 f   CntMgr.obj
 0001:00049be0       ?GetDefaultAccelerator@CntMgr@@UAEPAUHACCEL__@@XZ 0044abe0 f   CntMgr.obj
 0001:00049be0       ?IsClosable@StageView@@EBEHXZ 0044abe0 f   CntMgr.obj
 0001:00049be3       ?DoSetCursor@CntMgr@@IAEHPAVCWnd@@II@Z 0044abe3 f   CntMgr.obj
 0001:00049c01       ?DoDraw@CntMgr@@IAEXPAVCDC@@@Z 0044ac01 f   CntMgr.obj
 0001:00049c14       ?DoPreTranslateMessage@CntMgr@@IAEHPAUtagMSG@@@Z 0044ac14 f   CntMgr.obj
 0001:00049d80       ?DoCommand@CntMgr@@IAEHPAVCWnd@@IJ@Z 0044ad80 f   CntMgr.obj
 0001:00049dee       ?Enable@CTestCmdUI@@UAEXH@Z 0044adee f i CntMgr.obj
 0001:00049dff       ??A?$map@IV?$auto_ptr@VCnt@@@std@@U?$less@I@2@V?$allocator@V?$auto_ptr@VCnt@@@std@@@2@@std@@QAEAAV?$auto_ptr@VCnt@@@1@ABI@Z 0044adff f i CntMgr.obj
 0001:00049e63       ??1?$_Tree@IU?$pair@$$CBIV?$auto_ptr@VCnt@@@std@@@std@@U_Kfn@?$map@IV?$auto_ptr@VCnt@@@std@@U?$less@I@2@V?$allocator@V?$auto_ptr@VCnt@@@std@@@2@@2@U?$less@I@2@V?$allocator@V?$auto_ptr@VCnt@@@std@@@2@@std@@QAE@XZ 0044ae63 f i CntMgr.obj
 0001:00049ec4       ??1?$pair@$$CBW4ACTTYPE@@V?$auto_ptr@VAct@@@std@@@std@@QAE@XZ 0044aec4 f i CntMgr.obj
 0001:00049ec4       ??1?$pair@$$CBIV?$auto_ptr@VCnt@@@std@@@std@@QAE@XZ 0044aec4 f i CntMgr.obj
 0001:00049ecc       ?erase@?$_Tree@IU?$pair@$$CBIV?$auto_ptr@VCnt@@@std@@@std@@U_Kfn@?$map@IV?$auto_ptr@VCnt@@@std@@U?$less@I@2@V?$allocator@V?$auto_ptr@VCnt@@@std@@@2@@2@U?$less@I@2@V?$allocator@V?$auto_ptr@VCnt@@@std@@@2@@std@@QAE?AViterator@12@V312@0@Z 0044aecc f i CntMgr.obj
 0001:00049f43       ?erase@?$_Tree@IU?$pair@$$CBIV?$auto_ptr@VCnt@@@std@@@std@@U_Kfn@?$map@IV?$auto_ptr@VCnt@@@std@@U?$less@I@2@V?$allocator@V?$auto_ptr@VCnt@@@std@@@2@@2@U?$less@I@2@V?$allocator@V?$auto_ptr@VCnt@@@std@@@2@@std@@QAEIABI@Z 0044af43 f i CntMgr.obj
 0001:00049f94       ?clear@?$_Tree@IU?$pair@$$CBIV?$auto_ptr@VCnt@@@std@@@std@@U_Kfn@?$map@IV?$auto_ptr@VCnt@@@std@@U?$less@I@2@V?$allocator@V?$auto_ptr@VCnt@@@std@@@2@@2@U?$less@I@2@V?$allocator@V?$auto_ptr@VCnt@@@std@@@2@@std@@QAEXXZ 0044af94 f i CntMgr.obj
 0001:00049fa8       ?find@?$_Tree@IU?$pair@$$CBIV?$auto_ptr@VCnt@@@std@@@std@@U_Kfn@?$map@IV?$auto_ptr@VCnt@@@std@@U?$less@I@2@V?$allocator@V?$auto_ptr@VCnt@@@std@@@2@@2@U?$less@I@2@V?$allocator@V?$auto_ptr@VCnt@@@std@@@2@@std@@QAE?AViterator@12@ABI@Z 0044afa8 f i CntMgr.obj
 0001:00049fa8       ?find@?$_Tree@IU?$pair@$$CBIV?$auto_ptr@VCnt@@@std@@@std@@U_Kfn@?$map@IV?$auto_ptr@VCnt@@@std@@U?$less@I@2@V?$allocator@V?$auto_ptr@VCnt@@@std@@@2@@2@U?$less@I@2@V?$allocator@V?$auto_ptr@VCnt@@@std@@@2@@std@@QBE?AVconst_iterator@12@ABI@Z 0044afa8 f i CntMgr.obj
 0001:00049fe2       ?insert@?$_Tree@IU?$pair@$$CBIV?$auto_ptr@VCnt@@@std@@@std@@U_Kfn@?$map@IV?$auto_ptr@VCnt@@@std@@U?$less@I@2@V?$allocator@V?$auto_ptr@VCnt@@@std@@@2@@2@U?$less@I@2@V?$allocator@V?$auto_ptr@VCnt@@@std@@@2@@std@@QAE?AU?$pair@Viterator@?$_Tree@IU?$pair@$$CBIV?$auto_ptr@VCnt@@@std@@@std@@U_Kfn@?$map@IV?$auto_ptr@VCnt@@@std@@U?$less@I@2@V?$allocator@V?$auto_ptr@VCnt@@@std@@@2@@2@U?$less@I@2@V?$allocator@V?$auto_ptr@VCnt@@@std@@@2@@std@@_N@2@ABU?$pair@$$CBIV?$auto_ptr@VCnt@@@std@@@2@@Z 0044afe2 f i CntMgr.obj
 0001:0004a080       ?erase@?$_Tree@IU?$pair@$$CBIV?$auto_ptr@VCnt@@@std@@@std@@U_Kfn@?$map@IV?$auto_ptr@VCnt@@@std@@U?$less@I@2@V?$allocator@V?$auto_ptr@VCnt@@@std@@@2@@2@U?$less@I@2@V?$allocator@V?$auto_ptr@VCnt@@@std@@@2@@std@@QAE?AViterator@12@V312@@Z 0044b080 f i CntMgr.obj
 0001:0004a320       ?_Erase@?$_Tree@IU?$pair@$$CBIV?$auto_ptr@VCnt@@@std@@@std@@U_Kfn@?$map@IV?$auto_ptr@VCnt@@@std@@U?$less@I@2@V?$allocator@V?$auto_ptr@VCnt@@@std@@@2@@2@U?$less@I@2@V?$allocator@V?$auto_ptr@VCnt@@@std@@@2@@std@@IAEXPAU_Node@12@@Z 0044b320 f i CntMgr.obj
 0001:0004a35e       ?_Init@?$_Tree@IU?$pair@$$CBIV?$auto_ptr@VCnt@@@std@@@std@@U_Kfn@?$map@IV?$auto_ptr@VCnt@@@std@@U?$less@I@2@V?$allocator@V?$auto_ptr@VCnt@@@std@@@2@@2@U?$less@I@2@V?$allocator@V?$auto_ptr@VCnt@@@std@@@2@@std@@IAEXXZ 0044b35e f i CntMgr.obj
 0001:0004a3e9       ?_Insert@?$_Tree@IU?$pair@$$CBIV?$auto_ptr@VCnt@@@std@@@std@@U_Kfn@?$map@IV?$auto_ptr@VCnt@@@std@@U?$less@I@2@V?$allocator@V?$auto_ptr@VCnt@@@std@@@2@@2@U?$less@I@2@V?$allocator@V?$auto_ptr@VCnt@@@std@@@2@@std@@IAE?AViterator@12@PAU_Node@12@0ABU?$pair@$$CBIV?$auto_ptr@VCnt@@@std@@@2@@Z 0044b3e9 f i CntMgr.obj
 0001:0004a53a       ?_Lbound@?$_Tree@IU?$pair@$$CBIV?$auto_ptr@VCnt@@@std@@@std@@U_Kfn@?$map@IV?$auto_ptr@VCnt@@@std@@U?$less@I@2@V?$allocator@V?$auto_ptr@VCnt@@@std@@@2@@2@U?$less@I@2@V?$allocator@V?$auto_ptr@VCnt@@@std@@@2@@std@@IBEPAU_Node@12@ABI@Z 0044b53a f i CntMgr.obj
 0001:0004a567       ?_Lrotate@?$_Tree@IU?$pair@$$CBIV?$auto_ptr@VCnt@@@std@@@std@@U_Kfn@?$map@IV?$auto_ptr@VCnt@@@std@@U?$less@I@2@V?$allocator@V?$auto_ptr@VCnt@@@std@@@2@@2@U?$less@I@2@V?$allocator@V?$auto_ptr@VCnt@@@std@@@2@@std@@IAEXPAU_Node@12@@Z 0044b567 f i CntMgr.obj
 0001:0004a5ab       ?_Rrotate@?$_Tree@IU?$pair@$$CBIV?$auto_ptr@VCnt@@@std@@@std@@U_Kfn@?$map@IV?$auto_ptr@VCnt@@@std@@U?$less@I@2@V?$allocator@V?$auto_ptr@VCnt@@@std@@@2@@2@U?$less@I@2@V?$allocator@V?$auto_ptr@VCnt@@@std@@@2@@std@@IAEXPAU_Node@12@@Z 0044b5ab f i CntMgr.obj
 0001:0004a5f1       ?_Ubound@?$_Tree@IU?$pair@$$CBIV?$auto_ptr@VCnt@@@std@@@std@@U_Kfn@?$map@IV?$auto_ptr@VCnt@@@std@@U?$less@I@2@V?$allocator@V?$auto_ptr@VCnt@@@std@@@2@@2@U?$less@I@2@V?$allocator@V?$auto_ptr@VCnt@@@std@@@2@@std@@IBEPAU_Node@12@ABI@Z 0044b5f1 f i CntMgr.obj
 0001:0004a61e       ?_Dec@const_iterator@?$_Tree@IU?$pair@$$CBIV?$auto_ptr@VCnt@@@std@@@std@@U_Kfn@?$map@IV?$auto_ptr@VCnt@@@std@@U?$less@I@2@V?$allocator@V?$auto_ptr@VCnt@@@std@@@2@@2@U?$less@I@2@V?$allocator@V?$auto_ptr@VCnt@@@std@@@2@@std@@QAEXXZ 0044b61e f i CntMgr.obj
 0001:0004a65a       ?_Inc@const_iterator@?$_Tree@IU?$pair@$$CBIV?$auto_ptr@VCnt@@@std@@@std@@U_Kfn@?$map@IV?$auto_ptr@VCnt@@@std@@U?$less@I@2@V?$allocator@V?$auto_ptr@VCnt@@@std@@@2@@2@U?$less@I@2@V?$allocator@V?$auto_ptr@VCnt@@@std@@@2@@std@@QAEXXZ 0044b65a f i CntMgr.obj
 0001:0004a849       ?_GetBaseMessageMap@DotPictViewCnt@@KGPBUAFX_MSGMAP@@XZ 0044b849 f   PictCnt.obj
 0001:0004a849       ?_GetBaseMessageMap@CenterPictViewCnt@@KGPBUAFX_MSGMAP@@XZ 0044b849 f   PictCnt.obj
 0001:0004a849       ?_GetBaseMessageMap@SelRectPictViewCnt@@KGPBUAFX_MSGMAP@@XZ 0044b849 f   PictCnt.obj
 0001:0004a849       ?GetMessageMap@PictViewCnt@@MBEPBUAFX_MSGMAP@@XZ 0044b849 f   PictCnt.obj
 0001:0004a849       ?_GetBaseMessageMap@SelPictViewCnt@@KGPBUAFX_MSGMAP@@XZ 0044b849 f   PictCnt.obj
 0001:0004a84f       ??0PictViewCnt@@IAE@XZ     0044b84f f   PictCnt.obj
 0001:0004a868       ?GetPictChar@PictViewCnt@@IAEPAVPictChar@@XZ 0044b868 f   PictCnt.obj
 0001:0004a87a       ?Default@PictViewCnt@@IAEJXZ 0044b87a f   PictCnt.obj
 0001:0004a886       ?IsEditable@PictViewCnt@@IBEHXZ 0044b886 f   PictCnt.obj
 0001:0004a892       ?GetMessageMap@SelPictViewCnt@@MBEPBUAFX_MSGMAP@@XZ 0044b892 f   PictCnt.obj
 0001:0004a898       ??0SelPictViewCnt@@QAE@XZ  0044b898 f   PictCnt.obj
 0001:0004a8f7       ??_GSelPictViewCnt@@UAEPAXI@Z 0044b8f7 f i PictCnt.obj
 0001:0004a8f7       ??_ESelPictViewCnt@@UAEPAXI@Z 0044b8f7 f i PictCnt.obj
 0001:0004a913       ??1SelPictViewCnt@@UAE@XZ  0044b913 f i PictCnt.obj
 0001:0004a948       ?OnSetCursor@SelPictViewCnt@@MAEHPAVCWnd@@II@Z 0044b948 f   PictCnt.obj
 0001:0004a9b0       ?OnRButtonDown@SelPictViewCnt@@MAEXIVCPoint@@@Z 0044b9b0 f   PictCnt.obj
 0001:0004a9cf       ?OnLButtonDown@SelPictViewCnt@@MAEXIVCPoint@@@Z 0044b9cf f   PictCnt.obj
 0001:0004ab8e       ?GetMessageMap@SelRectPictViewCnt@@MBEPBUAFX_MSGMAP@@XZ 0044bb8e f   PictCnt.obj
 0001:0004ab94       ?clinit@SelRectPictViewCnt@@SAXXZ 0044bb94 f   PictCnt.obj
 0001:0004abe6       ??0SelRectPictViewCnt@@QAE@XZ 0044bbe6 f   PictCnt.obj
 0001:0004ac3a       ??_ESelRectPictViewCnt@@UAEPAXI@Z 0044bc3a f i PictCnt.obj
 0001:0004ac3a       ??_GSelRectPictViewCnt@@UAEPAXI@Z 0044bc3a f i PictCnt.obj
 0001:0004ac56       ??1SelRectPictViewCnt@@UAE@XZ 0044bc56 f i PictCnt.obj
 0001:0004ac8b       ?OnEnter@SelRectPictViewCnt@@UAEXXZ 0044bc8b f   PictCnt.obj
 0001:0004aca0       ?OnSetCursor@SelRectPictViewCnt@@MAEHPAVCWnd@@II@Z 0044bca0 f   PictCnt.obj
 0001:0004ad09       ?OnRButtonDown@CenterPictViewCnt@@MAEXIVCPoint@@@Z 0044bd09 f   PictCnt.obj
 0001:0004ad09       ?OnRButtonDown@SelRectPictViewCnt@@MAEXIVCPoint@@@Z 0044bd09 f   PictCnt.obj
 0001:0004ad18       ?OnLButtonDown@SelRectPictViewCnt@@MAEXIVCPoint@@@Z 0044bd18 f   PictCnt.obj
 0001:0004ada0       ?GetMessageMap@CenterPictViewCnt@@MBEPBUAFX_MSGMAP@@XZ 0044bda0 f   PictCnt.obj
 0001:0004ada6       ??0CenterPictViewCnt@@QAE@XZ 0044bda6 f   PictCnt.obj
 0001:0004ae1b       ??_ECenterPictViewCnt@@UAEPAXI@Z 0044be1b f i PictCnt.obj
 0001:0004ae1b       ??_GCenterPictViewCnt@@UAEPAXI@Z 0044be1b f i PictCnt.obj
 0001:0004ae37       ??1CenterPictViewCnt@@UAE@XZ 0044be37 f i PictCnt.obj
 0001:0004ae6c       ?OnSetCursor@CenterPictViewCnt@@MAEHPAVCWnd@@II@Z 0044be6c f   PictCnt.obj
 0001:0004aecf       ?OnLButtonDown@CenterPictViewCnt@@MAEXIVCPoint@@@Z 0044becf f   PictCnt.obj
 0001:0004af85       ?GetMessageMap@DotPictViewCnt@@MBEPBUAFX_MSGMAP@@XZ 0044bf85 f   PictCnt.obj
 0001:0004af8b       ??0DotPictViewCnt@@QAE@XZ  0044bf8b f   PictCnt.obj
 0001:0004b00f       ??_EDotPictViewCnt@@UAEPAXI@Z 0044c00f f i PictCnt.obj
 0001:0004b00f       ??_GDotPictViewCnt@@UAEPAXI@Z 0044c00f f i PictCnt.obj
 0001:0004b02b       ??1DotPictViewCnt@@UAE@XZ  0044c02b f i PictCnt.obj
 0001:0004b060       ?OnEnter@DotPictViewCnt@@UAEXXZ 0044c060 f   PictCnt.obj
 0001:0004b07c       ?OnExit@DotPictViewCnt@@UAEXXZ 0044c07c f   PictCnt.obj
 0001:0004b081       ?BeginDraw@DotPictViewCnt@@IAEXXZ 0044c081 f   PictCnt.obj
 0001:0004b090       ?EndDraw@DotPictViewCnt@@IAEXXZ 0044c090 f   PictCnt.obj
 0001:0004b184       ?OnKeyUp@DotPictViewCnt@@MAEXIII@Z 0044c184 f   PictCnt.obj
 0001:0004b19a       ?OnDraw@DotPictViewCnt@@MAEXPAVCDC@@@Z 0044c19a f   PictCnt.obj
 0001:0004b1f5       ?OnSetCursor@DotPictViewCnt@@MAEHPAVCWnd@@II@Z 0044c1f5 f   PictCnt.obj
 0001:0004b272       ?Draw@DotPictViewCnt@@IAEXVCPoint@@@Z 0044c272 f   PictCnt.obj
 0001:0004b3d6       ?DrawDot@DotPictViewCnt@@IAEXVCPoint@@K@Z 0044c3d6 f   PictCnt.obj
 0001:0004b42e       ?OnMouseMove@DotPictViewCnt@@MAEXIVCPoint@@@Z 0044c42e f   PictCnt.obj
 0001:0004b44b       ?OnLButtonDown@DotPictViewCnt@@MAEXIVCPoint@@@Z 0044c44b f   PictCnt.obj
 0001:0004b4ab       ?OnLButtonUp@DotPictViewCnt@@MAEXIVCPoint@@@Z 0044c4ab f   PictCnt.obj
 0001:0004b4c2       ?OnUpdateCmdUI@SelRectPictViewCnt@@IAEXPAVCCmdUI@@@Z 0044c4c2 f   PictCnt.obj
 0001:0004b4c2       ?OnUpdateCmdUI@DotPictViewCnt@@IAEXPAVCCmdUI@@@Z 0044c4c2 f   PictCnt.obj
 0001:0004b510       ?GetViewT@?$TViewControler@VPictCharView@@VSpicydogDoc@@@@IBEPBVPictCharView@@XZ 0044c510 f i PictCnt.obj
 0001:0004b510       ?GetViewT@?$TViewControler@VPictCharView@@VSpicydogDoc@@@@IAEPAVPictCharView@@XZ 0044c510 f i PictCnt.obj
 0001:0004b52d       ?GetDocumentT@?$TViewControler@VPictCharView@@VSpicydogDoc@@@@IAEPAVSpicydogDoc@@XZ 0044c52d f i PictCnt.obj
 0001:0004b54d       ?clear@?$list@UDRAWDOT@DotPictViewCnt@@V?$allocator@UDRAWDOT@DotPictViewCnt@@@std@@@std@@QAEXXZ 0044c54d f i PictCnt.obj
 0001:0004b561       ?insert@?$list@UDRAWDOT@DotPictViewCnt@@V?$allocator@UDRAWDOT@DotPictViewCnt@@@std@@@std@@QAE?AViterator@12@V312@ABUDRAWDOT@DotPictViewCnt@@@Z 0044c561 f i PictCnt.obj
 0001:0004b59a       ?_Buynode@?$list@UDRAWDOT@DotPictViewCnt@@V?$allocator@UDRAWDOT@DotPictViewCnt@@@std@@@std@@IAEPAU_Node@12@PAU312@0@Z 0044c59a f i PictCnt.obj
 0001:0004b5be       ??_ECenterPictViewCnt@@WCA@AEPAXI@Z 0044c5be f i PictCnt.obj
 0001:0004b5c6       ??_EDotPictViewCnt@@WCA@AEPAXI@Z 0044c5c6 f i PictCnt.obj
 0001:0004b5ce       ??_ESelPictViewCnt@@WCA@AEPAXI@Z 0044c5ce f i PictCnt.obj
 0001:0004b5d6       ??_ESelRectPictViewCnt@@WCA@AEPAXI@Z 0044c5d6 f i PictCnt.obj
 0001:0004b5de       ?GetMessageMap@ScrollViewZoomCnt@@MBEPBUAFX_MSGMAP@@XZ 0044c5de f   ScrollViewCnt.obj
 0001:0004b5e4       ??0ScrollViewZoomCnt@@QAE@XZ 0044c5e4 f   ScrollViewCnt.obj
 0001:0004b5fd       ?OnLButtonDown@ScrollViewZoomCnt@@UAEXIVCPoint@@@Z 0044c5fd f   ScrollViewCnt.obj
 0001:0004b622       ?OnRButtonDown@ScrollViewZoomCnt@@UAEXIVCPoint@@@Z 0044c622 f   ScrollViewCnt.obj
 0001:0004b64b       ?SetScale@ScrollViewZoomCnt@@AAEXNVCPoint@@@Z 0044c64b f   ScrollViewCnt.obj
 0001:0004b6a0       ?OnSetCursor@ScrollViewZoomCnt@@UAEHPAVCWnd@@II@Z 0044c6a0 f   ScrollViewCnt.obj
 0001:0004b6dc       ?GetMessageMap@ScrollViewMoveCnt@@MBEPBUAFX_MSGMAP@@XZ 0044c6dc f   ScrollViewCnt.obj
 0001:0004b6e2       ??0ScrollViewMoveCnt@@QAE@XZ 0044c6e2 f   ScrollViewCnt.obj
 0001:0004b6fb       ??1ScrollViewMoveCnt@@UAE@XZ 0044c6fb f i ScrollViewCnt.obj
 0001:0004b6fb       ??1MovCharCnt@@UAE@XZ      0044c6fb f i ScrollViewCnt.obj
 0001:0004b6fb       ??1ScrollViewZoomCnt@@UAE@XZ 0044c6fb f i ScrollViewCnt.obj
 0001:0004b6fb       ??1PictViewCnt@@UAE@XZ     0044c6fb f i ScrollViewCnt.obj
 0001:0004b700       ?OnLButtonDown@ScrollViewMoveCnt@@EAEXIVCPoint@@@Z 0044c700 f   ScrollViewCnt.obj
 0001:0004b711       ?OnMouseMove@ScrollViewMoveCnt@@EAEXIVCPoint@@@Z 0044c711 f   ScrollViewCnt.obj
 0001:0004b86d       ?OnSetCursor@ScrollViewMoveCnt@@EAEHPAVCWnd@@II@Z 0044c86d f   ScrollViewCnt.obj
 0001:0004b8a9       ?OnCancle@ScrollViewMoveCnt@@AAEXXZ 0044c8a9 f   ScrollViewCnt.obj
 0001:0004b8a9       ?OnCancle@ScrollViewZoomCnt@@QAEXXZ 0044c8a9 f   ScrollViewCnt.obj
 0001:0004b8a9       ?RejectEnter@Cnt@@IAEXXZ   0044c8a9 f   ScrollViewCnt.obj
 0001:0004b8b5       ?OnRButtonDown@ScrollViewMoveCnt@@EAEXIVCPoint@@@Z 0044c8b5 f   ScrollViewCnt.obj
 0001:0004b8bd       ?GetViewT@?$TViewControler@VScrollViewEx@@VCDocument@@@@IAEPAVScrollViewEx@@XZ 0044c8bd f i ScrollViewCnt.obj
 0001:0004b8da       ??0CMASMW@@QAE@XZ          0044c8da f   masmw.obj
 0001:0004bb44       ??_ECMASMW@@UAEPAXI@Z      0044cb44 f i masmw.obj
 0001:0004bb44       ??_GCMASMW@@UAEPAXI@Z      0044cb44 f i masmw.obj
 0001:0004bb60       ??1CMASMW@@UAE@XZ          0044cb60 f   masmw.obj
 0001:0004bb89       ?ClearAddress@CMASMW@@AAEXXZ 0044cb89 f   masmw.obj
 0001:0004bc0a       ?Initialize@CMASMW@@QAEJXZ 0044cc0a f   masmw.obj
 0001:0004bc17       ?Terminate@CMASMW@@QAEJXZ  0044cc17 f   masmw.obj
 0001:0004bc24       ?Create@CMASMW@@QAEJE@Z    0044cc24 f   masmw.obj
 0001:0004bc38       ?Load@CMASMW@@QAEJJPAEKEP6AJE@ZPAX@Z 0044cc38 f   masmw.obj
 0001:0004bc60       ?Open@CMASMW@@QAEJJJGPAX@Z 0044cc60 f   masmw.obj
 0001:0004bc84       ?Control@CMASMW@@QAEJJJEPAX0@Z 0044cc84 f   masmw.obj
 0001:0004bca9       ?Standby@CMASMW@@QAEJJJPAX@Z 0044cca9 f   masmw.obj
 0001:0004bcc7       ?Seek@CMASMW@@QAEJJJKEPAX@Z 0044ccc7 f   masmw.obj
 0001:0004bcec       ?Start@CMASMW@@QAEJJJGPAX@Z 0044ccec f   masmw.obj
 0001:0004bd10       ?Stop@CMASMW@@QAEJJJPAX@Z  0044cd10 f   masmw.obj
 0001:0004bd2e       ?Pause@CMASMW@@QAEJJJPAX@Z 0044cd2e f   masmw.obj
 0001:0004bd4c       ?Restart@CMASMW@@QAEJJJPAX@Z 0044cd4c f   masmw.obj
 0001:0004bd6a       ?Close@CMASMW@@QAEJJJPAX@Z 0044cd6a f   masmw.obj
 0001:0004bd88       ?UnLoad@CMASMW@@QAEJJJPAX@Z 0044cd88 f   masmw.obj
 0001:0004bda6       ?Delete@CMASMW@@QAEJJ@Z    0044cda6 f   masmw.obj
 0001:0004bdba       ?Phrase_Initialize@CMASMW@@QAEHXZ 0044cdba f   masmw.obj
 0001:0004bdc7       ?Phrase_Terminate@CMASMW@@QAEHXZ 0044cdc7 f   masmw.obj
 0001:0004bdd7       ?Phrase_GetInfo@CMASMW@@QAEHPAUinfo@@@Z 0044cdd7 f   masmw.obj
 0001:0004bdeb       ?Phrase_SetData@CMASMW@@QAEHHPAEKH@Z 0044cdeb f   masmw.obj
 0001:0004be0d       ?Phrase_Seek@CMASMW@@QAEHHJ@Z 0044ce0d f   masmw.obj
 0001:0004be26       ?Phrase_Play@CMASMW@@QAEHHH@Z 0044ce26 f   masmw.obj
 0001:0004be3f       ?Phrase_Stop@CMASMW@@QAEHH@Z 0044ce3f f   masmw.obj
 0001:0004be53       ?Phrase_Pause@CMASMW@@QAEHH@Z 0044ce53 f   masmw.obj
 0001:0004be67       ?Phrase_Restart@CMASMW@@QAEHH@Z 0044ce67 f   masmw.obj
 0001:0004be7b       ?Phrase_Kill@CMASMW@@QAEHXZ 0044ce7b f   masmw.obj
 0001:0004be88       ?Phrase_SetVolume@CMASMW@@QAEHHH@Z 0044ce88 f   masmw.obj
 0001:0004bea4       ?Phrase_SetPanpot@CMASMW@@QAEHHH@Z 0044cea4 f   masmw.obj
 0001:0004bec0       ?Phrase_GetPosition@CMASMW@@QAEJH@Z 0044cec0 f   masmw.obj
 0001:0004bed4       ?Phrase_RemoveData@CMASMW@@QAEHH@Z 0044ced4 f   masmw.obj
 0001:0004bee8       ?Phrase_SetEvHandler@CMASMW@@QAEHP6AXPAUevent@@@Z@Z 0044cee8 f   masmw.obj
 0001:0004bf64       ??1?$TSingletonPtr@VSMAFPlayer@@@@QAE@XZ 0044cf64 f i SMAFPlayer.obj
 0001:0004bfa9       ??0?$TSingletonPtr@VSMAFPlayer@@@@QAE@XZ 0044cfa9 f i SMAFPlayer.obj
 0001:0004bfcf       ?QueryPlayer@SMAFPlayer@@SAPAV1@XZ 0044cfcf f   SMAFPlayer.obj
 0001:0004bfd9       ??0SMAFPlayer@@AAE@XZ      0044cfd9 f   SMAFPlayer.obj
 0001:0004c041       ??_GSMAFPlayer@@UAEPAXI@Z  0044d041 f i SMAFPlayer.obj
 0001:0004c041       ??_ESMAFPlayer@@UAEPAXI@Z  0044d041 f i SMAFPlayer.obj
 0001:0004c05d       ??1SMAFPlayer@@UAE@XZ      0044d05d f   SMAFPlayer.obj
 0001:0004c0a0       ?Initialize@SMAFPlayer@@QAEHPAVSMAFPlayerListener@@@Z 0044d0a0 f   SMAFPlayer.obj
 0001:0004c0bb       ?InitSMAF@SMAFPlayer@@AAEHXZ 0044d0bb f   SMAFPlayer.obj
 0001:0004c121       ?LoadSMAF@SMAFPlayer@@QAEHPAX@Z 0044d121 f   SMAFPlayer.obj
 0001:0004c249       ?ExitSMAF@SMAFPlayer@@AAEXXZ 0044d249 f   SMAFPlayer.obj
 0001:0004c2d6       ?Destroy@SMAFPlayer@@QAEXXZ 0044d2d6 f   SMAFPlayer.obj
 0001:0004c2e7       ?SetVolume@SMAFPlayer@@QAEXH@Z 0044d2e7 f   SMAFPlayer.obj
 0001:0004c319       ?SetPanpot@SMAFPlayer@@QAEXH@Z 0044d319 f   SMAFPlayer.obj
 0001:0004c330       ?GetPosition@SMAFPlayer@@QBEHXZ 0044d330 f   SMAFPlayer.obj
 0001:0004c35b       ?Play@SMAFPlayer@@QAEXHHH@Z 0044d35b f   SMAFPlayer.obj
 0001:0004c40f       ?Restart@SMAFPlayer@@QAEXHH@Z 0044d40f f   SMAFPlayer.obj
 0001:0004c472       ?Pause@SMAFPlayer@@QAEXXZ  0044d472 f   SMAFPlayer.obj
 0001:0004c4a3       ?Release@SMAFPlayer@@QAEXXZ 0044d4a3 f   SMAFPlayer.obj
 0001:0004c4c2       ?Stop@SMAFPlayer@@QAEXXZ   0044d4c2 f   SMAFPlayer.obj
 0001:0004c505       ?_CallBack@SMAFPlayer@@CAXPAUevent@@@Z 0044d505 f   SMAFPlayer.obj
 0001:0004c547       ?_CallBack@SMAFPlayer@@CAJE@Z 0044d547 f   SMAFPlayer.obj
 0001:0004c58b       ?CallBack@SMAFPlayer@@AAEXE@Z 0044d58b f   SMAFPlayer.obj
 0001:0004c5ab       ?CallBack@SMAFPlayer@@AAEXPAUevent@@@Z 0044d5ab f   SMAFPlayer.obj
 0001:0004c5cf       ?CalcLength2@SMAFPlayer@@ABEKKK@Z 0044d5cf f   SMAFPlayer.obj
 0001:0004c613       ?CalcLength@SMAFPlayer@@ABEKXZ 0044d613 f   SMAFPlayer.obj
 0001:0004c656       ?get@?$TSingletonPtr@VSMAFPlayer@@@@QAEPAVSMAFPlayer@@XZ 0044d656 f i SMAFPlayer.obj
 0001:0004c6f4       ??1AFX_MAINTAIN_STATE2@@QAE@XZ 0044d6f4 f i SMAFPlayer.obj
 0001:0004c6fd       ?BrowseEmuPath@Jphone@@SAHAAVCString@@@Z 0044d6fd f   Jphone.obj
 0001:0004c804       ?DetectEmuPath@Jphone@@SAHAAVCString@@@Z 0044d804 f   Jphone.obj
 0001:0004c870       ??0Player@@QAE@PAVSpicydogDoc@@@Z 0044d870 f   Player.obj
 0001:0004c883       ?FirstFrame@Player@@QAEXXZ 0044d883 f   Player.obj
 0001:0004c883       ?Unselect@Selectable@@UAEXXZ 0044d883 f   Player.obj
 0001:0004c888       ?NextFrame@Player@@QAEXXZ  0044d888 f   Player.obj
 0001:0004c8be       ?PrevFrame@Player@@QAEXXZ  0044d8be f   Player.obj
 0001:0004c8d1       ?LastFrame@Player@@QAEXXZ  0044d8d1 f   Player.obj
 0001:0004c8de       ?GetLastFrame@Player@@QBEHXZ 0044d8de f   Player.obj
 0001:0004c8f6       ?Play@Player@@QAEXXZ       0044d8f6 f   Player.obj
 0001:0004c913       ?Stop@Player@@QAEXXZ       0044d913 f   Player.obj
 0001:0004c918       ?PrepareEdit@Player@@QAEXXZ 0044d918 f   Player.obj
 0001:0004c92d       ?_GetBaseMessageMap@SpicydogApp@@KGPBUAFX_MSGMAP@@XZ 0044d92d f   Spicydog.obj
 0001:0004c933       ?GetMessageMap@SpicydogApp@@MBEPBUAFX_MSGMAP@@XZ 0044d933 f   Spicydog.obj
 0001:0004c963       ??1SpicydogApp@@UAE@XZ     0044d963 f i Spicydog.obj
 0001:0004c968       ??0SpicydogApp@@QAE@XZ     0044d968 f   Spicydog.obj
 0001:0004c9a4       ??_GSpicydogApp@@UAEPAXI@Z 0044d9a4 f i Spicydog.obj
 0001:0004c9a4       ??_ESpicydogApp@@UAEPAXI@Z 0044d9a4 f i Spicydog.obj
 0001:0004c9c0       ?InitInstance@SpicydogApp@@EAEHXZ 0044d9c0 f   Spicydog.obj
 0001:0004ca28       ?OnIdle@SpicydogApp@@EAEHJ@Z 0044da28 f   Spicydog.obj
 0001:0004ca46       ?InitEnv@SpicydogApp@@AAEHXZ 0044da46 f   Spicydog.obj
 0001:0004cb00       ?SetRegistryKey@@YAXPAVCWinApp@@PBD1@Z 0044db00 f   Spicydog.obj
 0001:0004cb4a       ?InitPref@SpicydogApp@@AAEHXZ 0044db4a f   Spicydog.obj
 0001:0004cbb7       ?InitMainWnd@SpicydogApp@@AAEHXZ 0044dbb7 f   Spicydog.obj
 0001:0004cc26       ?InitShell@SpicydogApp@@AAEXXZ 0044dc26 f   Spicydog.obj
 0001:0004cc39       ?ProcessShell@SpicydogApp@@AAEHXZ 0044dc39 f   Spicydog.obj
 0001:0004cc9d       ?ShowMainWnd@SpicydogApp@@AAEHXZ 0044dc9d f   Spicydog.obj
 0001:0004ccc8       ?ExitInstance@SpicydogApp@@EAEHXZ 0044dcc8 f   Spicydog.obj
 0001:0004ccee       ?UpdateApplication@SpicydogApp@@QAEXXZ 0044dcee f   Spicydog.obj
 0001:0004cd56       ?OnAppAbout@SpicydogApp@@AAEXXZ 0044dd56 f   Spicydog.obj
 0001:0004cd9b       ?DumpApp@@YGJPAU_EXCEPTION_POINTERS@@@Z 0044dd9b f   Spicydog.obj
 0001:0004ce3e       ??1AppBugDump@@QAE@XZ      0044de3e f i Spicydog.obj
 0001:0004ce73       ?CraeteDocTemplates@SpicydogApp@@AAEXXZ 0044de73 f   Spicydog.obj
 0001:0004cecc       ?_GetBaseMessageMap@SpicydogDoc@@KGPBUAFX_MSGMAP@@XZ 0044decc f   SpicydogDoc.obj
 0001:0004ced2       ?GetMessageMap@SpicydogDoc@@MBEPBUAFX_MSGMAP@@XZ 0044ded2 f   SpicydogDoc.obj
 0001:0004ced8       ?CreateObject@SpicydogDoc@@SGPAVCObject@@XZ 0044ded8 f   SpicydogDoc.obj
 0001:0004cf0d       ?_GetBaseClass@SpicydogDoc@@KGPAUCRuntimeClass@@XZ 0044df0d f   SpicydogDoc.obj
 0001:0004cf13       ?GetRuntimeClass@SpicydogDoc@@UBEPAUCRuntimeClass@@XZ 0044df13 f   SpicydogDoc.obj
 0001:0004cf29       ??0SpicydogDoc@@QAE@XZ     0044df29 f   SpicydogDoc.obj
 0001:0004d051       ??_GSpicydogDoc@@EAEPAXI@Z 0044e051 f i SpicydogDoc.obj
 0001:0004d051       ??_ESpicydogDoc@@EAEPAXI@Z 0044e051 f i SpicydogDoc.obj
 0001:0004d06d       ??1CmdHistory@@QAE@XZ      0044e06d f i SpicydogDoc.obj
 0001:0004d075       ??1SpicydogDoc@@EAE@XZ     0044e075 f   SpicydogDoc.obj
 0001:0004d178       ?OnCloseDocument@SpicydogDoc@@EAEXXZ 0044e178 f   SpicydogDoc.obj
 0001:0004d191       ?DeleteContents@SpicydogDoc@@EAEXXZ 0044e191 f   SpicydogDoc.obj
 0001:0004d1ff       ?OnAppConf@SpicydogDoc@@AAEXXZ 0044e1ff f   SpicydogDoc.obj
 0001:0004d25d       ?UpdateAll@SpicydogDoc@@QAEXPAVCView@@JPAVCObject@@@Z 0044e25d f   SpicydogDoc.obj
 0001:0004d299       ?BeginEdit@SpicydogDoc@@QAEXXZ 0044e299 f   SpicydogDoc.obj
 0001:0004d2a1       ?ShowControlBar@@YAXPAVCFrameWnd@@I@Z 0044e2a1 f   SpicydogDoc.obj
 0001:0004d2c8       ?Build@SpicydogDoc@@AAEHAAVBuilder@@@Z 0044e2c8 f   SpicydogDoc.obj
 0001:0004d372       ?OnAppViewADF@SpicydogDoc@@AAEXXZ 0044e372 f   SpicydogDoc.obj
 0001:0004d43a       ?OnBuild@SpicydogDoc@@AAEXXZ 0044e43a f   SpicydogDoc.obj
 0001:0004d496       ?GetMaxUndoCmd@SpicydogDoc@@EBEHXZ 0044e496 f   SpicydogDoc.obj
 0001:0004d49c       ?OnEditUndo@SpicydogDoc@@AAEXXZ 0044e49c f   SpicydogDoc.obj
 0001:0004d4c4       ?OnEditRedo@SpicydogDoc@@AAEXXZ 0044e4c4 f   SpicydogDoc.obj
 0001:0004d4ec       ?OnClearHistory@SpicydogDoc@@AAEXXZ 0044e4ec f   SpicydogDoc.obj
 0001:0004d514       ?OnUpdateEditRedo@SpicydogDoc@@AAEXPAVCCmdUI@@@Z 0044e514 f   SpicydogDoc.obj
 0001:0004d52e       ?OnUpdateEditUndo@SpicydogDoc@@AAEXPAVCCmdUI@@@Z 0044e52e f   SpicydogDoc.obj
 0001:0004d548       ?OnUpdateClearHistory@SpicydogDoc@@AAEXPAVCCmdUI@@@Z 0044e548 f   SpicydogDoc.obj
 0001:0004d568       ?OnEditUndoAll@SpicydogDoc@@AAEXXZ 0044e568 f   SpicydogDoc.obj
 0001:0004d592       ?OnEditRedoAll@SpicydogDoc@@AAEXXZ 0044e592 f   SpicydogDoc.obj
 0001:0004d5c3       ?GetDefaultAccelerator@SpicydogDoc@@EAEPAUHACCEL__@@XZ 0044e5c3 f   SpicydogDoc.obj
 0001:0004d5dc       ?OnNewDocument@SpicydogDoc@@EAEHXZ 0044e5dc f   SpicydogDoc.obj
 0001:0004d646       ?OnOpenDocument@SpicydogDoc@@EAEHPBD@Z 0044e646 f   SpicydogDoc.obj
 0001:0004d652       ?OnPublishLocal@SpicydogDoc@@AAEXXZ 0044e652 f   SpicydogDoc.obj
 0001:0004d8df       ?UploadSDC@@YAXPBD00AAVCString@@@Z 0044e8df f   SpicydogDoc.obj
 0001:0004dc14       ??0UploadException@@QAE@HHPBD@Z 0044ec14 f i SpicydogDoc.obj
 0001:0004ddb5       ?GetErrorMessage@UploadException@@UAEHPADIPAI@Z 0044edb5 f i SpicydogDoc.obj
 0001:0004ddb5       ?GetErrorMessage@LoadIconException@@UAEHPADIPAI@Z 0044edb5 f i SpicydogDoc.obj
 0001:0004ddcf       ??_GUploadException@@UAEPAXI@Z 0044edcf f i SpicydogDoc.obj
 0001:0004ddcf       ??_EUploadException@@UAEPAXI@Z 0044edcf f i SpicydogDoc.obj
 0001:0004ddeb       ??1UploadException@@UAE@XZ 0044edeb f i SpicydogDoc.obj
 0001:0004de1e       ?SendMail@@YAXPBD0000@Z    0044ee1e f   SpicydogDoc.obj
 0001:0004e02e       ?DisplaySendMailErr@SendMailErrDlg@@SAXPBD@Z 0044f02e f i SpicydogDoc.obj
 0001:0004e079       ??0SendMailErrDlg@@AAE@PBD@Z 0044f079 f i SpicydogDoc.obj
 0001:0004e0cb       ?OnInitDialog@SendMailErrDlg@@EAEHXZ 0044f0cb f i SpicydogDoc.obj
 0001:0004e0ed       ??1SendMailErrDlg@@UAE@XZ  0044f0ed f i SpicydogDoc.obj
 0001:0004e122       ??_ESendMailErrDlg@@UAEPAXI@Z 0044f122 f i SpicydogDoc.obj
 0001:0004e122       ??_GSendMailErrDlg@@UAEPAXI@Z 0044f122 f i SpicydogDoc.obj
 0001:0004e13e       ??1CRFC1468@@QAE@XZ        0044f13e f i SpicydogDoc.obj
 0001:0004e143       ?OnPublishUpload@SpicydogDoc@@AAEXXZ 0044f143 f   SpicydogDoc.obj
 0001:0004e504       ?OnEmuPlay@SpicydogDoc@@AAEXXZ 0044f504 f   SpicydogDoc.obj
 0001:0004e5c9       ?UpdateFrameCounts@SpicydogDoc@@EAEXXZ 0044f5c9 f   SpicydogDoc.obj
 0001:0004e6c8       ?Serialize@SpicydogDoc@@EAEXAAVCArchive@@@Z 0044f6c8 f   SpicydogDoc.obj
 0001:0004e93e       ?OnSaveDocument@SpicydogDoc@@EAEHPBD@Z 0044f93e f   SpicydogDoc.obj
 0001:0004e989       ??4?$auto_ptr@VCharList@@@std@@QAEAAV01@ABV01@@Z 0044f989 f i SpicydogDoc.obj
 0001:0004e989       ??4?$auto_ptr@VSMAFPlayer@@@std@@QAEAAV01@ABV01@@Z 0044f989 f i SpicydogDoc.obj
 0001:0004e989       ??4?$auto_ptr@VSubStages@@@std@@QAEAAV01@ABV01@@Z 0044f989 f i SpicydogDoc.obj
 0001:0004e989       ??4?$auto_ptr@VActionDlg@@@std@@QAEAAV01@ABV01@@Z 0044f989 f i SpicydogDoc.obj
 0001:0004e989       ??4?$auto_ptr@VAppliConf@@@std@@QAEAAV01@ABV01@@Z 0044f989 f i SpicydogDoc.obj
 0001:0004e989       ??4?$auto_ptr@VCHttpConnection@@@std@@QAEAAV01@ABV01@@Z 0044f989 f i SpicydogDoc.obj
 0001:0004e989       ??4?$auto_ptr@VAppli@@@std@@QAEAAV01@ABV01@@Z 0044f989 f i SpicydogDoc.obj
 0001:0004e989       ??4?$auto_ptr@VCHttpFile@@@std@@QAEAAV01@ABV01@@Z 0044f989 f i SpicydogDoc.obj
 0001:0004e989       ??4?$auto_ptr@VCPropertyPage@@@std@@QAEAAV01@ABV01@@Z 0044f989 f i SpicydogDoc.obj
 0001:0004e989       ??4?$auto_ptr@VCInternetSession@@@std@@QAEAAV01@ABV01@@Z 0044f989 f i SpicydogDoc.obj
 0001:0004e989       ??4?$auto_ptr@VCnt@@@std@@QAEAAV01@ABV01@@Z 0044f989 f i SpicydogDoc.obj
 0001:0004e9cb       ?IsModified@CDocument@@UAEHXZ 0044f9cb f i SpicydogDoc.obj
 0001:0004e9cf       ?SetModifiedFlag@CDocument@@UAEXH@Z 0044f9cf f i SpicydogDoc.obj
 0001:0004e9d9       ??0SpicydogDocTempl@@QAE@IPAUCRuntimeClass@@00@Z 0044f9d9 f   SpicydogDocTempl.obj
 0001:0004e9fd       ??_ESpicydogDocTempl@@UAEPAXI@Z 0044f9fd f i SpicydogDocTempl.obj
 0001:0004e9fd       ??_GSpicydogDocTempl@@UAEPAXI@Z 0044f9fd f i SpicydogDocTempl.obj
 0001:0004ea19       ??1SpicydogDocTempl@@UAE@XZ 0044fa19 f i SpicydogDocTempl.obj
 0001:0004ea1e       ?OpenDocumentFile@SpicydogDocTempl@@UAEPAVCDocument@@PBDH@Z 0044fa1e f   SpicydogDocTempl.obj
 0001:0004ec32       ??0CConfigArchiver@@QAE@HPAVCWinApp@@@Z 0044fc32 f   SpicydogPref.obj
 0001:0004ec57       ?EnterSection@CConfigArchiver@@QAEXPBD@Z 0044fc57 f   SpicydogPref.obj
 0001:0004ec66       ?SerializeInt@CConfigArchiver@@QAEXPBDAAHH@Z 0044fc66 f   SpicydogPref.obj
 0001:0004ec9f       ?SerializeInt@CConfigArchiver@@QAEXPBDAAKH@Z 0044fc9f f   SpicydogPref.obj
 0001:0004ecd8       ?SerializeStr@CConfigArchiver@@QAEXPBDAAVCString@@0@Z 0044fcd8 f   SpicydogPref.obj
 0001:0004ed3a       ?ExitSection@CConfigArchiver@@QAEXXZ 0044fd3a f   SpicydogPref.obj
 0001:0004ed42       ?SerializeConfig@CConfigArchiver@@UAEXXZ 0044fd42 f   SpicydogPref.obj
 0001:0004eeb8       ?LoadConfig@SpicydogPref@@SAXPAVCWinApp@@@Z 0044feb8 f   SpicydogPref.obj
 0001:0004eef6       ?SaveConfig@SpicydogPref@@SAXPAVCWinApp@@@Z 0044fef6 f   SpicydogPref.obj
 0001:0004efc8       _L_GetFixedPalette@8       0044ffc8 f   ltkrn_n:LTKRN12n.dll
 0001:0004efce       _L_PaintDC@28              0044ffce f   LTDIS_n:LTDIS12n.dll
 0001:0004efd4       _L_CreatePaintPalette@8    0044ffd4 f   LTDIS_n:LTDIS12n.dll
 0001:0004efda       _L_SharpenBitmap@8         0044ffda f   ltimg_n:LTIMG12n.dll
 0001:0004efe0       _L_MosaicBitmap@8          0044ffe0 f   ltimg_n:LTIMG12n.dll
 0001:0004efe6       _L_AverageFilterBitmap@8   0044ffe6 f   ltimg_n:LTIMG12n.dll
 0001:0004efec       _L_MedianFilterBitmap@8    0044ffec f   ltimg_n:LTIMG12n.dll
 0001:0004eff2       _L_SolarizeBitmap@8        0044fff2 f   ltimg_n:LTIMG12n.dll
 0001:0004eff8       _L_OilifyBitmap@8          0044fff8 f   ltimg_n:LTIMG12n.dll
 0001:0004effe       _L_PosterizeBitmap@8       0044fffe f   ltimg_n:LTIMG12n.dll
 0001:0004f004       ?flush@XMLFormatTarget@xercesc_2_2@@UAEXXZ 00450004 f   xerces-c_2:xerces-c_2_2_0.dll
 0001:0004f00a       ?writeChars@MemBufFormatTarget@xercesc_2_2@@UAEXQBEIQAVXMLFormatter@2@@Z 0045000a f   xerces-c_2:xerces-c_2_2_0.dll
 0001:0004f010       ?TextDecl@AbstractDOMParser@xercesc_2_2@@UAEXQBG0@Z 00450010 f   xerces-c_2:xerces-c_2_2_0.dll
 0001:0004f016       ?startExtSubset@AbstractDOMParser@xercesc_2_2@@UAEXXZ 00450016 f   xerces-c_2:xerces-c_2_2_0.dll
 0001:0004f01c       ?startIntSubset@AbstractDOMParser@xercesc_2_2@@UAEXXZ 0045001c f   xerces-c_2:xerces-c_2_2_0.dll
 0001:0004f022       ?startAttList@AbstractDOMParser@xercesc_2_2@@UAEXABVDTDElementDecl@2@@Z 00450022 f   xerces-c_2:xerces-c_2_2_0.dll
 0001:0004f028       ?notationDecl@AbstractDOMParser@xercesc_2_2@@UAEXABVXMLNotationDecl@2@_N@Z 00450028 f   xerces-c_2:xerces-c_2_2_0.dll
 0001:0004f02e       ?resetDocType@AbstractDOMParser@xercesc_2_2@@UAEXXZ 0045002e f   xerces-c_2:xerces-c_2_2_0.dll
 0001:0004f034       ?entityDecl@AbstractDOMParser@xercesc_2_2@@UAEXABVDTDEntityDecl@2@_N1@Z 00450034 f   xerces-c_2:xerces-c_2_2_0.dll
 0001:0004f03a       ?endExtSubset@AbstractDOMParser@xercesc_2_2@@UAEXXZ 0045003a f   xerces-c_2:xerces-c_2_2_0.dll
 0001:0004f040       ?endIntSubset@AbstractDOMParser@xercesc_2_2@@UAEXXZ 00450040 f   xerces-c_2:xerces-c_2_2_0.dll
 0001:0004f046       ?endAttList@AbstractDOMParser@xercesc_2_2@@UAEXABVDTDElementDecl@2@@Z 00450046 f   xerces-c_2:xerces-c_2_2_0.dll
 0001:0004f04c       ?elementDecl@AbstractDOMParser@xercesc_2_2@@UAEXABVDTDElementDecl@2@_N@Z 0045004c f   xerces-c_2:xerces-c_2_2_0.dll
 0001:0004f052       ?doctypeWhitespace@AbstractDOMParser@xercesc_2_2@@UAEXQBGI@Z 00450052 f   xerces-c_2:xerces-c_2_2_0.dll
 0001:0004f058       ?doctypePI@AbstractDOMParser@xercesc_2_2@@UAEXQBG0@Z 00450058 f   xerces-c_2:xerces-c_2_2_0.dll
 0001:0004f05e       ?doctypeDecl@AbstractDOMParser@xercesc_2_2@@UAEXABVDTDElementDecl@2@QBG1_N2@Z 0045005e f   xerces-c_2:xerces-c_2_2_0.dll
 0001:0004f064       ?doctypeComment@AbstractDOMParser@xercesc_2_2@@UAEXQBG@Z 00450064 f   xerces-c_2:xerces-c_2_2_0.dll
 0001:0004f06a       ?attDef@AbstractDOMParser@xercesc_2_2@@UAEXABVDTDElementDecl@2@ABVDTDAttDef@2@_N@Z 0045006a f   xerces-c_2:xerces-c_2_2_0.dll
 0001:0004f070       ?startInputSource@XercesDOMParser@xercesc_2_2@@UAEXABVInputSource@2@@Z 00450070 f   xerces-c_2:xerces-c_2_2_0.dll
 0001:0004f076       ?resolveEntity@XercesDOMParser@xercesc_2_2@@UAEPAVInputSource@2@QBG00@Z 00450076 f   xerces-c_2:xerces-c_2_2_0.dll
 0001:0004f07c       ?resetEntities@XercesDOMParser@xercesc_2_2@@UAEXXZ 0045007c f   xerces-c_2:xerces-c_2_2_0.dll
 0001:0004f082       ?expandSystemId@XercesDOMParser@xercesc_2_2@@UAE_NQBGAAVXMLBuffer@2@@Z 00450082 f   xerces-c_2:xerces-c_2_2_0.dll
 0001:0004f088       ?endInputSource@XercesDOMParser@xercesc_2_2@@UAEXABVInputSource@2@@Z 00450088 f   xerces-c_2:xerces-c_2_2_0.dll
 0001:0004f08e       ?resetErrors@XercesDOMParser@xercesc_2_2@@UAEXXZ 0045008e f   xerces-c_2:xerces-c_2_2_0.dll
 0001:0004f094       ?error@XercesDOMParser@xercesc_2_2@@UAEXIQBGW4ErrTypes@XMLErrorReporter@2@000JJ@Z 00450094 f   xerces-c_2:xerces-c_2_2_0.dll
 0001:0004f09a       ?createElementNSNode@AbstractDOMParser@xercesc_2_2@@MAEPAVDOMElement@2@PBG0@Z 0045009a f   xerces-c_2:xerces-c_2_2_0.dll
 0001:0004f0a0       ?XMLDecl@AbstractDOMParser@xercesc_2_2@@UAEXQBG000@Z 004500a0 f   xerces-c_2:xerces-c_2_2_0.dll
 0001:0004f0a6       ?startEntityReference@AbstractDOMParser@xercesc_2_2@@UAEXABVXMLEntityDecl@2@@Z 004500a6 f   xerces-c_2:xerces-c_2_2_0.dll
 0001:0004f0ac       ?startElement@AbstractDOMParser@xercesc_2_2@@UAEXABVXMLElementDecl@2@IQBGABV?$RefVectorOf@VXMLAttr@xercesc_2_2@@@2@I_N3@Z 004500ac f   xerces-c_2:xerces-c_2_2_0.dll
 0001:0004f0b2       ?startDocument@AbstractDOMParser@xercesc_2_2@@UAEXXZ 004500b2 f   xerces-c_2:xerces-c_2_2_0.dll
 0001:0004f0b8       ?resetDocument@AbstractDOMParser@xercesc_2_2@@UAEXXZ 004500b8 f   xerces-c_2:xerces-c_2_2_0.dll
 0001:0004f0be       ?ignorableWhitespace@AbstractDOMParser@xercesc_2_2@@UAEXQBGI_N@Z 004500be f   xerces-c_2:xerces-c_2_2_0.dll
 0001:0004f0c4       ?endEntityReference@AbstractDOMParser@xercesc_2_2@@UAEXABVXMLEntityDecl@2@@Z 004500c4 f   xerces-c_2:xerces-c_2_2_0.dll
 0001:0004f0ca       ?endElement@AbstractDOMParser@xercesc_2_2@@UAEXABVXMLElementDecl@2@I_NQBG@Z 004500ca f   xerces-c_2:xerces-c_2_2_0.dll
 0001:0004f0d0       ?endDocument@AbstractDOMParser@xercesc_2_2@@UAEXXZ 004500d0 f   xerces-c_2:xerces-c_2_2_0.dll
 0001:0004f0d6       ?docPI@AbstractDOMParser@xercesc_2_2@@UAEXQBG0@Z 004500d6 f   xerces-c_2:xerces-c_2_2_0.dll
 0001:0004f0dc       ?docComment@AbstractDOMParser@xercesc_2_2@@UAEXQBG@Z 004500dc f   xerces-c_2:xerces-c_2_2_0.dll
 0001:0004f0e2       ?docCharacters@AbstractDOMParser@xercesc_2_2@@UAEXQBGI_N@Z 004500e2 f   xerces-c_2:xerces-c_2_2_0.dll
 0001:0004f0e8       ?setIssueFatalErrorIfNotFound@InputSource@xercesc_2_2@@UAEX_N@Z 004500e8 f   xerces-c_2:xerces-c_2_2_0.dll
 0001:0004f0ee       ?setSystemId@InputSource@xercesc_2_2@@UAEXQBG@Z 004500ee f   xerces-c_2:xerces-c_2_2_0.dll
 0001:0004f0f4       ?setPublicId@InputSource@xercesc_2_2@@UAEXQBG@Z 004500f4 f   xerces-c_2:xerces-c_2_2_0.dll
 0001:0004f0fa       ?setEncoding@InputSource@xercesc_2_2@@UAEXQBG@Z 004500fa f   xerces-c_2:xerces-c_2_2_0.dll
 0001:0004f100       ?getIssueFatalErrorIfNotFound@InputSource@xercesc_2_2@@UBE?B_NXZ 00450100 f   xerces-c_2:xerces-c_2_2_0.dll
 0001:0004f106       ?getSystemId@InputSource@xercesc_2_2@@UBEPBGXZ 00450106 f   xerces-c_2:xerces-c_2_2_0.dll
 0001:0004f10c       ?getPublicId@InputSource@xercesc_2_2@@UBEPBGXZ 0045010c f   xerces-c_2:xerces-c_2_2_0.dll
 0001:0004f112       ?getEncoding@InputSource@xercesc_2_2@@UBEPBGXZ 00450112 f   xerces-c_2:xerces-c_2_2_0.dll
 0001:0004f118       ?makeStream@MemBufInputSource@xercesc_2_2@@UBEPAVBinInputStream@2@XZ 00450118 f   xerces-c_2:xerces-c_2_2_0.dll
 0001:0004f120       ??0SourceLine@CppUnit@@QAE@XZ 00450120 f   cppunit:SourceLine.obj
 0001:0004f150       ??_GSourceLine@CppUnit@@UAEPAXI@Z 00450150 f i cppunit:SourceLine.obj
 0001:0004f150       ??_ESourceLine@CppUnit@@UAEPAXI@Z 00450150 f i cppunit:SourceLine.obj
 0001:0004f170       ??0SourceLine@CppUnit@@QAE@ABV?$basic_string@DU?$char_traits@D@std@@V?$allocator@D@2@@std@@H@Z 00450170 f   cppunit:SourceLine.obj
 0001:0004f2b0       ??1SourceLine@CppUnit@@UAE@XZ 004502b0 f   cppunit:SourceLine.obj
 0001:0004f300       ?fail@Asserter@CppUnit@@YAXV?$basic_string@DU?$char_traits@D@std@@V?$allocator@D@2@@std@@VSourceLine@2@@Z 00450300 f   cppunit:Asserter.obj
 0001:0004f3c0       ?failIf@Asserter@CppUnit@@YAX_NV?$basic_string@DU?$char_traits@D@std@@V?$allocator@D@2@@std@@VSourceLine@2@@Z 004503c0 f   cppunit:Asserter.obj
 0001:0004f4a0       ??1NamedRegistries@CppUnit@@QAE@XZ 004504a0 f   cppunit:TestFactoryRegistry.obj
 0001:0004f680       ??1?$map@V?$basic_string@DU?$char_traits@D@std@@V?$allocator@D@2@@std@@PAVTestFactoryRegistry@CppUnit@@U?$less@V?$basic_string@DU?$char_traits@D@std@@V?$allocator@D@2@@std@@@2@V?$allocator@PAVTestFactoryRegistry@CppUnit@@@2@@std@@QAE@XZ 00450680 f i cppunit:TestFactoryRegistry.obj
 0001:0004f780       ??1?$set@PAVTestFactory@CppUnit@@U?$less@PAVTestFactory@CppUnit@@@std@@V?$allocator@PAVTestFactory@CppUnit@@@4@@std@@QAE@XZ 00450780 f i cppunit:TestFactoryRegistry.obj
 0001:0004f870       ?getInstance@NamedRegistries@CppUnit@@SAAAV12@XZ 00450870 f   cppunit:TestFactoryRegistry.obj
 0001:0004f8c0       ??0NamedRegistries@CppUnit@@QAE@XZ 004508c0 f i cppunit:TestFactoryRegistry.obj
 0001:0004fab0       ?getRegistry@NamedRegistries@CppUnit@@QAEAAVTestFactoryRegistry@2@V?$basic_string@DU?$char_traits@D@std@@V?$allocator@D@2@@std@@@Z 00450ab0 f   cppunit:TestFactoryRegistry.obj
 0001:0004fc60       ?wasDestroyed@NamedRegistries@CppUnit@@QAEXPAVTestFactory@2@@Z 00450c60 f   cppunit:TestFactoryRegistry.obj
 0001:0004fd90       ?needDestroy@NamedRegistries@CppUnit@@QAE_NPAVTestFactory@2@@Z 00450d90 f   cppunit:TestFactoryRegistry.obj
 0001:0004fe20       ??0TestFactoryRegistry@CppUnit@@QAE@V?$basic_string@DU?$char_traits@D@std@@V?$allocator@D@2@@std@@@Z 00450e20 f   cppunit:TestFactoryRegistry.obj
 0001:0004ff60       ??_ETestFactoryRegistry@CppUnit@@UAEPAXI@Z 00450f60 f i cppunit:TestFactoryRegistry.obj
 0001:0004ff60       ??_GTestFactoryRegistry@CppUnit@@UAEPAXI@Z 00450f60 f i cppunit:TestFactoryRegistry.obj
 0001:0004ff80       ??1?$map@V?$basic_string@DU?$char_traits@D@std@@V?$allocator@D@2@@std@@PAVTestFactory@CppUnit@@U?$less@V?$basic_string@DU?$char_traits@D@std@@V?$allocator@D@2@@std@@@2@V?$allocator@PAVTestFactory@CppUnit@@@2@@std@@QAE@XZ 00450f80 f i cppunit:TestFactoryRegistry.obj
 0001:00050080       ??1TestFactoryRegistry@CppUnit@@UAE@XZ 00451080 f   cppunit:TestFactoryRegistry.obj
 0001:000501d0       ?getRegistry@TestFactoryRegistry@CppUnit@@SAAAV12@XZ 004511d0 f   cppunit:TestFactoryRegistry.obj
 0001:000502a0       ?getRegistry@TestFactoryRegistry@CppUnit@@SAAAV12@ABV?$basic_string@DU?$char_traits@D@std@@V?$allocator@D@2@@std@@@Z 004512a0 f   cppunit:TestFactoryRegistry.obj
 0001:00050400       ?registerFactory@TestFactoryRegistry@CppUnit@@QAEXABV?$basic_string@DU?$char_traits@D@std@@V?$allocator@D@2@@std@@PAVTestFactory@2@@Z 00451400 f   cppunit:TestFactoryRegistry.obj
 0001:00050420       ?registerFactory@TestFactoryRegistry@CppUnit@@QAEXPAVTestFactory@2@@Z 00451420 f   cppunit:TestFactoryRegistry.obj
 0001:000505c0       ??_DOStringStream@CppUnit@@QAEXXZ 004515c0 f i cppunit:TestFactoryRegistry.obj
 0001:000505e0       ??_EOStringStream@CppUnit@@UAEPAXI@Z 004515e0 f i cppunit:TestFactoryRegistry.obj
 0001:000505e0       ??_GOStringStream@CppUnit@@UAEPAXI@Z 004515e0 f i cppunit:TestFactoryRegistry.obj
 0001:00050610       ??1OStringStream@CppUnit@@UAE@XZ 00451610 f i cppunit:TestFactoryRegistry.obj
 0001:000506f0       ?makeTest@TestFactoryRegistry@CppUnit@@UAEPAVTest@2@XZ 004516f0 f   cppunit:TestFactoryRegistry.obj
 0001:000508a0       ?addTestToSuite@TestFactoryRegistry@CppUnit@@QAEXPAVTestSuite@2@@Z 004518a0 f   cppunit:TestFactoryRegistry.obj
 0001:00050910       ??1TestFactory@CppUnit@@UAE@XZ 00451910 f i cppunit:TestFactoryRegistry.obj
 0001:00050920       ??A?$map@V?$basic_string@DU?$char_traits@D@std@@V?$allocator@D@2@@std@@PAVTestFactory@CppUnit@@U?$less@V?$basic_string@DU?$char_traits@D@std@@V?$allocator@D@2@@std@@@2@V?$allocator@PAVTestFactory@CppUnit@@@2@@std@@QAEAAPAVTestFactory@CppUnit@@ABV?$basic_string@DU?$char_traits@D@std@@V?$allocator@D@2@@1@@Z 00451920 f i cppunit:TestFactoryRegistry.obj
 0001:00050a00       ??1?$pair@V?$basic_string@DU?$char_traits@D@std@@V?$allocator@D@2@@std@@PAVTestFactoryRegistry@CppUnit@@@std@@QAE@XZ 00451a00 f i cppunit:TestFactoryRegistry.obj
 0001:00050a00       ??1Type@Exception@CppUnit@@QAE@XZ 00451a00 f i cppunit:TestFactoryRegistry.obj
 0001:00050a00       ??1?$pair@$$CBV?$basic_string@DU?$char_traits@D@std@@V?$allocator@D@2@@std@@PAVTestFactory@CppUnit@@@std@@QAE@XZ 00451a00 f i cppunit:TestFactoryRegistry.obj
 0001:00050a00       ??1?$pair@$$CBV?$basic_string@DU?$char_traits@D@std@@V?$allocator@D@2@@std@@PAVTestFactoryRegistry@CppUnit@@@std@@QAE@XZ 00451a00 f i cppunit:TestFactoryRegistry.obj
 0001:00050a40       ?begin@?$_Tree@V?$basic_string@DU?$char_traits@D@std@@V?$allocator@D@2@@std@@U?$pair@$$CBV?$basic_string@DU?$char_traits@D@std@@V?$allocator@D@2@@std@@PAVTestFactoryRegistry@CppUnit@@@2@U_Kfn@?$map@V?$basic_string@DU?$char_traits@D@std@@V?$allocator@D@2@@std@@PAVTestFactoryRegistry@CppUnit@@U?$less@V?$basic_string@DU?$char_traits@D@std@@V?$allocator@D@2@@std@@@2@V?$allocator@PAVTestFactoryRegistry@CppUnit@@@2@@2@U?$less@V?$basic_string@DU?$char_traits@D@std@@V?$allocator@D@2@@std@@@2@V?$allocator@PAVTestFactoryRegistry@CppUnit@@@2@@std@@QAE?AViterator@12@XZ 00451a40 f i cppunit:TestFactoryRegistry.obj
 0001:00050a40       ?begin@?$_Tree@V?$basic_string@DU?$char_traits@D@std@@V?$allocator@D@2@@std@@U?$pair@$$CBV?$basic_string@DU?$char_traits@D@std@@V?$allocator@D@2@@std@@PAVTestFactory@CppUnit@@@2@U_Kfn@?$map@V?$basic_string@DU?$char_traits@D@std@@V?$allocator@D@2@@std@@PAVTestFactory@CppUnit@@U?$less@V?$basic_string@DU?$char_traits@D@std@@V?$allocator@D@2@@std@@@2@V?$allocator@PAVTestFactory@CppUnit@@@2@@2@U?$less@V?$basic_string@DU?$char_traits@D@std@@V?$allocator@D@2@@std@@@2@V?$allocator@PAVTestFactory@CppUnit@@@2@@std@@QAE?AViterator@12@XZ 00451a40 f i cppunit:TestFactoryRegistry.obj
 0001:00050a40       ?begin@?$_Tree@PAVTestFactory@CppUnit@@PAV12@U_Kfn@?$set@PAVTestFactory@CppUnit@@U?$less@PAVTestFactory@CppUnit@@@std@@V?$allocator@PAVTestFactory@CppUnit@@@4@@std@@U?$less@PAVTestFactory@CppUnit@@@5@V?$allocator@PAVTestFactory@CppUnit@@@5@@std@@QAE?AViterator@12@XZ 00451a40 f i cppunit:TestFactoryRegistry.obj
 0001:00050a50       ?erase@?$_Tree@V?$basic_string@DU?$char_traits@D@std@@V?$allocator@D@2@@std@@U?$pair@$$CBV?$basic_string@DU?$char_traits@D@std@@V?$allocator@D@2@@std@@PAVTestFactory@CppUnit@@@2@U_Kfn@?$map@V?$basic_string@DU?$char_traits@D@std@@V?$allocator@D@2@@std@@PAVTestFactory@CppUnit@@U?$less@V?$basic_string@DU?$char_traits@D@std@@V?$allocator@D@2@@std@@@2@V?$allocator@PAVTestFactory@CppUnit@@@2@@2@U?$less@V?$basic_string@DU?$char_traits@D@std@@V?$allocator@D@2@@std@@@2@V?$allocator@PAVTestFactory@CppUnit@@@2@@std@@QAE?AViterator@12@V312@0@Z 00451a50 f i cppunit:TestFactoryRegistry.obj
 0001:00050b30       ?_Inc@const_iterator@?$_Tree@V?$basic_string@DU?$char_traits@D@std@@V?$allocator@D@2@@std@@U?$pair@$$CBV?$basic_string@DU?$char_traits@D@std@@V?$allocator@D@2@@std@@PAVTestFactory@CppUnit@@@2@U_Kfn@?$map@V?$basic_string@DU?$char_traits@D@std@@V?$allocator@D@2@@std@@PAVTestFactory@CppUnit@@U?$less@V?$basic_string@DU?$char_traits@D@std@@V?$allocator@D@2@@std@@@2@V?$allocator@PAVTestFactory@CppUnit@@@2@@2@U?$less@V?$basic_string@DU?$char_traits@D@std@@V?$allocator@D@2@@std@@@2@V?$allocator@PAVTestFactory@CppUnit@@@2@@std@@QAEXXZ 00451b30 f i cppunit:TestFactoryRegistry.obj
 0001:00050b80       ?insert@?$_Tree@V?$basic_string@DU?$char_traits@D@std@@V?$allocator@D@2@@std@@U?$pair@$$CBV?$basic_string@DU?$char_traits@D@std@@V?$allocator@D@2@@std@@PAVTestFactoryRegistry@CppUnit@@@2@U_Kfn@?$map@V?$basic_string@DU?$char_traits@D@std@@V?$allocator@D@2@@std@@PAVTestFactoryRegistry@CppUnit@@U?$less@V?$basic_string@DU?$char_traits@D@std@@V?$allocator@D@2@@std@@@2@V?$allocator@PAVTestFactoryRegistry@CppUnit@@@2@@2@U?$less@V?$basic_string@DU?$char_traits@D@std@@V?$allocator@D@2@@std@@@2@V?$allocator@PAVTestFactoryRegistry@CppUnit@@@2@@std@@QAE?AU?$pair@Viterator@?$_Tree@V?$basic_string@DU?$char_traits@D@std@@V?$allocator@D@2@@std@@U?$pair@$$CBV?$basic_string@DU?$char_traits@D@std@@V?$allocator@D@2@@std@@PAVTestFactoryRegistry@CppUnit@@@2@U_Kfn@?$map@V?$basic_string@DU?$char_traits@D@std@@V?$allocator@D@2@@std@@PAVTestFactoryRegistry@CppUnit@@U?$less@V?$basic_string@DU?$char_traits@D@std@@V?$allocator@D@2@@std@@@2@V?$allocator@PAVTestFactoryRegistry@CppUnit@@@2@@2@U?$less@V?$basic_string@DU?$char_traits@D@std@@V?$allocator@D@2@@std@@@2@V?$allocator@PAVTestFactoryRegistry@CppUnit@@@2@@std@@_N@2@ABU?$pair@$$CBV?$basic_string@DU?$char_traits@D@std@@V?$allocator@D@2@@std@@PAVTestFactoryRegistry@CppUnit@@@2@@Z 00451b80 f i cppunit:TestFactoryRegistry.obj
 0001:00050dd0       ?erase@?$_Tree@V?$basic_string@DU?$char_traits@D@std@@V?$allocator@D@2@@std@@U?$pair@$$CBV?$basic_string@DU?$char_traits@D@std@@V?$allocator@D@2@@std@@PAVTestFactoryRegistry@CppUnit@@@2@U_Kfn@?$map@V?$basic_string@DU?$char_traits@D@std@@V?$allocator@D@2@@std@@PAVTestFactoryRegistry@CppUnit@@U?$less@V?$basic_string@DU?$char_traits@D@std@@V?$allocator@D@2@@std@@@2@V?$allocator@PAVTestFactoryRegistry@CppUnit@@@2@@2@U?$less@V?$basic_string@DU?$char_traits@D@std@@V?$allocator@D@2@@std@@@2@V?$allocator@PAVTestFactoryRegistry@CppUnit@@@2@@std@@QAE?AViterator@12@V312@0@Z 00451dd0 f i cppunit:TestFactoryRegistry.obj
 0001:00050eb0       ?find@?$_Tree@V?$basic_string@DU?$char_traits@D@std@@V?$allocator@D@2@@std@@U?$pair@$$CBV?$basic_string@DU?$char_traits@D@std@@V?$allocator@D@2@@std@@PAVTestFactoryRegistry@CppUnit@@@2@U_Kfn@?$map@V?$basic_string@DU?$char_traits@D@std@@V?$allocator@D@2@@std@@PAVTestFactoryRegistry@CppUnit@@U?$less@V?$basic_string@DU?$char_traits@D@std@@V?$allocator@D@2@@std@@@2@V?$allocator@PAVTestFactoryRegistry@CppUnit@@@2@@2@U?$less@V?$basic_string@DU?$char_traits@D@std@@V?$allocator@D@2@@std@@@2@V?$allocator@PAVTestFactoryRegistry@CppUnit@@@2@@std@@QAE?AViterator@12@ABV?$basic_string@DU?$char_traits@D@std@@V?$allocator@D@2@@2@@Z 00451eb0 f i cppunit:TestFactoryRegistry.obj
 0001:00050f40       ?insert@?$_Tree@PAVTestFactory@CppUnit@@PAV12@U_Kfn@?$set@PAVTestFactory@CppUnit@@U?$less@PAVTestFactory@CppUnit@@@std@@V?$allocator@PAVTestFactory@CppUnit@@@4@@std@@U?$less@PAVTestFactory@CppUnit@@@5@V?$allocator@PAVTestFactory@CppUnit@@@5@@std@@QAE?AU?$pair@Viterator@?$_Tree@PAVTestFactory@CppUnit@@PAV12@U_Kfn@?$set@PAVTestFactory@CppUnit@@U?$less@PAVTestFactory@CppUnit@@@std@@V?$allocator@PAVTestFactory@CppUnit@@@4@@std@@U?$less@PAVTestFactory@CppUnit@@@5@V?$allocator@PAVTestFactory@CppUnit@@@5@@std@@_N@2@ABQAVTestFactory@CppUnit@@@Z 00451f40 f i cppunit:TestFactoryRegistry.obj
 0001:00051180       ?erase@?$_Tree@PAVTestFactory@CppUnit@@PAV12@U_Kfn@?$set@PAVTestFactory@CppUnit@@U?$less@PAVTestFactory@CppUnit@@@std@@V?$allocator@PAVTestFactory@CppUnit@@@4@@std@@U?$less@PAVTestFactory@CppUnit@@@5@V?$allocator@PAVTestFactory@CppUnit@@@5@@std@@QAE?AViterator@12@V312@0@Z 00452180 f i cppunit:TestFactoryRegistry.obj
 0001:00051250       ??0?$pair@Viterator@?$_Tree@PAVTestFactory@CppUnit@@PAV12@U_Kfn@?$set@PAVTestFactory@CppUnit@@U?$less@PAVTestFactory@CppUnit@@@std@@V?$allocator@PAVTestFactory@CppUnit@@@4@@std@@U?$less@PAVTestFactory@CppUnit@@@5@V?$allocator@PAVTestFactory@CppUnit@@@5@@std@@_N@std@@QAE@ABViterator@?$_Tree@PAVTestFactory@CppUnit@@PAV12@U_Kfn@?$set@PAVTestFactory@CppUnit@@U?$less@PAVTestFactory@CppUnit@@@std@@V?$allocator@PAVTestFactory@CppUnit@@@4@@std@@U?$less@PAVTestFactory@CppUnit@@@5@V?$allocator@PAVTestFactory@CppUnit@@@5@@1@AB_N@Z 00452250 f i cppunit:TestFactoryRegistry.obj
 0001:00051270       ?insert@?$_Tree@V?$basic_string@DU?$char_traits@D@std@@V?$allocator@D@2@@std@@U?$pair@$$CBV?$basic_string@DU?$char_traits@D@std@@V?$allocator@D@2@@std@@PAVTestFactory@CppUnit@@@2@U_Kfn@?$map@V?$basic_string@DU?$char_traits@D@std@@V?$allocator@D@2@@std@@PAVTestFactory@CppUnit@@U?$less@V?$basic_string@DU?$char_traits@D@std@@V?$allocator@D@2@@std@@@2@V?$allocator@PAVTestFactory@CppUnit@@@2@@2@U?$less@V?$basic_string@DU?$char_traits@D@std@@V?$allocator@D@2@@std@@@2@V?$allocator@PAVTestFactory@CppUnit@@@2@@std@@QAE?AU?$pair@Viterator@?$_Tree@V?$basic_string@DU?$char_traits@D@std@@V?$allocator@D@2@@std@@U?$pair@$$CBV?$basic_string@DU?$char_traits@D@std@@V?$allocator@D@2@@std@@PAVTestFactory@CppUnit@@@2@U_Kfn@?$map@V?$basic_string@DU?$char_traits@D@std@@V?$allocator@D@2@@std@@PAVTestFactory@CppUnit@@U?$less@V?$basic_string@DU?$char_traits@D@std@@V?$allocator@D@2@@std@@@2@V?$allocator@PAVTestFactory@CppUnit@@@2@@2@U?$less@V?$basic_string@DU?$char_traits@D@std@@V?$allocator@D@2@@std@@@2@V?$allocator@PAVTestFactory@CppUnit@@@2@@std@@_N@2@ABU?$pair@$$CBV?$basic_string@DU?$char_traits@D@std@@V?$allocator@D@2@@std@@PAVTestFactory@CppUnit@@@2@@Z 00452270 f i cppunit:TestFactoryRegistry.obj
 0001:000514c0       ?erase@?$_Tree@V?$basic_string@DU?$char_traits@D@std@@V?$allocator@D@2@@std@@U?$pair@$$CBV?$basic_string@DU?$char_traits@D@std@@V?$allocator@D@2@@std@@PAVTestFactory@CppUnit@@@2@U_Kfn@?$map@V?$basic_string@DU?$char_traits@D@std@@V?$allocator@D@2@@std@@PAVTestFactory@CppUnit@@U?$less@V?$basic_string@DU?$char_traits@D@std@@V?$allocator@D@2@@std@@@2@V?$allocator@PAVTestFactory@CppUnit@@@2@@2@U?$less@V?$basic_string@DU?$char_traits@D@std@@V?$allocator@D@2@@std@@@2@V?$allocator@PAVTestFactory@CppUnit@@@2@@std@@QAE?AViterator@12@V312@@Z 004524c0 f i cppunit:TestFactoryRegistry.obj
 0001:000518f0       ?_Erase@?$_Tree@V?$basic_string@DU?$char_traits@D@std@@V?$allocator@D@2@@std@@U?$pair@$$CBV?$basic_string@DU?$char_traits@D@std@@V?$allocator@D@2@@std@@PAVTestFactory@CppUnit@@@2@U_Kfn@?$map@V?$basic_string@DU?$char_traits@D@std@@V?$allocator@D@2@@std@@PAVTestFactory@CppUnit@@U?$less@V?$basic_string@DU?$char_traits@D@std@@V?$allocator@D@2@@std@@@2@V?$allocator@PAVTestFactory@CppUnit@@@2@@2@U?$less@V?$basic_string@DU?$char_traits@D@std@@V?$allocator@D@2@@std@@@2@V?$allocator@PAVTestFactory@CppUnit@@@2@@std@@IAEXPAU_Node@12@@Z 004528f0 f i cppunit:TestFactoryRegistry.obj
 0001:00051940       ?_Min@?$_Tree@V?$basic_string@DU?$char_traits@D@std@@V?$allocator@D@2@@std@@U?$pair@$$CBV?$basic_string@DU?$char_traits@D@std@@V?$allocator@D@2@@std@@PAVTestFactory@CppUnit@@@2@U_Kfn@?$map@V?$basic_string@DU?$char_traits@D@std@@V?$allocator@D@2@@std@@PAVTestFactory@CppUnit@@U?$less@V?$basic_string@DU?$char_traits@D@std@@V?$allocator@D@2@@std@@@2@V?$allocator@PAVTestFactory@CppUnit@@@2@@2@U?$less@V?$basic_string@DU?$char_traits@D@std@@V?$allocator@D@2@@std@@@2@V?$allocator@PAVTestFactory@CppUnit@@@2@@std@@KAPAU_Node@12@PAU312@@Z 00452940 f i cppunit:TestFactoryRegistry.obj
 0001:00051960       ?erase@?$_Tree@V?$basic_string@DU?$char_traits@D@std@@V?$allocator@D@2@@std@@U?$pair@$$CBV?$basic_string@DU?$char_traits@D@std@@V?$allocator@D@2@@std@@PAVTestFactoryRegistry@CppUnit@@@2@U_Kfn@?$map@V?$basic_string@DU?$char_traits@D@std@@V?$allocator@D@2@@std@@PAVTestFactoryRegistry@CppUnit@@U?$less@V?$basic_string@DU?$char_traits@D@std@@V?$allocator@D@2@@std@@@2@V?$allocator@PAVTestFactoryRegistry@CppUnit@@@2@@2@U?$less@V?$basic_string@DU?$char_traits@D@std@@V?$allocator@D@2@@std@@@2@V?$allocator@PAVTestFactoryRegistry@CppUnit@@@2@@std@@QAE?AViterator@12@V312@@Z 00452960 f i cppunit:TestFactoryRegistry.obj
 0001:00051d90       ?_Erase@?$_Tree@V?$basic_string@DU?$char_traits@D@std@@V?$allocator@D@2@@std@@U?$pair@$$CBV?$basic_string@DU?$char_traits@D@std@@V?$allocator@D@2@@std@@PAVTestFactoryRegistry@CppUnit@@@2@U_Kfn@?$map@V?$basic_string@DU?$char_traits@D@std@@V?$allocator@D@2@@std@@PAVTestFactoryRegistry@CppUnit@@U?$less@V?$basic_string@DU?$char_traits@D@std@@V?$allocator@D@2@@std@@@2@V?$allocator@PAVTestFactoryRegistry@CppUnit@@@2@@2@U?$less@V?$basic_string@DU?$char_traits@D@std@@V?$allocator@D@2@@std@@@2@V?$allocator@PAVTestFactoryRegistry@CppUnit@@@2@@std@@IAEXPAU_Node@12@@Z 00452d90 f i cppunit:TestFactoryRegistry.obj
 0001:00051de0       ?_Insert@?$_Tree@V?$basic_string@DU?$char_traits@D@std@@V?$allocator@D@2@@std@@U?$pair@$$CBV?$basic_string@DU?$char_traits@D@std@@V?$allocator@D@2@@std@@PAVTestFactoryRegistry@CppUnit@@@2@U_Kfn@?$map@V?$basic_string@DU?$char_traits@D@std@@V?$allocator@D@2@@std@@PAVTestFactoryRegistry@CppUnit@@U?$less@V?$basic_string@DU?$char_traits@D@std@@V?$allocator@D@2@@std@@@2@V?$allocator@PAVTestFactoryRegistry@CppUnit@@@2@@2@U?$less@V?$basic_string@DU?$char_traits@D@std@@V?$allocator@D@2@@std@@@2@V?$allocator@PAVTestFactoryRegistry@CppUnit@@@2@@std@@IAE?AViterator@12@PAU_Node@12@0ABU?$pair@$$CBV?$basic_string@DU?$char_traits@D@std@@V?$allocator@D@2@@std@@PAVTestFactoryRegistry@CppUnit@@@2@@Z 00452de0 f i cppunit:TestFactoryRegistry.obj
 0001:00052050       ?_Inc@const_iterator@?$_Tree@V?$basic_string@DU?$char_traits@D@std@@V?$allocator@D@2@@std@@U?$pair@$$CBV?$basic_string@DU?$char_traits@D@std@@V?$allocator@D@2@@std@@PAVTestFactoryRegistry@CppUnit@@@2@U_Kfn@?$map@V?$basic_string@DU?$char_traits@D@std@@V?$allocator@D@2@@std@@PAVTestFactoryRegistry@CppUnit@@U?$less@V?$basic_string@DU?$char_traits@D@std@@V?$allocator@D@2@@std@@@2@V?$allocator@PAVTestFactoryRegistry@CppUnit@@@2@@2@U?$less@V?$basic_string@DU?$char_traits@D@std@@V?$allocator@D@2@@std@@@2@V?$allocator@PAVTestFactoryRegistry@CppUnit@@@2@@std@@QAEXXZ 00453050 f i cppunit:TestFactoryRegistry.obj
 0001:000520a0       ?erase@?$_Tree@PAVTestFactory@CppUnit@@PAV12@U_Kfn@?$set@PAVTestFactory@CppUnit@@U?$less@PAVTestFactory@CppUnit@@@std@@V?$allocator@PAVTestFactory@CppUnit@@@4@@std@@U?$less@PAVTestFactory@CppUnit@@@5@V?$allocator@PAVTestFactory@CppUnit@@@5@@std@@QAE?AViterator@12@V312@@Z 004530a0 f i cppunit:TestFactoryRegistry.obj
 0001:000524a0       ?_Erase@?$_Tree@PAVTestFactory@CppUnit@@PAV12@U_Kfn@?$set@PAVTestFactory@CppUnit@@U?$less@PAVTestFactory@CppUnit@@@std@@V?$allocator@PAVTestFactory@CppUnit@@@4@@std@@U?$less@PAVTestFactory@CppUnit@@@5@V?$allocator@PAVTestFactory@CppUnit@@@5@@std@@IAEXPAU_Node@12@@Z 004534a0 f i cppunit:TestFactoryRegistry.obj
 0001:000524e0       ?_Insert@?$_Tree@PAVTestFactory@CppUnit@@PAV12@U_Kfn@?$set@PAVTestFactory@CppUnit@@U?$less@PAVTestFactory@CppUnit@@@std@@V?$allocator@PAVTestFactory@CppUnit@@@4@@std@@U?$less@PAVTestFactory@CppUnit@@@5@V?$allocator@PAVTestFactory@CppUnit@@@5@@std@@IAE?AViterator@12@PAU_Node@12@0ABQAVTestFactory@CppUnit@@@Z 004534e0 f i cppunit:TestFactoryRegistry.obj
 0001:00052750       ?_Insert@?$_Tree@V?$basic_string@DU?$char_traits@D@std@@V?$allocator@D@2@@std@@U?$pair@$$CBV?$basic_string@DU?$char_traits@D@std@@V?$allocator@D@2@@std@@PAVTestFactory@CppUnit@@@2@U_Kfn@?$map@V?$basic_string@DU?$char_traits@D@std@@V?$allocator@D@2@@std@@PAVTestFactory@CppUnit@@U?$less@V?$basic_string@DU?$char_traits@D@std@@V?$allocator@D@2@@std@@@2@V?$allocator@PAVTestFactory@CppUnit@@@2@@2@U?$less@V?$basic_string@DU?$char_traits@D@std@@V?$allocator@D@2@@std@@@2@V?$allocator@PAVTestFactory@CppUnit@@@2@@std@@IAE?AViterator@12@PAU_Node@12@0ABU?$pair@$$CBV?$basic_string@DU?$char_traits@D@std@@V?$allocator@D@2@@std@@PAVTestFactory@CppUnit@@@2@@Z 00453750 f i cppunit:TestFactoryRegistry.obj
 0001:000529c0       ?_Lrotate@?$_Tree@V?$basic_string@DU?$char_traits@D@std@@V?$allocator@D@2@@std@@U?$pair@$$CBV?$basic_string@DU?$char_traits@D@std@@V?$allocator@D@2@@std@@PAVTestFactory@CppUnit@@@2@U_Kfn@?$map@V?$basic_string@DU?$char_traits@D@std@@V?$allocator@D@2@@std@@PAVTestFactory@CppUnit@@U?$less@V?$basic_string@DU?$char_traits@D@std@@V?$allocator@D@2@@std@@@2@V?$allocator@PAVTestFactory@CppUnit@@@2@@2@U?$less@V?$basic_string@DU?$char_traits@D@std@@V?$allocator@D@2@@std@@@2@V?$allocator@PAVTestFactory@CppUnit@@@2@@std@@IAEXPAU_Node@12@@Z 004539c0 f i cppunit:TestFactoryRegistry.obj
 0001:00052a20       ?_Rrotate@?$_Tree@V?$basic_string@DU?$char_traits@D@std@@V?$allocator@D@2@@std@@U?$pair@$$CBV?$basic_string@DU?$char_traits@D@std@@V?$allocator@D@2@@std@@PAVTestFactory@CppUnit@@@2@U_Kfn@?$map@V?$basic_string@DU?$char_traits@D@std@@V?$allocator@D@2@@std@@PAVTestFactory@CppUnit@@U?$less@V?$basic_string@DU?$char_traits@D@std@@V?$allocator@D@2@@std@@@2@V?$allocator@PAVTestFactory@CppUnit@@@2@@2@U?$less@V?$basic_string@DU?$char_traits@D@std@@V?$allocator@D@2@@std@@@2@V?$allocator@PAVTestFactory@CppUnit@@@2@@std@@IAEXPAU_Node@12@@Z 00453a20 f i cppunit:TestFactoryRegistry.obj
 0001:00052a80       ?_Buynode@?$_Tree@V?$basic_string@DU?$char_traits@D@std@@V?$allocator@D@2@@std@@U?$pair@$$CBV?$basic_string@DU?$char_traits@D@std@@V?$allocator@D@2@@std@@PAVTestFactoryRegistry@CppUnit@@@2@U_Kfn@?$map@V?$basic_string@DU?$char_traits@D@std@@V?$allocator@D@2@@std@@PAVTestFactoryRegistry@CppUnit@@U?$less@V?$basic_string@DU?$char_traits@D@std@@V?$allocator@D@2@@std@@@2@V?$allocator@PAVTestFactoryRegistry@CppUnit@@@2@@2@U?$less@V?$basic_string@DU?$char_traits@D@std@@V?$allocator@D@2@@std@@@2@V?$allocator@PAVTestFactoryRegistry@CppUnit@@@2@@std@@IAEPAU_Node@12@PAU312@W4_Redbl@12@@Z 00453a80 f i cppunit:TestFactoryRegistry.obj
 0001:00052a80       ?_Buynode@?$_Tree@V?$basic_string@DU?$char_traits@D@std@@V?$allocator@D@2@@std@@U?$pair@$$CBV?$basic_string@DU?$char_traits@D@std@@V?$allocator@D@2@@std@@PAVTestFactory@CppUnit@@@2@U_Kfn@?$map@V?$basic_string@DU?$char_traits@D@std@@V?$allocator@D@2@@std@@PAVTestFactory@CppUnit@@U?$less@V?$basic_string@DU?$char_traits@D@std@@V?$allocator@D@2@@std@@@2@V?$allocator@PAVTestFactory@CppUnit@@@2@@2@U?$less@V?$basic_string@DU?$char_traits@D@std@@V?$allocator@D@2@@std@@@2@V?$allocator@PAVTestFactory@CppUnit@@@2@@std@@IAEPAU_Node@12@PAU312@W4_Redbl@12@@Z 00453a80 f i cppunit:TestFactoryRegistry.obj
 0001:00052aa0       ?_Lrotate@?$_Tree@V?$basic_string@DU?$char_traits@D@std@@V?$allocator@D@2@@std@@U?$pair@$$CBV?$basic_string@DU?$char_traits@D@std@@V?$allocator@D@2@@std@@PAVTestFactoryRegistry@CppUnit@@@2@U_Kfn@?$map@V?$basic_string@DU?$char_traits@D@std@@V?$allocator@D@2@@std@@PAVTestFactoryRegistry@CppUnit@@U?$less@V?$basic_string@DU?$char_traits@D@std@@V?$allocator@D@2@@std@@@2@V?$allocator@PAVTestFactoryRegistry@CppUnit@@@2@@2@U?$less@V?$basic_string@DU?$char_traits@D@std@@V?$allocator@D@2@@std@@@2@V?$allocator@PAVTestFactoryRegistry@CppUnit@@@2@@std@@IAEXPAU_Node@12@@Z 00453aa0 f i cppunit:TestFactoryRegistry.obj
 0001:00052b00       ?_Min@?$_Tree@V?$basic_string@DU?$char_traits@D@std@@V?$allocator@D@2@@std@@U?$pair@$$CBV?$basic_string@DU?$char_traits@D@std@@V?$allocator@D@2@@std@@PAVTestFactoryRegistry@CppUnit@@@2@U_Kfn@?$map@V?$basic_string@DU?$char_traits@D@std@@V?$allocator@D@2@@std@@PAVTestFactoryRegistry@CppUnit@@U?$less@V?$basic_string@DU?$char_traits@D@std@@V?$allocator@D@2@@std@@@2@V?$allocator@PAVTestFactoryRegistry@CppUnit@@@2@@2@U?$less@V?$basic_string@DU?$char_traits@D@std@@V?$allocator@D@2@@std@@@2@V?$allocator@PAVTestFactoryRegistry@CppUnit@@@2@@std@@KAPAU_Node@12@PAU312@@Z 00453b00 f i cppunit:TestFactoryRegistry.obj
 0001:00052b20       ?_Rrotate@?$_Tree@V?$basic_string@DU?$char_traits@D@std@@V?$allocator@D@2@@std@@U?$pair@$$CBV?$basic_string@DU?$char_traits@D@std@@V?$allocator@D@2@@std@@PAVTestFactoryRegistry@CppUnit@@@2@U_Kfn@?$map@V?$basic_string@DU?$char_traits@D@std@@V?$allocator@D@2@@std@@PAVTestFactoryRegistry@CppUnit@@U?$less@V?$basic_string@DU?$char_traits@D@std@@V?$allocator@D@2@@std@@@2@V?$allocator@PAVTestFactoryRegistry@CppUnit@@@2@@2@U?$less@V?$basic_string@DU?$char_traits@D@std@@V?$allocator@D@2@@std@@@2@V?$allocator@PAVTestFactoryRegistry@CppUnit@@@2@@std@@IAEXPAU_Node@12@@Z 00453b20 f i cppunit:TestFactoryRegistry.obj
 0001:00052b80       ?_Dec@const_iterator@?$_Tree@V?$basic_string@DU?$char_traits@D@std@@V?$allocator@D@2@@std@@U?$pair@$$CBV?$basic_string@DU?$char_traits@D@std@@V?$allocator@D@2@@std@@PAVTestFactoryRegistry@CppUnit@@@2@U_Kfn@?$map@V?$basic_string@DU?$char_traits@D@std@@V?$allocator@D@2@@std@@PAVTestFactoryRegistry@CppUnit@@U?$less@V?$basic_string@DU?$char_traits@D@std@@V?$allocator@D@2@@std@@@2@V?$allocator@PAVTestFactoryRegistry@CppUnit@@@2@@2@U?$less@V?$basic_string@DU?$char_traits@D@std@@V?$allocator@D@2@@std@@@2@V?$allocator@PAVTestFactoryRegistry@CppUnit@@@2@@std@@QAEXXZ 00453b80 f i cppunit:TestFactoryRegistry.obj
 0001:00052be0       ?_Lrotate@?$_Tree@PAVTestFactory@CppUnit@@PAV12@U_Kfn@?$set@PAVTestFactory@CppUnit@@U?$less@PAVTestFactory@CppUnit@@@std@@V?$allocator@PAVTestFactory@CppUnit@@@4@@std@@U?$less@PAVTestFactory@CppUnit@@@5@V?$allocator@PAVTestFactory@CppUnit@@@5@@std@@IAEXPAU_Node@12@@Z 00453be0 f i cppunit:TestFactoryRegistry.obj
 0001:00052c40       ?_Min@?$_Tree@PAVTestFactory@CppUnit@@PAV12@U_Kfn@?$set@PAVTestFactory@CppUnit@@U?$less@PAVTestFactory@CppUnit@@@std@@V?$allocator@PAVTestFactory@CppUnit@@@4@@std@@U?$less@PAVTestFactory@CppUnit@@@5@V?$allocator@PAVTestFactory@CppUnit@@@5@@std@@KAPAU_Node@12@PAU312@@Z 00453c40 f i cppunit:TestFactoryRegistry.obj
 0001:00052c60       ?_Rrotate@?$_Tree@PAVTestFactory@CppUnit@@PAV12@U_Kfn@?$set@PAVTestFactory@CppUnit@@U?$less@PAVTestFactory@CppUnit@@@std@@V?$allocator@PAVTestFactory@CppUnit@@@4@@std@@U?$less@PAVTestFactory@CppUnit@@@5@V?$allocator@PAVTestFactory@CppUnit@@@5@@std@@IAEXPAU_Node@12@@Z 00453c60 f i cppunit:TestFactoryRegistry.obj
 0001:00052cc0       ?_Buynode@?$_Tree@PAVTestFactory@CppUnit@@PAV12@U_Kfn@?$set@PAVTestFactory@CppUnit@@U?$less@PAVTestFactory@CppUnit@@@std@@V?$allocator@PAVTestFactory@CppUnit@@@4@@std@@U?$less@PAVTestFactory@CppUnit@@@5@V?$allocator@PAVTestFactory@CppUnit@@@5@@std@@IAEPAU_Node@12@PAU312@W4_Redbl@12@@Z 00453cc0 f i cppunit:TestFactoryRegistry.obj
 0001:00052ce0       ?_Dec@const_iterator@?$_Tree@PAVTestFactory@CppUnit@@PAV12@U_Kfn@?$set@PAVTestFactory@CppUnit@@U?$less@PAVTestFactory@CppUnit@@@std@@V?$allocator@PAVTestFactory@CppUnit@@@4@@std@@U?$less@PAVTestFactory@CppUnit@@@5@V?$allocator@PAVTestFactory@CppUnit@@@5@@std@@QAEXXZ 00453ce0 f i cppunit:TestFactoryRegistry.obj
 0001:00052d40       ?_Dec@const_iterator@?$_Tree@V?$basic_string@DU?$char_traits@D@std@@V?$allocator@D@2@@std@@U?$pair@$$CBV?$basic_string@DU?$char_traits@D@std@@V?$allocator@D@2@@std@@PAVTestFactory@CppUnit@@@2@U_Kfn@?$map@V?$basic_string@DU?$char_traits@D@std@@V?$allocator@D@2@@std@@PAVTestFactory@CppUnit@@U?$less@V?$basic_string@DU?$char_traits@D@std@@V?$allocator@D@2@@std@@@2@V?$allocator@PAVTestFactory@CppUnit@@@2@@2@U?$less@V?$basic_string@DU?$char_traits@D@std@@V?$allocator@D@2@@std@@@2@V?$allocator@PAVTestFactory@CppUnit@@@2@@std@@QAEXXZ 00453d40 f i cppunit:TestFactoryRegistry.obj
 0001:00052da0       ?_Lbound@?$_Tree@PAVTestFactory@CppUnit@@PAV12@U_Kfn@?$set@PAVTestFactory@CppUnit@@U?$less@PAVTestFactory@CppUnit@@@std@@V?$allocator@PAVTestFactory@CppUnit@@@4@@std@@U?$less@PAVTestFactory@CppUnit@@@5@V?$allocator@PAVTestFactory@CppUnit@@@5@@std@@IBEPAU_Node@12@ABQAVTestFactory@CppUnit@@@Z 00453da0 f i cppunit:TestFactoryRegistry.obj
 0001:00052dd0       ?_Ubound@?$_Tree@PAVTestFactory@CppUnit@@PAV12@U_Kfn@?$set@PAVTestFactory@CppUnit@@U?$less@PAVTestFactory@CppUnit@@@std@@V?$allocator@PAVTestFactory@CppUnit@@@4@@std@@U?$less@PAVTestFactory@CppUnit@@@5@V?$allocator@PAVTestFactory@CppUnit@@@5@@std@@IBEPAU_Node@12@ABQAVTestFactory@CppUnit@@@Z 00453dd0 f i cppunit:TestFactoryRegistry.obj
 0001:00052e00       ?_Inc@const_iterator@?$_Tree@PAVTestFactory@CppUnit@@PAV12@U_Kfn@?$set@PAVTestFactory@CppUnit@@U?$less@PAVTestFactory@CppUnit@@@std@@V?$allocator@PAVTestFactory@CppUnit@@@4@@std@@U?$less@PAVTestFactory@CppUnit@@@5@V?$allocator@PAVTestFactory@CppUnit@@@5@@std@@QAEXXZ 00453e00 f i cppunit:TestFactoryRegistry.obj
 0001:00052e50       ?make_pair@std@@YA?AU?$pair@V?$basic_string@DU?$char_traits@D@std@@V?$allocator@D@2@@std@@PAVTestFactoryRegistry@CppUnit@@@1@ABV?$basic_string@DU?$char_traits@D@std@@V?$allocator@D@2@@1@ABQAVTestFactoryRegistry@CppUnit@@@Z 00453e50 f i cppunit:TestFactoryRegistry.obj
 0001:00052fa0       ?_Construct@std@@YAXPAU?$pair@$$CBV?$basic_string@DU?$char_traits@D@std@@V?$allocator@D@2@@std@@PAVTestFactoryRegistry@CppUnit@@@1@ABU21@@Z 00453fa0 f i cppunit:TestFactoryRegistry.obj
 0001:00053100       ?_Construct@std@@YAXPAU?$pair@$$CBV?$basic_string@DU?$char_traits@D@std@@V?$allocator@D@2@@std@@PAVTestFactory@CppUnit@@@1@ABU21@@Z 00454100 f i cppunit:TestFactoryRegistry.obj
 0001:00053260       ??_G?$pair@$$CBV?$basic_string@DU?$char_traits@D@std@@V?$allocator@D@2@@std@@PAVTestFactoryRegistry@CppUnit@@@std@@QAEPAXI@Z 00454260 f i cppunit:TestFactoryRegistry.obj
 0001:00053260       ??_G?$pair@$$CBV?$basic_string@DU?$char_traits@D@std@@V?$allocator@D@2@@std@@PAVTestFactory@CppUnit@@@std@@QAEPAXI@Z 00454260 f i cppunit:TestFactoryRegistry.obj
 0001:00053280       ??0TestSuite@CppUnit@@QAE@V?$basic_string@DU?$char_traits@D@std@@V?$allocator@D@2@@std@@@Z 00454280 f   cppunit:TestSuite.obj
 0001:00053340       ??_GTestSuite@CppUnit@@UAEPAXI@Z 00454340 f i cppunit:TestSuite.obj
 0001:00053340       ??_ETestSuite@CppUnit@@UAEPAXI@Z 00454340 f i cppunit:TestSuite.obj
 0001:00053360       ??1TestSuite@CppUnit@@UAE@XZ 00454360 f   cppunit:TestSuite.obj
 0001:000533f0       ?deleteContents@TestSuite@CppUnit@@UAEXXZ 004543f0 f   cppunit:TestSuite.obj
 0001:00053450       ?run@TestSuite@CppUnit@@UAEXPAVTestResult@2@@Z 00454450 f   cppunit:TestSuite.obj
 0001:00053490       ?countTestCases@TestSuite@CppUnit@@UBEHXZ 00454490 f   cppunit:TestSuite.obj
 0001:000534c0       ?addTest@TestSuite@CppUnit@@QAEXPAVTest@2@@Z 004544c0 f   cppunit:TestSuite.obj
 0001:00053670       ?toString@TestSuite@CppUnit@@UBE?AV?$basic_string@DU?$char_traits@D@std@@V?$allocator@D@2@@std@@XZ 00454670 f   cppunit:TestSuite.obj
 0001:00053710       ?getName@TestSuite@CppUnit@@UBE?AV?$basic_string@DU?$char_traits@D@std@@V?$allocator@D@2@@std@@XZ 00454710 f   cppunit:TestSuite.obj
 0001:00053850       ??1Test@CppUnit@@UAE@XZ    00454850 f i cppunit:TestSuite.obj
 0001:00053860       ??_ETest@CppUnit@@UAEPAXI@Z 00454860 f i cppunit:TestSuite.obj
 0001:00053860       ??_GTest@CppUnit@@UAEPAXI@Z 00454860 f i cppunit:TestSuite.obj
 0001:00053880       ??1?$vector@PAVTest@CppUnit@@V?$allocator@PAVTest@CppUnit@@@std@@@std@@QAE@XZ 00454880 f i cppunit:TestSuite.obj
 0001:000538b0       ?_Destroy@?$vector@PAVTest@CppUnit@@V?$allocator@PAVTest@CppUnit@@@std@@@std@@IAEXPAPAVTest@CppUnit@@0@Z 004548b0 f i cppunit:TestSuite.obj
 0001:000538c0       ?_Ucopy@?$vector@PAVTest@CppUnit@@V?$allocator@PAVTest@CppUnit@@@std@@@std@@IAEPAPAVTest@CppUnit@@PBQAV34@0PAPAV34@@Z 004548c0 f i cppunit:TestSuite.obj
 0001:000538f0       ?_Ufill@?$vector@PAVTest@CppUnit@@V?$allocator@PAVTest@CppUnit@@@std@@@std@@IAEXPAPAVTest@CppUnit@@IABQAV34@@Z 004548f0 f i cppunit:TestSuite.obj
 0001:00053920       ?getClassName@TypeInfoHelper@CppUnit@@SA?AV?$basic_string@DU?$char_traits@D@std@@V?$allocator@D@2@@std@@ABVtype_info@@@Z 00454920 f   cppunit:TypeInfoHelper.obj
 0001:00053b90       ?defaultResult@TestCase@CppUnit@@IAEPAVTestResult@2@XZ 00454b90 f   cppunit:TestCase.obj
 0001:00053bf0       ?run@TestCase@CppUnit@@UAEXPAVTestResult@2@@Z 00454bf0 f   cppunit:TestCase.obj
 0001:00053e40       ?run@TestCase@CppUnit@@UAEPAVTestResult@2@XZ 00454e40 f   cppunit:TestCase.obj
 0001:00053e60       ?runTest@TestCase@CppUnit@@MAEXXZ 00454e60 f   cppunit:TestCase.obj
 0001:00053e70       ??0TestCase@CppUnit@@QAE@V?$basic_string@DU?$char_traits@D@std@@V?$allocator@D@2@@std@@@Z 00454e70 f   cppunit:TestCase.obj
 0001:00053fd0       ??_GTestCase@CppUnit@@UAEPAXI@Z 00454fd0 f i cppunit:TestCase.obj
 0001:00053fd0       ??_ETestCase@CppUnit@@UAEPAXI@Z 00454fd0 f i cppunit:TestCase.obj
 0001:00053ff0       ??1TestCase@CppUnit@@UAE@XZ 00454ff0 f   cppunit:TestCase.obj
 0001:00054060       ?countTestCases@TestCase@CppUnit@@UBEHXZ 00455060 f   cppunit:TestCase.obj
 0001:00054070       ?getName@TestCase@CppUnit@@UBE?AV?$basic_string@DU?$char_traits@D@std@@V?$allocator@D@2@@std@@XZ 00455070 f   cppunit:TestCase.obj
 0001:000541b0       ?toString@TestCase@CppUnit@@UBE?AV?$basic_string@DU?$char_traits@D@std@@V?$allocator@D@2@@std@@XZ 004551b0 f   cppunit:TestCase.obj
 0001:00054320       ??1TestFixture@CppUnit@@UAE@XZ 00455320 f i cppunit:TestCase.obj
 0001:00054330       ??_ETestCase@CppUnit@@W3AEPAXI@Z 00455330 f i cppunit:TestCase.obj
 0001:00054340       ??0Exception@CppUnit@@QAE@ABV01@@Z 00455340 f   cppunit:Exception.obj
 0001:00054540       ??_EException@CppUnit@@UAEPAXI@Z 00455540 f i cppunit:Exception.obj
 0001:00054540       ??_GException@CppUnit@@UAEPAXI@Z 00455540 f i cppunit:Exception.obj
 0001:00054560       ??0Exception@CppUnit@@QAE@V?$basic_string@DU?$char_traits@D@std@@V?$allocator@D@2@@std@@VSourceLine@1@@Z 00455560 f   cppunit:Exception.obj
 0001:00054660       ??1Exception@CppUnit@@UAE@XZ 00455660 f   cppunit:Exception.obj
 0001:000546c0       ?what@Exception@CppUnit@@UBEPBDXZ 004556c0 f   cppunit:Exception.obj
 0001:000546d0       ?sourceLine@Exception@CppUnit@@QBE?AVSourceLine@2@XZ 004556d0 f   cppunit:Exception.obj
 0001:00054820       ?clone@Exception@CppUnit@@UBEPAV12@XZ 00455820 f   cppunit:Exception.obj
 0001:00054880       ?isInstanceOf@Exception@CppUnit@@UBE_NABVType@12@@Z 00455880 f   cppunit:Exception.obj
 0001:00054910       ?type@Exception@CppUnit@@SA?AVType@12@XZ 00455910 f   cppunit:Exception.obj
 0001:00054a00       ??0Type@Exception@CppUnit@@QAE@V?$basic_string@DU?$char_traits@D@std@@V?$allocator@D@2@@std@@@Z 00455a00 f i cppunit:Exception.obj
 0001:00054b20       ??0TestResult@CppUnit@@QAE@PAVSynchronizationObject@SynchronizedObject@1@@Z 00455b20 f   cppunit:TestResult.obj
 0001:00054ba0       ??_ETestResult@CppUnit@@UAEPAXI@Z 00455ba0 f i cppunit:TestResult.obj
 0001:00054ba0       ??_GTestResult@CppUnit@@UAEPAXI@Z 00455ba0 f i cppunit:TestResult.obj
 0001:00054bc0       ??1TestResult@CppUnit@@UAE@XZ 00455bc0 f   cppunit:TestResult.obj
 0001:00054c70       ?reset@TestResult@CppUnit@@UAEXXZ 00455c70 f   cppunit:TestResult.obj
 0001:00054c90       ?addError@TestResult@CppUnit@@UAEXPAVTest@2@PAVException@2@@Z 00455c90 f   cppunit:TestResult.obj
 0001:00054d00       ?addFailure@TestResult@CppUnit@@UAEXPAVTest@2@PAVException@2@@Z 00455d00 f   cppunit:TestResult.obj
 0001:00054d70       ?addFailure@TestResult@CppUnit@@IAEXABVTestFailure@2@@Z 00455d70 f   cppunit:TestResult.obj
 0001:00054e40       ?startTest@TestResult@CppUnit@@UAEXPAVTest@2@@Z 00455e40 f   cppunit:TestResult.obj
 0001:00054f10       ?endTest@TestResult@CppUnit@@UAEXPAVTest@2@@Z 00455f10 f   cppunit:TestResult.obj
 0001:00054fe0       ?shouldStop@TestResult@CppUnit@@UBE_NXZ 00455fe0 f   cppunit:TestResult.obj
 0001:00055000       ?stop@TestResult@CppUnit@@UAEXXZ 00456000 f   cppunit:TestResult.obj
 0001:00055020       ?addListener@TestResult@CppUnit@@UAEXPAVTestListener@2@@Z 00456020 f   cppunit:TestResult.obj
 0001:00055220       ?removeListener@TestResult@CppUnit@@UAEXPAVTestListener@2@@Z 00456220 f   cppunit:TestResult.obj
 0001:000555f0       ??1ExclusiveZone@SynchronizedObject@CppUnit@@QAE@XZ 004565f0 f i cppunit:TestResult.obj
 0001:00055600       ??1?$deque@PAVTestListener@CppUnit@@V?$allocator@PAVTestListener@CppUnit@@@std@@@std@@QAE@XZ 00456600 f i cppunit:TestResult.obj
 0001:000556b0       ??Eiterator@?$deque@PAVTestListener@CppUnit@@V?$allocator@PAVTestListener@CppUnit@@@std@@@std@@QAEAAV012@XZ 004566b0 f i cppunit:TestResult.obj
 0001:000556f0       ?pop_front@?$deque@PAVTestListener@CppUnit@@V?$allocator@PAVTestListener@CppUnit@@@std@@@std@@QAEXXZ 004566f0 f i cppunit:TestResult.obj
 0001:00055780       ?pop_back@?$deque@PAVTestListener@CppUnit@@V?$allocator@PAVTestListener@CppUnit@@@std@@@std@@QAEXXZ 00456780 f i cppunit:TestResult.obj
 0001:000558c0       ?_Buyback@?$deque@PAVTestListener@CppUnit@@V?$allocator@PAVTestListener@CppUnit@@@std@@@std@@IAEXXZ 004568c0 f i cppunit:TestResult.obj
 0001:00055a20       ??Hiterator@?$deque@PAVTestListener@CppUnit@@V?$allocator@PAVTestListener@CppUnit@@@std@@@std@@QBE?AV012@H@Z 00456a20 f i cppunit:TestResult.obj
 0001:00055a80       ??Giterator@?$deque@PAVTestListener@CppUnit@@V?$allocator@PAVTestListener@CppUnit@@@std@@@std@@QBEHABV012@@Z 00456a80 f i cppunit:TestResult.obj
 0001:00055ad0       ?_Getmap@?$deque@PAVTestListener@CppUnit@@V?$allocator@PAVTestListener@CppUnit@@@std@@@std@@IAEXXZ 00456ad0 f i cppunit:TestResult.obj
 0001:00055af0       ?_Growmap@?$deque@PAVTestListener@CppUnit@@V?$allocator@PAVTestListener@CppUnit@@@std@@@std@@IAEPAPAPAVTestListener@CppUnit@@I@Z 00456af0 f i cppunit:TestResult.obj
 0001:00055b60       ??0const_iterator@?$deque@PAVTestListener@CppUnit@@V?$allocator@PAVTestListener@CppUnit@@@std@@@std@@QAE@PAPAVTestListener@CppUnit@@PAPAPAV34@@Z 00456b60 f i cppunit:TestResult.obj
 0001:00055b90       ?copy_backward@std@@YA?AViterator@?$deque@PAVTestListener@CppUnit@@V?$allocator@PAVTestListener@CppUnit@@@std@@@1@V231@00@Z 00456b90 f i cppunit:TestResult.obj
 0001:00055c20       ?copy@std@@YA?AViterator@?$deque@PAVTestListener@CppUnit@@V?$allocator@PAVTestListener@CppUnit@@@std@@@1@V231@00@Z 00456c20 f i cppunit:TestResult.obj
 0001:00055cb0       ?_Construct@std@@YAXPAPAVTest@CppUnit@@ABQAV23@@Z 00456cb0 f i cppunit:TestResult.obj
 0001:00055cb0       ?_Construct@std@@YAXPAPAVTestListener@CppUnit@@ABQAV23@@Z 00456cb0 f i cppunit:TestResult.obj
 0001:00055cb0       ?_Construct@std@@YAXPAPAVTestFactory@CppUnit@@ABQAV23@@Z 00456cb0 f i cppunit:TestResult.obj
 0001:00055cd0       ??Eiterator@?$deque@PAVTestListener@CppUnit@@V?$allocator@PAVTestListener@CppUnit@@@std@@@std@@QAE?AV012@H@Z 00456cd0 f i cppunit:TestResult.obj
 0001:00055d20       ??0SynchronizedObject@CppUnit@@QAE@PAVSynchronizationObject@01@@Z 00456d20 f   cppunit:SynchronizedObject.obj
 0001:00055d60       ??_GSynchronizedObject@CppUnit@@UAEPAXI@Z 00456d60 f i cppunit:SynchronizedObject.obj
 0001:00055d60       ??_ESynchronizedObject@CppUnit@@UAEPAXI@Z 00456d60 f i cppunit:SynchronizedObject.obj
 0001:00055d80       ??1SynchronizedObject@CppUnit@@UAE@XZ 00456d80 f   cppunit:SynchronizedObject.obj
 0001:00055da0       ?setSynchronizationObject@SynchronizedObject@CppUnit@@MAEXPAVSynchronizationObject@12@@Z 00456da0 f   cppunit:SynchronizedObject.obj
 0001:00055dd0       ?unlock@SynchronizationObject@SynchronizedObject@CppUnit@@UAEXXZ 00456dd0 f i cppunit:SynchronizedObject.obj
 0001:00055dd0       ?lock@SynchronizationObject@SynchronizedObject@CppUnit@@UAEXXZ 00456dd0 f i cppunit:SynchronizedObject.obj
 0001:00055de0       ??_ESynchronizationObject@SynchronizedObject@CppUnit@@UAEPAXI@Z 00456de0 f i cppunit:SynchronizedObject.obj
 0001:00055de0       ??_GSynchronizationObject@SynchronizedObject@CppUnit@@UAEPAXI@Z 00456de0 f i cppunit:SynchronizedObject.obj
 0001:00055e00       ??0TestFailure@CppUnit@@QAE@PAVTest@1@PAVException@1@_N@Z 00456e00 f   cppunit:TestFailure.obj
 0001:00055e20       ??_GTestFailure@CppUnit@@UAEPAXI@Z 00456e20 f i cppunit:TestFailure.obj
 0001:00055e20       ??_ETestFailure@CppUnit@@UAEPAXI@Z 00456e20 f i cppunit:TestFailure.obj
 0001:00055e40       ??1TestFailure@CppUnit@@UAE@XZ 00456e40 f   cppunit:TestFailure.obj
 0001:00055e60       ?failedTest@TestFailure@CppUnit@@UBEPAVTest@2@XZ 00456e60 f   cppunit:TestFailure.obj
 0001:00055e70       ?thrownException@TestFailure@CppUnit@@UBEPAVException@2@XZ 00456e70 f   cppunit:TestFailure.obj
 0001:00055e80       ?sourceLine@TestFailure@CppUnit@@UBE?AVSourceLine@2@XZ 00456e80 f   cppunit:TestFailure.obj
 0001:00055ea0       ?isError@TestFailure@CppUnit@@UBE_NXZ 00456ea0 f   cppunit:TestFailure.obj
 0001:00055eb0       ?failedTestName@TestFailure@CppUnit@@UBE?AV?$basic_string@DU?$char_traits@D@std@@V?$allocator@D@2@@std@@XZ 00456eb0 f   cppunit:TestFailure.obj
 0001:00055ed0       ?toString@TestFailure@CppUnit@@UBE?AV?$basic_string@DU?$char_traits@D@std@@V?$allocator@D@2@@std@@XZ 00456ed0 f   cppunit:TestFailure.obj
 0001:00055fb0       ?clone@TestFailure@CppUnit@@UBEPAV12@XZ 00456fb0 f   cppunit:TestFailure.obj
 0001:00056010       ?ReleaseBuffer@CString@@QAEXH@Z 00457010 f   mfc42:MFC42.DLL
 0001:00056016       ?GetBuffer@CString@@QAEPADH@Z 00457016 f   mfc42:MFC42.DLL
 0001:0005601c       ?Empty@CString@@QAEXXZ     0045701c f   mfc42:MFC42.DLL
 0001:00056022       ??1CString@@QAE@XZ         00457022 f   mfc42:MFC42.DLL
 0001:00056028       ?AddTail@CStringList@@QAEPAU__POSITION@@ABVCString@@@Z 00457028 f   mfc42:MFC42.DLL
 0001:0005602e       ??0CString@@QAE@XZ         0045702e f   mfc42:MFC42.DLL
 0001:00056034       ??0CString@@QAE@ABV0@@Z    00457034 f   mfc42:MFC42.DLL
 0001:0005603a       ??4CString@@QAEABV0@ABV0@@Z 0045703a f   mfc42:MFC42.DLL
 0001:00056040       ??3@YAXPAX@Z               00457040 f   mfc42:MFC42.DLL
 0001:00056046       ??2@YAPAXI@Z               00457046 f   mfc42:MFC42.DLL
 0001:0005604c       ?GetRuntimeClass@CObject@@UBEPAUCRuntimeClass@@XZ 0045704c f   mfc42:MFC42.DLL
 0001:00056052       ?Format@CString@@QAAXPBDZZ 00457052 f   mfc42:MFC42.DLL
 0001:00056058       ??4CString@@QAEABV0@PBG@Z  00457058 f   mfc42:MFC42.DLL
 0001:0005605e       ??4CString@@QAEABV0@PBD@Z  0045705e f   mfc42:MFC42.DLL
 0001:00056064       ??0CString@@QAE@PBG@Z      00457064 f   mfc42:MFC42.DLL
 0001:0005606a       ?AfxA2WHelper@@YGPAGPAGPBDH@Z 0045706a f   mfc42:MFC42.DLL
 0001:00056070       ??YCString@@QAEABV0@D@Z    00457070 f   mfc42:MFC42.DLL
 0001:00056076       ??YCString@@QAEABV0@PBD@Z  00457076 f   mfc42:MFC42.DLL
 0001:0005607c       ??0CString@@QAE@PBD@Z      0045707c f   mfc42:MFC42.DLL
 0001:00056082       ?ReportError@CException@@UAEHII@Z 00457082 f   mfc42:MFC42.DLL
 0001:00056088       ?GetErrorMessage@CException@@UAEHPADIPAI@Z 00457088 f   mfc42:MFC42.DLL
 0001:0005608e       ?GetRuntimeClass@CException@@UBEPAUCRuntimeClass@@XZ 0045708e f   mfc42:MFC42.DLL
 0001:00056094       ??0CException@@QAE@H@Z     00457094 f   mfc42:MFC42.DLL
 0001:0005609a       ??1CStringList@@UAE@XZ     0045709a f   mfc42:MFC42.DLL
 0001:000560a0       ??0CStringList@@QAE@H@Z    004570a0 f   mfc42:MFC42.DLL
 0001:000560a6       ?ReadCount@CArchive@@QAEKXZ 004570a6 f   mfc42:MFC42.DLL
 0001:000560ac       ?WriteCount@CArchive@@QAEXK@Z 004570ac f   mfc42:MFC42.DLL
 0001:000560b2       ?Read@CArchive@@QAEIPAXI@Z 004570b2 f   mfc42:MFC42.DLL
 0001:000560b8       ?Write@CArchive@@QAEXPBXI@Z 004570b8 f   mfc42:MFC42.DLL
 0001:000560be       ?AfxThrowFileException@@YGXHJPBD@Z 004570be f   mfc42:MFC42.DLL
 0001:000560c4       ?DeflateRect@CRect@@QAEXHHHH@Z 004570c4 f   mfc42:MFC42.DLL
 0001:000560ca       ?Draw3dRect@CDC@@QAEXPBUtagRECT@@KK@Z 004570ca f   mfc42:MFC42.DLL
 0001:000560d0       ?FillSolidRect@CDC@@QAEXPBUtagRECT@@K@Z 004570d0 f   mfc42:MFC42.DLL
 0001:000560d6       ?IsDataAvailable@COleDataObject@@QAEHGPAUtagFORMATETC@@@Z 004570d6 f   mfc42:MFC42.DLL
 0001:000560dc       ?GetGlobalData@COleDataObject@@QAEPAXGPAUtagFORMATETC@@@Z 004570dc f   mfc42:MFC42.DLL
 0001:000560e2       ?AfxIsValidString@@YGHPBDH@Z 004570e2 f   mfc42:MFC42.DLL
 0001:000560e8       ?AfxTryCleanup@@YGXXZ      004570e8 f   mfc42:MFC42.DLL
 0001:000560ee       ?AfxThrowMemoryException@@YGXXZ 004570ee f   mfc42:MFC42.DLL
 0001:000560f4       ??0AFX_EXCEPTION_LINK@@QAE@XZ 004570f4 f   mfc42:MFC42.DLL
 0001:000560fa       ??1CFile@@UAE@XZ           004570fa f   mfc42:MFC42.DLL
 0001:00056100       ?Read@CFile@@UAEIPAXI@Z    00457100 f   mfc42:MFC42.DLL
 0001:00056106       ?GetLength@CFile@@UBEKXZ   00457106 f   mfc42:MFC42.DLL
 0001:0005610c       ??0CFile@@QAE@PBDI@Z       0045710c f   mfc42:MFC42.DLL
 0001:00056112       ??1CClientDC@@UAE@XZ       00457112 f   mfc42:MFC42.DLL
 0001:00056118       ??0CClientDC@@QAE@PAVCWnd@@@Z 00457118 f   mfc42:MFC42.DLL
 0001:0005611e       ?FromHandle@CWnd@@SGPAV1@PAUHWND__@@@Z 0045711e f   mfc42:MFC42.DLL
 0001:00056124       ?Close@CFile@@UAEXXZ       00457124 f   mfc42:MFC42.DLL
 0001:0005612a       ?Open@CFile@@UAEHPBDIPAVCFileException@@@Z 0045712a f   mfc42:MFC42.DLL
 0001:00056130       ??0CFile@@QAE@XZ           00457130 f   mfc42:MFC42.DLL
 0001:00056136       ?Delete@CException@@QAEXXZ 00457136 f   mfc42:MFC42.DLL
 0001:0005613c       ?Write@CFile@@UAEXPBXI@Z   0045713c f   mfc42:MFC42.DLL
 0001:00056142       ??H@YG?AVCString@@ABV0@0@Z 00457142 f   mfc42:MFC42.DLL
 0001:00056148       ??H@YG?AVCString@@ABV0@PBD@Z 00457148 f   mfc42:MFC42.DLL
 0001:0005614e       ?LoadStringA@CString@@QAEHI@Z 0045714e f   mfc42:MFC42.DLL
 0001:00056154       ?AfxMessageBox@@YGHIII@Z   00457154 f   mfc42:MFC42.DLL
 0001:0005615a       ?FindOneOf@CString@@QBEHPBD@Z 0045715a f   mfc42:MFC42.DLL
 0001:00056160       ?Left@CString@@QBE?AV1@H@Z 00457160 f   mfc42:MFC42.DLL
 0001:00056166       ?TrimLeft@CString@@QAEXXZ  00457166 f   mfc42:MFC42.DLL
 0001:0005616c       ?GetRuntimeClass@CGdiObject@@UBEPAUCRuntimeClass@@XZ 0045716c f   mfc42:MFC42.DLL
 0001:00056172       ?DeleteObject@CGdiObject@@QAEHXZ 00457172 f   mfc42:MFC42.DLL
 0001:00056178       ?SetBkMode@CDC@@QAEHH@Z    00457178 f   mfc42:MFC42.DLL
 0001:0005617e       ?SelectObject@CDC@@QAEPAVCPen@@PAV2@@Z 0045717e f   mfc42:MFC42.DLL
 0001:00056184       ?SelectObject@CDC@@QAEPAVCBrush@@PAV2@@Z 00457184 f   mfc42:MFC42.DLL
 0001:0005618a       ??0CBrush@@QAE@K@Z         0045718a f   mfc42:MFC42.DLL
 0001:00056190       ??0CPen@@QAE@HHK@Z         00457190 f   mfc42:MFC42.DLL
 0001:00056196       ?SetTextAlign@CDC@@QAEII@Z 00457196 f   mfc42:MFC42.DLL
 0001:0005619c       ?Attach@CGdiObject@@QAEHPAX@Z 0045719c f   mfc42:MFC42.DLL
 0001:000561a2       ?Mid@CString@@QBE?AV1@HH@Z 004571a2 f   mfc42:MFC42.DLL
 0001:000561a8       ?GetRuntimeClass@CFont@@UBEPAUCRuntimeClass@@XZ 004571a8 f   mfc42:MFC42.DLL
 0001:000561ae       ?Fail@CDataExchange@@QAEXXZ 004571ae f   mfc42:MFC42.DLL
 0001:000561b4       ?Mid@CString@@QBE?AV1@H@Z  004571b4 f   mfc42:MFC42.DLL
 0001:000561ba       ?Format@CString@@QAAXIZZ   004571ba f   mfc42:MFC42.DLL
 0001:000561c0       ?CacheGlobalData@COleDataSource@@QAEXGPAXPAUtagFORMATETC@@@Z 004571c0 f   mfc42:MFC42.DLL
 0001:000561c6       ?AfxIsValidAddress@@YGHPBXIH@Z 004571c6 f   mfc42:MFC42.DLL
 0001:000561cc       ??H@YG?AVCString@@PBDABV0@@Z 004571cc f   mfc42:MFC42.DLL
 0001:000561d2       ?Replace@CString@@QAEHPBD0@Z 004571d2 f   mfc42:MFC42.DLL
 0001:000561d8       ?FormatV@CString@@QAEXPBDPAD@Z 004571d8 f   mfc42:MFC42.DLL
 0001:000561de       ?FreeDataChain@CPlex@@QAEXXZ 004571de f   mfc42:MFC42.DLL
 0001:000561e4       ?Create@CPlex@@SGPAU1@AAPAU1@II@Z 004571e4 f   mfc42:MFC42.DLL
 0001:000561ea       ??1CFileFind@@UAE@XZ       004571ea f   mfc42:MFC42.DLL
 0001:000561f0       ?GetFilePath@CFileFind@@UBE?AVCString@@XZ 004571f0 f   mfc42:MFC42.DLL
 0001:000561f6       ?FindNextFileA@CFileFind@@UAEHXZ 004571f6 f   mfc42:MFC42.DLL
 0001:000561fc       ?FindFile@CFileFind@@UAEHPBDK@Z 004571fc f   mfc42:MFC42.DLL
 0001:00056202       ??0CFileFind@@QAE@XZ       00457202 f   mfc42:MFC42.DLL
 0001:00056208       ??1CMemFile@@UAE@XZ        00457208 f   mfc42:MFC42.DLL
 0001:0005620e       ??0CMemFile@@QAE@PAEII@Z   0045720e f   mfc42:MFC42.DLL
 0001:00056214       ?AfxThrowResourceException@@YGXXZ 00457214 f   mfc42:MFC42.DLL
 0001:0005621a       ?GetRuntimeClass@CPalette@@UBEPAUCRuntimeClass@@XZ 0045721a f   mfc42:MFC42.DLL
 0001:00056220       ?EndWaitCursor@CCmdTarget@@QAEXXZ 00457220 f   mfc42:MFC42.DLL
 0001:00056226       ?BeginWaitCursor@CCmdTarget@@QAEXXZ 00457226 f   mfc42:MFC42.DLL
 0001:0005622c       ?AfxGetModuleState@@YGPAVAFX_MODULE_STATE@@XZ 0045722c f   mfc42:MFC42.DLL
 0001:00056232       ?AfxGetThread@@YGPAVCWinThread@@XZ 00457232 f   mfc42:MFC42.DLL
 0001:00056238       ?PreInitDialog@CDialog@@MAEXXZ 00457238 f   mfc42:MFC42.DLL
 0001:0005623e       ?OnSetFont@CDialog@@UAEXPAVCFont@@@Z 0045723e f   mfc42:MFC42.DLL
 0001:00056244       ?DoModal@CDialog@@UAEHXZ   00457244 f   mfc42:MFC42.DLL
 0001:0005624a       ?SetOccDialogInfo@CDialog@@MAEHPAU_AFX_OCC_DIALOG_INFO@@@Z 0045724a f   mfc42:MFC42.DLL
 0001:00056250       ?IsFrameWnd@CWnd@@UBEHXZ   00457250 f   mfc42:MFC42.DLL
 0001:00056256       ?CheckAutoCenter@CDialog@@UAEHXZ 00457256 f   mfc42:MFC42.DLL
 0001:0005625c       ?OnChildNotify@CWnd@@MAEHIIJPAJ@Z 0045725c f   mfc42:MFC42.DLL
 0001:00056262       ?PostNcDestroy@CWnd@@MAEXXZ 00457262 f   mfc42:MFC42.DLL
 0001:00056268       ?DefWindowProcA@CWnd@@MAEJIIJ@Z 00457268 f   mfc42:MFC42.DLL
 0001:0005626e       ?OnWndMsg@CWnd@@MAEHIIJPAJ@Z 0045726e f   mfc42:MFC42.DLL
 0001:00056274       ?WindowProc@CWnd@@MAEJIIJ@Z 00457274 f   mfc42:MFC42.DLL
 0001:0005627a       ?OnAmbientProperty@CWnd@@UAEHPAVCOleControlSite@@JPAUtagVARIANT@@@Z 0045727a f   mfc42:MFC42.DLL
 0001:00056280       ?GetSuperWndProcAddr@CWnd@@MAEPAP6GJPAUHWND__@@IIJ@ZXZ 00457280 f   mfc42:MFC42.DLL
 0001:00056286       ?OnNotify@CWnd@@MAEHIJPAJ@Z 00457286 f   mfc42:MFC42.DLL
 0001:0005628c       ?OnCommand@CWnd@@MAEHIJ@Z  0045728c f   mfc42:MFC42.DLL
 0001:00056292       ?EndModalLoop@CWnd@@UAEXH@Z 00457292 f   mfc42:MFC42.DLL
 0001:00056298       ?ContinueModal@CWnd@@UAEHXZ 00457298 f   mfc42:MFC42.DLL
 0001:0005629e       ?WinHelpA@CWnd@@UAEXKI@Z   0045729e f   mfc42:MFC42.DLL
 0001:000562a4       ?GetScrollBarCtrl@CWnd@@UBEPAVCScrollBar@@H@Z 004572a4 f   mfc42:MFC42.DLL
 0001:000562aa       ?OnToolHitTest@CWnd@@UBEHVCPoint@@PAUtagTOOLINFOA@@@Z 004572aa f   mfc42:MFC42.DLL
 0001:000562b0       ?CalcWindowRect@CWnd@@UAEXPAUtagRECT@@I@Z 004572b0 f   mfc42:MFC42.DLL
 0001:000562b6       ?PreCreateWindow@CWnd@@UAEHAAUtagCREATESTRUCTA@@@Z 004572b6 f   mfc42:MFC42.DLL
 0001:000562bc       ?DestroyWindow@CWnd@@UAEHXZ 004572bc f   mfc42:MFC42.DLL
 0001:000562c2       ?Create@CWnd@@UAEHPBD0KABUtagRECT@@PAV1@IPAUCCreateContext@@@Z 004572c2 f   mfc42:MFC42.DLL
 0001:000562c8       ?PreSubclassWindow@CWnd@@UAEXXZ 004572c8 f   mfc42:MFC42.DLL
 0001:000562ce       ?GetConnectionHook@CCmdTarget@@MAEPAUIConnectionPoint@@ABU_GUID@@@Z 004572ce f   mfc42:MFC42.DLL
 0001:000562d4       ?GetExtraConnectionPoints@CCmdTarget@@MAEHPAVCPtrArray@@@Z 004572d4 f   mfc42:MFC42.DLL
 0001:000562da       ?GetInterfaceHook@CCmdTarget@@UAEPAUIUnknown@@PBX@Z 004572da f   mfc42:MFC42.DLL
 0001:000562e0       ?OnCreateAggregates@CCmdTarget@@UAEHXZ 004572e0 f   mfc42:MFC42.DLL
 0001:000562e6       ?GetEventSinkMap@CCmdTarget@@MBEPBUAFX_EVENTSINKMAP@@XZ 004572e6 f   mfc42:MFC42.DLL
 0001:000562ec       ?GetInterfaceMap@CCmdTarget@@MBEPBUAFX_INTERFACEMAP@@XZ 004572ec f   mfc42:MFC42.DLL
 0001:000562f2       ?GetConnectionMap@CCmdTarget@@MBEPBUAFX_CONNECTIONMAP@@XZ 004572f2 f   mfc42:MFC42.DLL
 0001:000562f8       ?GetDispatchMap@CCmdTarget@@MBEPBUAFX_DISPMAP@@XZ 004572f8 f   mfc42:MFC42.DLL
 0001:000562fe       ?GetCommandMap@CCmdTarget@@MBEPBUAFX_OLECMDMAP@@XZ 004572fe f   mfc42:MFC42.DLL
 0001:00056304       ?GetTypeLib@CCmdTarget@@UAEJKPAPAUITypeLib@@@Z 00457304 f   mfc42:MFC42.DLL
 0001:0005630a       ?GetTypeLibCache@CCmdTarget@@UAEPAVCTypeLibCache@@XZ 0045730a f   mfc42:MFC42.DLL
 0001:00056310       ?GetTypeInfoCount@CCmdTarget@@UAEIXZ 00457310 f   mfc42:MFC42.DLL
 0001:00056316       ?GetDispatchIID@CCmdTarget@@UAEHPAU_GUID@@@Z 00457316 f   mfc42:MFC42.DLL
 0001:0005631c       ?IsInvokeAllowed@CCmdTarget@@UAEHJ@Z 0045731c f   mfc42:MFC42.DLL
 0001:00056322       ?OnFinalRelease@CWnd@@UAEXXZ 00457322 f   mfc42:MFC42.DLL
 0001:00056328       ??0CDialog@@QAE@XZ         00457328 f   mfc42:MFC42.DLL
 0001:0005632e       ??1CDialog@@UAE@XZ         0045732e f   mfc42:MFC42.DLL
 0001:00056334       ?OnInitDialog@CDialog@@UAEHXZ 00457334 f   mfc42:MFC42.DLL
 0001:0005633a       ?Default@CWnd@@IAEJXZ      0045733a f   mfc42:MFC42.DLL
 0001:00056340       ?OnCmdMsg@CCmdTarget@@UAEHIHPAXPAUAFX_CMDHANDLERINFO@@@Z 00457340 f   mfc42:MFC42.DLL
 0001:00056346       ?PreTranslateInput@CWnd@@QAEHPAUtagMSG@@@Z 00457346 f   mfc42:MFC42.DLL
 0001:0005634c       ?AfxDynamicDownCast@@YAPAVCObject@@PAUCRuntimeClass@@PAV1@@Z 0045734c f   mfc42:MFC42.DLL
 0001:00056352       ?PreTranslateMessage@CWnd@@UAEHPAUtagMSG@@@Z 00457352 f   mfc42:MFC42.DLL
 0001:00056358       ?SetStatusText@CControlBar@@UAEHH@Z 00457358 f   mfc42:MFC42.DLL
 0001:0005635e       ?OnBarStyleChange@CControlBar@@UAEXKK@Z 0045735e f   mfc42:MFC42.DLL
 0001:00056364       ?IsDockBar@CControlBar@@UBEHXZ 00457364 f   mfc42:MFC42.DLL
 0001:0005636a       ?RecalcDelayShow@CControlBar@@UAEKPAUAFX_SIZEPARENTPARAMS@@@Z 0045736a f   mfc42:MFC42.DLL
 0001:00056370       ?IsVisible@CControlBar@@UBEHXZ 00457370 f   mfc42:MFC42.DLL
 0001:00056376       ?DelayShow@CControlBar@@UAEXH@Z 00457376 f   mfc42:MFC42.DLL
 0001:0005637c       ?SetOccDialogInfo@CWnd@@MAEHPAU_AFX_OCC_DIALOG_INFO@@@Z 0045737c f   mfc42:MFC42.DLL
 0001:00056382       ?CheckAutoCenter@CWnd@@UAEHXZ 00457382 f   mfc42:MFC42.DLL
 0001:00056388       ?WindowProc@CControlBar@@UAEJIIJ@Z 00457388 f   mfc42:MFC42.DLL
 0001:0005638e       ?PreCreateWindow@CControlBar@@UAEHAAUtagCREATESTRUCTA@@@Z 0045738e f   mfc42:MFC42.DLL
 0001:00056394       ?DestroyWindow@CControlBar@@UAEHXZ 00457394 f   mfc42:MFC42.DLL
 0001:0005639a       ?PostNcDestroy@CControlBar@@UAEXXZ 0045739a f   mfc42:MFC42.DLL
 0001:000563a0       ?SetWindowPos@CWnd@@QAEHPBV1@HHHHI@Z 004573a0 f   mfc42:MFC42.DLL
 0001:000563a6       ?UpdateDialogControls@CWnd@@QAEXPAVCCmdTarget@@H@Z 004573a6 f   mfc42:MFC42.DLL
 0001:000563ac       ?DoUpdate@CCmdUI@@QAEHPAVCCmdTarget@@H@Z 004573ac f   mfc42:MFC42.DLL
 0001:000563b2       ?GetDlgCtrlID@CWnd@@QBEHXZ 004573b2 f   mfc42:MFC42.DLL
 0001:000563b8       ??0CCmdUI@@QAE@XZ          004573b8 f   mfc42:MFC42.DLL
 0001:000563be       ?IsWindowEnabled@CWnd@@QBEHXZ 004573be f   mfc42:MFC42.DLL
 0001:000563c4       ?PreTranslateMessage@CControlBar@@UAEHPAUtagMSG@@@Z 004573c4 f   mfc42:MFC42.DLL
 0001:000563ca       ?AfxMessageBox@@YGHPBDII@Z 004573ca f   mfc42:MFC42.DLL
 0001:000563d0       ?GetRuntimeClass@CBitmap@@UBEPAUCRuntimeClass@@XZ 004573d0 f   mfc42:MFC42.DLL
 0001:000563d6       ?OnChildNotify@CButton@@MAEHIIJPAJ@Z 004573d6 f   mfc42:MFC42.DLL
 0001:000563dc       ?GetRuntimeClass@CButton@@UBEPAUCRuntimeClass@@XZ 004573dc f   mfc42:MFC42.DLL
 0001:000563e2       ??0CWnd@@QAE@XZ            004573e2 f   mfc42:MFC42.DLL
 0001:000563e8       ??1CButton@@UAE@XZ         004573e8 f   mfc42:MFC42.DLL
 0001:000563ee       ??1CDC@@UAE@XZ             004573ee f   mfc42:MFC42.DLL
